
USB+RX_unif_functions.elf:     file format elf32-littlearm

Sections:
Idx Name          Size      VMA       LMA       File off  Algn
  0 .isr_vector   00000188  08000000  08000000  00010000  2**0
                  CONTENTS, ALLOC, LOAD, READONLY, DATA
  1 .text         00006480  08000188  08000188  00010188  2**2
                  CONTENTS, ALLOC, LOAD, READONLY, CODE
  2 .rodata       000000dc  08006608  08006608  00016608  2**2
                  CONTENTS, ALLOC, LOAD, READONLY, DATA
  3 .init_array   00000004  080066e4  080066e4  000166e4  2**2
                  CONTENTS, ALLOC, LOAD, DATA
  4 .fini_array   00000004  080066e8  080066e8  000166e8  2**2
                  CONTENTS, ALLOC, LOAD, DATA
  5 .data         0000019c  20000000  080066ec  00020000  2**2
                  CONTENTS, ALLOC, LOAD, DATA
  6 .ccmram       00000000  10000000  10000000  0002019c  2**0
                  CONTENTS
  7 .bss          00001020  2000019c  2000019c  0002019c  2**2
                  ALLOC
  8 ._user_heap_stack 00000400  200011bc  200011bc  0002019c  2**0
                  ALLOC
  9 .ARM.attributes 00000030  00000000  00000000  0002019c  2**0
                  CONTENTS, READONLY
 10 .debug_info   0001498d  00000000  00000000  000201cc  2**0
                  CONTENTS, READONLY, DEBUGGING
 11 .debug_abbrev 00003700  00000000  00000000  00034b59  2**0
                  CONTENTS, READONLY, DEBUGGING
 12 .debug_aranges 00000f90  00000000  00000000  00038260  2**3
                  CONTENTS, READONLY, DEBUGGING
 13 .debug_ranges 00000db8  00000000  00000000  000391f0  2**3
                  CONTENTS, READONLY, DEBUGGING
 14 .debug_line   000066ff  00000000  00000000  00039fa8  2**0
                  CONTENTS, READONLY, DEBUGGING
 15 .debug_str    0000592b  00000000  00000000  000406a7  2**0
                  CONTENTS, READONLY, DEBUGGING
 16 .comment      0000007e  00000000  00000000  00045fd2  2**0
                  CONTENTS, READONLY
 17 .debug_frame  00004024  00000000  00000000  00046050  2**2
                  CONTENTS, READONLY, DEBUGGING
 18 .stab         0000003c  00000000  00000000  0004a074  2**2
                  CONTENTS, READONLY, DEBUGGING
 19 .stabstr      000000ac  00000000  00000000  0004a0b0  2**0
                  CONTENTS, READONLY, DEBUGGING

Disassembly of section .text:

08000188 <__do_global_dtors_aux>:
 8000188:	b510      	push	{r4, lr}
 800018a:	4c05      	ldr	r4, [pc, #20]	; (80001a0 <__do_global_dtors_aux+0x18>)
 800018c:	7823      	ldrb	r3, [r4, #0]
 800018e:	b933      	cbnz	r3, 800019e <__do_global_dtors_aux+0x16>
 8000190:	4b04      	ldr	r3, [pc, #16]	; (80001a4 <__do_global_dtors_aux+0x1c>)
 8000192:	b113      	cbz	r3, 800019a <__do_global_dtors_aux+0x12>
 8000194:	4804      	ldr	r0, [pc, #16]	; (80001a8 <__do_global_dtors_aux+0x20>)
 8000196:	f3af 8000 	nop.w
 800019a:	2301      	movs	r3, #1
 800019c:	7023      	strb	r3, [r4, #0]
 800019e:	bd10      	pop	{r4, pc}
 80001a0:	2000019c 	.word	0x2000019c
 80001a4:	00000000 	.word	0x00000000
 80001a8:	080065f0 	.word	0x080065f0

080001ac <frame_dummy>:
 80001ac:	b508      	push	{r3, lr}
 80001ae:	4b03      	ldr	r3, [pc, #12]	; (80001bc <frame_dummy+0x10>)
 80001b0:	b11b      	cbz	r3, 80001ba <frame_dummy+0xe>
 80001b2:	4903      	ldr	r1, [pc, #12]	; (80001c0 <frame_dummy+0x14>)
 80001b4:	4803      	ldr	r0, [pc, #12]	; (80001c4 <frame_dummy+0x18>)
 80001b6:	f3af 8000 	nop.w
 80001ba:	bd08      	pop	{r3, pc}
 80001bc:	00000000 	.word	0x00000000
 80001c0:	200001a0 	.word	0x200001a0
 80001c4:	080065f0 	.word	0x080065f0

080001c8 <SystemInit>:
  *         SystemFrequency variable.
  * @param  None
  * @retval None
  */
void SystemInit(void)
{
 80001c8:	b580      	push	{r7, lr}
 80001ca:	af00      	add	r7, sp, #0
  /* FPU settings ------------------------------------------------------------*/
  #if (__FPU_PRESENT == 1) && (__FPU_USED == 1)
	SCB->CPACR |= ((3UL << 10*2)|(3UL << 11*2));  /* set CP10 and CP11 Full Access */
 80001cc:	4a16      	ldr	r2, [pc, #88]	; (8000228 <SystemInit+0x60>)
 80001ce:	4b16      	ldr	r3, [pc, #88]	; (8000228 <SystemInit+0x60>)
 80001d0:	f8d3 3088 	ldr.w	r3, [r3, #136]	; 0x88
 80001d4:	f443 0370 	orr.w	r3, r3, #15728640	; 0xf00000
 80001d8:	f8c2 3088 	str.w	r3, [r2, #136]	; 0x88
  #endif

  /* Reset the RCC clock configuration to the default reset state ------------*/
  /* Set HSION bit */
  RCC->CR |= (uint32_t)0x00000001;
 80001dc:	4a13      	ldr	r2, [pc, #76]	; (800022c <SystemInit+0x64>)
 80001de:	4b13      	ldr	r3, [pc, #76]	; (800022c <SystemInit+0x64>)
 80001e0:	681b      	ldr	r3, [r3, #0]
 80001e2:	f043 0301 	orr.w	r3, r3, #1
 80001e6:	6013      	str	r3, [r2, #0]

  /* Reset CFGR register */
  RCC->CFGR = 0x00000000;
 80001e8:	4b10      	ldr	r3, [pc, #64]	; (800022c <SystemInit+0x64>)
 80001ea:	2200      	movs	r2, #0
 80001ec:	609a      	str	r2, [r3, #8]

  /* Reset HSEON, CSSON and PLLON bits */
  RCC->CR &= (uint32_t)0xFEF6FFFF;
 80001ee:	4a0f      	ldr	r2, [pc, #60]	; (800022c <SystemInit+0x64>)
 80001f0:	4b0e      	ldr	r3, [pc, #56]	; (800022c <SystemInit+0x64>)
 80001f2:	681b      	ldr	r3, [r3, #0]
 80001f4:	f023 7384 	bic.w	r3, r3, #17301504	; 0x1080000
 80001f8:	f423 3380 	bic.w	r3, r3, #65536	; 0x10000
 80001fc:	6013      	str	r3, [r2, #0]

  /* Reset PLLCFGR register */
  RCC->PLLCFGR = 0x24003010;
 80001fe:	4b0b      	ldr	r3, [pc, #44]	; (800022c <SystemInit+0x64>)
 8000200:	4a0b      	ldr	r2, [pc, #44]	; (8000230 <SystemInit+0x68>)
 8000202:	605a      	str	r2, [r3, #4]

  /* Reset HSEBYP bit */
  RCC->CR &= (uint32_t)0xFFFBFFFF;
 8000204:	4a09      	ldr	r2, [pc, #36]	; (800022c <SystemInit+0x64>)
 8000206:	4b09      	ldr	r3, [pc, #36]	; (800022c <SystemInit+0x64>)
 8000208:	681b      	ldr	r3, [r3, #0]
 800020a:	f423 2380 	bic.w	r3, r3, #262144	; 0x40000
 800020e:	6013      	str	r3, [r2, #0]

  /* Disable all interrupts */
  RCC->CIR = 0x00000000;
 8000210:	4b06      	ldr	r3, [pc, #24]	; (800022c <SystemInit+0x64>)
 8000212:	2200      	movs	r2, #0
 8000214:	60da      	str	r2, [r3, #12]
  SystemInit_ExtMemCtl(); 
#endif /* DATA_IN_ExtSRAM */
         
  /* Configure the System clock source, PLL Multiplier and Divider factors, 
     AHB/APBx prescalers and Flash settings ----------------------------------*/
  SetSysClock();
 8000216:	f000 f80d 	bl	8000234 <SetSysClock>

  /* Configure the Vector Table location add offset address ------------------*/
#ifdef VECT_TAB_SRAM
  SCB->VTOR = SRAM_BASE | VECT_TAB_OFFSET; /* Vector Table Relocation in Internal SRAM */
#else
  SCB->VTOR = FLASH_BASE | VECT_TAB_OFFSET; /* Vector Table Relocation in Internal FLASH */
 800021a:	4b03      	ldr	r3, [pc, #12]	; (8000228 <SystemInit+0x60>)
 800021c:	f04f 6200 	mov.w	r2, #134217728	; 0x8000000
 8000220:	609a      	str	r2, [r3, #8]
#endif
}
 8000222:	bf00      	nop
 8000224:	bd80      	pop	{r7, pc}
 8000226:	bf00      	nop
 8000228:	e000ed00 	.word	0xe000ed00
 800022c:	40023800 	.word	0x40023800
 8000230:	24003010 	.word	0x24003010

08000234 <SetSysClock>:
  *         is reset to the default reset state (done in SystemInit() function).   
  * @param  None
  * @retval None
  */
static void SetSysClock(void)
{
 8000234:	b480      	push	{r7}
 8000236:	b083      	sub	sp, #12
 8000238:	af00      	add	r7, sp, #0
/******************************************************************************/
/*            PLL (clocked by HSE) used as System clock source                */
/******************************************************************************/
  __IO uint32_t StartUpCounter = 0, HSEStatus = 0;
 800023a:	2300      	movs	r3, #0
 800023c:	607b      	str	r3, [r7, #4]
 800023e:	2300      	movs	r3, #0
 8000240:	603b      	str	r3, [r7, #0]
  
  /* Enable HSE */
  RCC->CR |= ((uint32_t)RCC_CR_HSEON);
 8000242:	4a36      	ldr	r2, [pc, #216]	; (800031c <SetSysClock+0xe8>)
 8000244:	4b35      	ldr	r3, [pc, #212]	; (800031c <SetSysClock+0xe8>)
 8000246:	681b      	ldr	r3, [r3, #0]
 8000248:	f443 3380 	orr.w	r3, r3, #65536	; 0x10000
 800024c:	6013      	str	r3, [r2, #0]
 
  /* Wait till HSE is ready and if Time out is reached exit */
  do
  {
    HSEStatus = RCC->CR & RCC_CR_HSERDY;
 800024e:	4b33      	ldr	r3, [pc, #204]	; (800031c <SetSysClock+0xe8>)
 8000250:	681b      	ldr	r3, [r3, #0]
 8000252:	f403 3300 	and.w	r3, r3, #131072	; 0x20000
 8000256:	603b      	str	r3, [r7, #0]
    StartUpCounter++;
 8000258:	687b      	ldr	r3, [r7, #4]
 800025a:	3301      	adds	r3, #1
 800025c:	607b      	str	r3, [r7, #4]
  } while((HSEStatus == 0) && (StartUpCounter != HSE_STARTUP_TIMEOUT));
 800025e:	683b      	ldr	r3, [r7, #0]
 8000260:	2b00      	cmp	r3, #0
 8000262:	d103      	bne.n	800026c <SetSysClock+0x38>
 8000264:	687b      	ldr	r3, [r7, #4]
 8000266:	f5b3 6fa0 	cmp.w	r3, #1280	; 0x500
 800026a:	d1f0      	bne.n	800024e <SetSysClock+0x1a>

  if ((RCC->CR & RCC_CR_HSERDY) != RESET)
 800026c:	4b2b      	ldr	r3, [pc, #172]	; (800031c <SetSysClock+0xe8>)
 800026e:	681b      	ldr	r3, [r3, #0]
 8000270:	f403 3300 	and.w	r3, r3, #131072	; 0x20000
 8000274:	2b00      	cmp	r3, #0
 8000276:	d002      	beq.n	800027e <SetSysClock+0x4a>
  {
    HSEStatus = (uint32_t)0x01;
 8000278:	2301      	movs	r3, #1
 800027a:	603b      	str	r3, [r7, #0]
 800027c:	e001      	b.n	8000282 <SetSysClock+0x4e>
  }
  else
  {
    HSEStatus = (uint32_t)0x00;
 800027e:	2300      	movs	r3, #0
 8000280:	603b      	str	r3, [r7, #0]
  }

  if (HSEStatus == (uint32_t)0x01)
 8000282:	683b      	ldr	r3, [r7, #0]
 8000284:	2b01      	cmp	r3, #1
 8000286:	d142      	bne.n	800030e <SetSysClock+0xda>
  {
    /* Enable high performance mode, System frequency up to 168 MHz */
    RCC->APB1ENR |= RCC_APB1ENR_PWREN;
 8000288:	4a24      	ldr	r2, [pc, #144]	; (800031c <SetSysClock+0xe8>)
 800028a:	4b24      	ldr	r3, [pc, #144]	; (800031c <SetSysClock+0xe8>)
 800028c:	6c1b      	ldr	r3, [r3, #64]	; 0x40
 800028e:	f043 5380 	orr.w	r3, r3, #268435456	; 0x10000000
 8000292:	6413      	str	r3, [r2, #64]	; 0x40
    PWR->CR |= PWR_CR_PMODE;  
 8000294:	4a22      	ldr	r2, [pc, #136]	; (8000320 <SetSysClock+0xec>)
 8000296:	4b22      	ldr	r3, [pc, #136]	; (8000320 <SetSysClock+0xec>)
 8000298:	681b      	ldr	r3, [r3, #0]
 800029a:	f443 4340 	orr.w	r3, r3, #49152	; 0xc000
 800029e:	6013      	str	r3, [r2, #0]

    /* HCLK = SYSCLK / 1*/
    RCC->CFGR |= RCC_CFGR_HPRE_DIV1;
 80002a0:	4a1e      	ldr	r2, [pc, #120]	; (800031c <SetSysClock+0xe8>)
 80002a2:	4b1e      	ldr	r3, [pc, #120]	; (800031c <SetSysClock+0xe8>)
 80002a4:	689b      	ldr	r3, [r3, #8]
 80002a6:	6093      	str	r3, [r2, #8]
      
    /* PCLK2 = HCLK / 2*/
    RCC->CFGR |= RCC_CFGR_PPRE2_DIV2;
 80002a8:	4a1c      	ldr	r2, [pc, #112]	; (800031c <SetSysClock+0xe8>)
 80002aa:	4b1c      	ldr	r3, [pc, #112]	; (800031c <SetSysClock+0xe8>)
 80002ac:	689b      	ldr	r3, [r3, #8]
 80002ae:	f443 4300 	orr.w	r3, r3, #32768	; 0x8000
 80002b2:	6093      	str	r3, [r2, #8]
    
    /* PCLK1 = HCLK / 4*/
    RCC->CFGR |= RCC_CFGR_PPRE1_DIV4;
 80002b4:	4a19      	ldr	r2, [pc, #100]	; (800031c <SetSysClock+0xe8>)
 80002b6:	4b19      	ldr	r3, [pc, #100]	; (800031c <SetSysClock+0xe8>)
 80002b8:	689b      	ldr	r3, [r3, #8]
 80002ba:	f443 53a0 	orr.w	r3, r3, #5120	; 0x1400
 80002be:	6093      	str	r3, [r2, #8]

    /* Configure the main PLL */
    RCC->PLLCFGR = PLL_M | (PLL_N << 6) | (((PLL_P >> 1) -1) << 16) |
 80002c0:	4b16      	ldr	r3, [pc, #88]	; (800031c <SetSysClock+0xe8>)
 80002c2:	4a18      	ldr	r2, [pc, #96]	; (8000324 <SetSysClock+0xf0>)
 80002c4:	605a      	str	r2, [r3, #4]
                   (RCC_PLLCFGR_PLLSRC_HSE) | (PLL_Q << 24);

    /* Enable the main PLL */
    RCC->CR |= RCC_CR_PLLON;
 80002c6:	4a15      	ldr	r2, [pc, #84]	; (800031c <SetSysClock+0xe8>)
 80002c8:	4b14      	ldr	r3, [pc, #80]	; (800031c <SetSysClock+0xe8>)
 80002ca:	681b      	ldr	r3, [r3, #0]
 80002cc:	f043 7380 	orr.w	r3, r3, #16777216	; 0x1000000
 80002d0:	6013      	str	r3, [r2, #0]

    /* Wait till the main PLL is ready */
    while((RCC->CR & RCC_CR_PLLRDY) == 0)
 80002d2:	bf00      	nop
 80002d4:	4b11      	ldr	r3, [pc, #68]	; (800031c <SetSysClock+0xe8>)
 80002d6:	681b      	ldr	r3, [r3, #0]
 80002d8:	f003 7300 	and.w	r3, r3, #33554432	; 0x2000000
 80002dc:	2b00      	cmp	r3, #0
 80002de:	d0f9      	beq.n	80002d4 <SetSysClock+0xa0>
    {
    }
   
    /* Configure Flash prefetch, Instruction cache, Data cache and wait state */
    FLASH->ACR = FLASH_ACR_ICEN |FLASH_ACR_DCEN |FLASH_ACR_LATENCY_5WS;
 80002e0:	4b11      	ldr	r3, [pc, #68]	; (8000328 <SetSysClock+0xf4>)
 80002e2:	f240 6205 	movw	r2, #1541	; 0x605
 80002e6:	601a      	str	r2, [r3, #0]

    /* Select the main PLL as system clock source */
    RCC->CFGR &= (uint32_t)((uint32_t)~(RCC_CFGR_SW));
 80002e8:	4a0c      	ldr	r2, [pc, #48]	; (800031c <SetSysClock+0xe8>)
 80002ea:	4b0c      	ldr	r3, [pc, #48]	; (800031c <SetSysClock+0xe8>)
 80002ec:	689b      	ldr	r3, [r3, #8]
 80002ee:	f023 0303 	bic.w	r3, r3, #3
 80002f2:	6093      	str	r3, [r2, #8]
    RCC->CFGR |= RCC_CFGR_SW_PLL;
 80002f4:	4a09      	ldr	r2, [pc, #36]	; (800031c <SetSysClock+0xe8>)
 80002f6:	4b09      	ldr	r3, [pc, #36]	; (800031c <SetSysClock+0xe8>)
 80002f8:	689b      	ldr	r3, [r3, #8]
 80002fa:	f043 0302 	orr.w	r3, r3, #2
 80002fe:	6093      	str	r3, [r2, #8]

    /* Wait till the main PLL is used as system clock source */
    while ((RCC->CFGR & (uint32_t)RCC_CFGR_SWS ) != RCC_CFGR_SWS_PLL);
 8000300:	bf00      	nop
 8000302:	4b06      	ldr	r3, [pc, #24]	; (800031c <SetSysClock+0xe8>)
 8000304:	689b      	ldr	r3, [r3, #8]
 8000306:	f003 030c 	and.w	r3, r3, #12
 800030a:	2b08      	cmp	r3, #8
 800030c:	d1f9      	bne.n	8000302 <SetSysClock+0xce>
  else
  { /* If HSE fails to start-up, the application will have wrong clock
         configuration. User can add here some code to deal with this error */
  }

}
 800030e:	bf00      	nop
 8000310:	370c      	adds	r7, #12
 8000312:	46bd      	mov	sp, r7
 8000314:	f85d 7b04 	ldr.w	r7, [sp], #4
 8000318:	4770      	bx	lr
 800031a:	bf00      	nop
 800031c:	40023800 	.word	0x40023800
 8000320:	40007000 	.word	0x40007000
 8000324:	07405408 	.word	0x07405408
 8000328:	40023c00 	.word	0x40023c00

0800032c <NMI_Handler>:
  * @brief   This function handles NMI exception.
  * @param  None
  * @retval None
  */
void NMI_Handler(void)
{
 800032c:	b480      	push	{r7}
 800032e:	af00      	add	r7, sp, #0
}
 8000330:	bf00      	nop
 8000332:	46bd      	mov	sp, r7
 8000334:	f85d 7b04 	ldr.w	r7, [sp], #4
 8000338:	4770      	bx	lr
 800033a:	bf00      	nop

0800033c <HardFault_Handler>:
  * @brief  This function handles Hard Fault exception.
  * @param  None
  * @retval None
  */
void HardFault_Handler(void)
{
 800033c:	b480      	push	{r7}
 800033e:	af00      	add	r7, sp, #0
	//uint8_t hfsr=SCB->HFSR;
  /* Go to infinite loop when Hard Fault exception occurs */
  while (1)
  {
  }
 8000340:	e7fe      	b.n	8000340 <HardFault_Handler+0x4>
 8000342:	bf00      	nop

08000344 <MemManage_Handler>:
  * @brief  This function handles Memory Manage exception.
  * @param  None
  * @retval None
  */
void MemManage_Handler(void)
{
 8000344:	b480      	push	{r7}
 8000346:	af00      	add	r7, sp, #0
  /* Go to infinite loop when Memory Manage exception occurs */
  while (1)
  {
  }
 8000348:	e7fe      	b.n	8000348 <MemManage_Handler+0x4>
 800034a:	bf00      	nop

0800034c <BusFault_Handler>:
  * @brief  This function handles Bus Fault exception.
  * @param  None
  * @retval None
  */
void BusFault_Handler(void)
{
 800034c:	b480      	push	{r7}
 800034e:	af00      	add	r7, sp, #0
  /* Go to infinite loop when Bus Fault exception occurs */
  while (1)
  {
  }
 8000350:	e7fe      	b.n	8000350 <BusFault_Handler+0x4>
 8000352:	bf00      	nop

08000354 <UsageFault_Handler>:
  * @brief  This function handles Usage Fault exception.
  * @param  None
  * @retval None
  */
void UsageFault_Handler(void)
{
 8000354:	b480      	push	{r7}
 8000356:	af00      	add	r7, sp, #0
  /* Go to infinite loop when Usage Fault exception occurs */
  while (1)
  {
  }
 8000358:	e7fe      	b.n	8000358 <UsageFault_Handler+0x4>
 800035a:	bf00      	nop

0800035c <SVC_Handler>:
  * @brief  This function handles SVCall exception.
  * @param  None
  * @retval None
  */
void SVC_Handler(void)
{
 800035c:	b480      	push	{r7}
 800035e:	af00      	add	r7, sp, #0
}
 8000360:	bf00      	nop
 8000362:	46bd      	mov	sp, r7
 8000364:	f85d 7b04 	ldr.w	r7, [sp], #4
 8000368:	4770      	bx	lr
 800036a:	bf00      	nop

0800036c <DebugMon_Handler>:
  * @brief  This function handles Debug Monitor exception.
  * @param  None
  * @retval None
  */
void DebugMon_Handler(void)
{
 800036c:	b480      	push	{r7}
 800036e:	af00      	add	r7, sp, #0
}
 8000370:	bf00      	nop
 8000372:	46bd      	mov	sp, r7
 8000374:	f85d 7b04 	ldr.w	r7, [sp], #4
 8000378:	4770      	bx	lr
 800037a:	bf00      	nop

0800037c <PendSV_Handler>:
  * @brief  This function handles PendSVC exception.
  * @param  None
  * @retval None
  */
void PendSV_Handler(void)
{
 800037c:	b480      	push	{r7}
 800037e:	af00      	add	r7, sp, #0
}
 8000380:	bf00      	nop
 8000382:	46bd      	mov	sp, r7
 8000384:	f85d 7b04 	ldr.w	r7, [sp], #4
 8000388:	4770      	bx	lr
 800038a:	bf00      	nop

0800038c <Reset_Handler>:

    .section  .text.Reset_Handler
  .weak  Reset_Handler
  .type  Reset_Handler, %function
Reset_Handler:  
  ldr   sp, =_estack    /* Atollic update: set stack pointer */
 800038c:	f8df d034 	ldr.w	sp, [pc, #52]	; 80003c4 <LoopFillZerobss+0x14>

/* Copy the data segment initializers from flash to SRAM */  
  movs  r1, #0
 8000390:	2100      	movs	r1, #0
  b  LoopCopyDataInit
 8000392:	e003      	b.n	800039c <LoopCopyDataInit>

08000394 <CopyDataInit>:

CopyDataInit:
  ldr  r3, =_sidata
 8000394:	4b0c      	ldr	r3, [pc, #48]	; (80003c8 <LoopFillZerobss+0x18>)
  ldr  r3, [r3, r1]
 8000396:	585b      	ldr	r3, [r3, r1]
  str  r3, [r0, r1]
 8000398:	5043      	str	r3, [r0, r1]
  adds  r1, r1, #4
 800039a:	3104      	adds	r1, #4

0800039c <LoopCopyDataInit>:
    
LoopCopyDataInit:
  ldr  r0, =_sdata
 800039c:	480b      	ldr	r0, [pc, #44]	; (80003cc <LoopFillZerobss+0x1c>)
  ldr  r3, =_edata
 800039e:	4b0c      	ldr	r3, [pc, #48]	; (80003d0 <LoopFillZerobss+0x20>)
  adds  r2, r0, r1
 80003a0:	1842      	adds	r2, r0, r1
  cmp  r2, r3
 80003a2:	429a      	cmp	r2, r3
  bcc  CopyDataInit
 80003a4:	d3f6      	bcc.n	8000394 <CopyDataInit>
  ldr  r2, =_sbss
 80003a6:	4a0b      	ldr	r2, [pc, #44]	; (80003d4 <LoopFillZerobss+0x24>)
  b  LoopFillZerobss
 80003a8:	e002      	b.n	80003b0 <LoopFillZerobss>

080003aa <FillZerobss>:
/* Zero fill the bss segment. */  
FillZerobss:
  movs  r3, #0
 80003aa:	2300      	movs	r3, #0
  str  r3, [r2], #4
 80003ac:	f842 3b04 	str.w	r3, [r2], #4

080003b0 <LoopFillZerobss>:
    
LoopFillZerobss:
  ldr  r3, = _ebss
 80003b0:	4b09      	ldr	r3, [pc, #36]	; (80003d8 <LoopFillZerobss+0x28>)
  cmp  r2, r3
 80003b2:	429a      	cmp	r2, r3
  bcc  FillZerobss
 80003b4:	d3f9      	bcc.n	80003aa <FillZerobss>

/* Call the clock system intitialization function.*/
  bl  SystemInit   
 80003b6:	f7ff ff07 	bl	80001c8 <SystemInit>
/* Call static constructors */
    bl __libc_init_array
 80003ba:	f006 f89b 	bl	80064f4 <__libc_init_array>
/* Call the application's entry point.*/
  bl  main
 80003be:	f001 fc65 	bl	8001c8c <main>
  bx  lr    
 80003c2:	4770      	bx	lr

    .section  .text.Reset_Handler
  .weak  Reset_Handler
  .type  Reset_Handler, %function
Reset_Handler:  
  ldr   sp, =_estack    /* Atollic update: set stack pointer */
 80003c4:	20020000 	.word	0x20020000
/* Copy the data segment initializers from flash to SRAM */  
  movs  r1, #0
  b  LoopCopyDataInit

CopyDataInit:
  ldr  r3, =_sidata
 80003c8:	080066ec 	.word	0x080066ec
  ldr  r3, [r3, r1]
  str  r3, [r0, r1]
  adds  r1, r1, #4
    
LoopCopyDataInit:
  ldr  r0, =_sdata
 80003cc:	20000000 	.word	0x20000000
  ldr  r3, =_edata
 80003d0:	2000019c 	.word	0x2000019c
  adds  r2, r0, r1
  cmp  r2, r3
  bcc  CopyDataInit
  ldr  r2, =_sbss
 80003d4:	2000019c 	.word	0x2000019c
FillZerobss:
  movs  r3, #0
  str  r3, [r2], #4
    
LoopFillZerobss:
  ldr  r3, = _ebss
 80003d8:	200011bc 	.word	0x200011bc

080003dc <ADC_IRQHandler>:
 * @retval None       
*/
    .section  .text.Default_Handler,"ax",%progbits
Default_Handler:
Infinite_Loop:
  b  Infinite_Loop
 80003dc:	e7fe      	b.n	80003dc <ADC_IRQHandler>
	...

080003e0 <_ZN3SPIC1EP11SPI_TypeDefP12GPIO_TypeDeft>:
#include "stm32f4xx_gpio.h"
#include "own_libraries/SPI_interface.h"
#include "own_libraries/CONFIG.h" //para usar SPI_Clock_Cmd() e GPIO_Clock_Cmd()

//TODO: resolver a incompatibilidade de velocidades do NRF e do SPI
SPI::SPI(SPI_TypeDef* SPI,GPIO_TypeDef* CS_GPIO,uint16_t CS_Pin){
 80003e0:	b580      	push	{r7, lr}
 80003e2:	b08c      	sub	sp, #48	; 0x30
 80003e4:	af00      	add	r7, sp, #0
 80003e6:	60f8      	str	r0, [r7, #12]
 80003e8:	60b9      	str	r1, [r7, #8]
 80003ea:	607a      	str	r2, [r7, #4]
 80003ec:	807b      	strh	r3, [r7, #2]
	NRF_SPI 	= SPI;
 80003ee:	68fb      	ldr	r3, [r7, #12]
 80003f0:	68ba      	ldr	r2, [r7, #8]
 80003f2:	601a      	str	r2, [r3, #0]
	NRF_CS_GPIO = CS_GPIO;
 80003f4:	68fb      	ldr	r3, [r7, #12]
 80003f6:	687a      	ldr	r2, [r7, #4]
 80003f8:	605a      	str	r2, [r3, #4]
	NRF_CS_Pin 	= CS_Pin;
 80003fa:	68fb      	ldr	r3, [r7, #12]
 80003fc:	887a      	ldrh	r2, [r7, #2]
 80003fe:	811a      	strh	r2, [r3, #8]

	//CSN CLOCK ENABLE
	GPIO_Clock_Cmd(NRF_CS_GPIO, ENABLE);
 8000400:	68fb      	ldr	r3, [r7, #12]
 8000402:	685b      	ldr	r3, [r3, #4]
 8000404:	2101      	movs	r1, #1
 8000406:	4618      	mov	r0, r3
 8000408:	f001 f85c 	bl	80014c4 <_Z14GPIO_Clock_CmdP12GPIO_TypeDef15FunctionalState>

	//CSN GPIO configuration
	GPIO_InitTypeDef GPIO_CSN_initstruct;
	GPIO_CSN_initstruct.GPIO_Mode = GPIO_Mode_OUT;
 800040c:	2301      	movs	r3, #1
 800040e:	f887 302c 	strb.w	r3, [r7, #44]	; 0x2c
	GPIO_CSN_initstruct.GPIO_OType = GPIO_OType_PP;
 8000412:	2300      	movs	r3, #0
 8000414:	f887 302e 	strb.w	r3, [r7, #46]	; 0x2e
	GPIO_CSN_initstruct.GPIO_Pin = NRF_CS_Pin;
 8000418:	68fb      	ldr	r3, [r7, #12]
 800041a:	891b      	ldrh	r3, [r3, #8]
 800041c:	62bb      	str	r3, [r7, #40]	; 0x28
	GPIO_CSN_initstruct.GPIO_PuPd = GPIO_PuPd_NOPULL;
 800041e:	2300      	movs	r3, #0
 8000420:	f887 302f 	strb.w	r3, [r7, #47]	; 0x2f
	GPIO_CSN_initstruct.GPIO_Speed = GPIO_Speed_50MHz;
 8000424:	2302      	movs	r3, #2
 8000426:	f887 302d 	strb.w	r3, [r7, #45]	; 0x2d
	GPIO_Init(NRF_CS_GPIO, &GPIO_CSN_initstruct);
 800042a:	68fb      	ldr	r3, [r7, #12]
 800042c:	685b      	ldr	r3, [r3, #4]
 800042e:	f107 0228 	add.w	r2, r7, #40	; 0x28
 8000432:	4611      	mov	r1, r2
 8000434:	4618      	mov	r0, r3
 8000436:	f005 fd25 	bl	8005e84 <GPIO_Init>
	GPIO_SetBits(NRF_CS_GPIO, NRF_CS_Pin);//CSN inicialization
 800043a:	68fb      	ldr	r3, [r7, #12]
 800043c:	685a      	ldr	r2, [r3, #4]
 800043e:	68fb      	ldr	r3, [r7, #12]
 8000440:	891b      	ldrh	r3, [r3, #8]
 8000442:	4619      	mov	r1, r3
 8000444:	4610      	mov	r0, r2
 8000446:	f005 fdc5 	bl	8005fd4 <GPIO_SetBits>

	//SPI1 CLOCK ENABLE
	SPI_Clock_Cmd(NRF_SPI,ENABLE);
 800044a:	68fb      	ldr	r3, [r7, #12]
 800044c:	681b      	ldr	r3, [r3, #0]
 800044e:	2101      	movs	r1, #1
 8000450:	4618      	mov	r0, r3
 8000452:	f001 f8d5 	bl	8001600 <_Z13SPI_Clock_CmdP11SPI_TypeDef15FunctionalState>
	//SPI1 CONFIG
	SPI_InitTypeDef SPI_InitStruct;										//SPI config
	SPI_InitStruct.SPI_BaudRatePrescaler = SPI_BaudRatePrescaler_256;	//SPI config
 8000456:	2338      	movs	r3, #56	; 0x38
 8000458:	843b      	strh	r3, [r7, #32]
	SPI_InitStruct.SPI_CPHA = SPI_CPHA_1Edge;							//SPI config
 800045a:	2300      	movs	r3, #0
 800045c:	83bb      	strh	r3, [r7, #28]
	SPI_InitStruct.SPI_CPOL = SPI_CPOL_Low;								//SPI config
 800045e:	2300      	movs	r3, #0
 8000460:	837b      	strh	r3, [r7, #26]
	SPI_InitStruct.SPI_DataSize = SPI_DataSize_8b;						//SPI config
 8000462:	2300      	movs	r3, #0
 8000464:	833b      	strh	r3, [r7, #24]
	SPI_InitStruct.SPI_Direction = SPI_Direction_2Lines_FullDuplex;		//SPI config
 8000466:	2300      	movs	r3, #0
 8000468:	82bb      	strh	r3, [r7, #20]
	SPI_InitStruct.SPI_FirstBit = SPI_FirstBit_MSB;						//SPI config
 800046a:	2300      	movs	r3, #0
 800046c:	847b      	strh	r3, [r7, #34]	; 0x22
	SPI_InitStruct.SPI_Mode = SPI_Mode_Master;							//SPI config
 800046e:	f44f 7382 	mov.w	r3, #260	; 0x104
 8000472:	82fb      	strh	r3, [r7, #22]
	SPI_InitStruct.SPI_NSS = SPI_NSS_Soft;								//SPI config
 8000474:	f44f 7300 	mov.w	r3, #512	; 0x200
 8000478:	83fb      	strh	r3, [r7, #30]
	SPI_Init(NRF_SPI, &SPI_InitStruct);									//SPI config
 800047a:	68fb      	ldr	r3, [r7, #12]
 800047c:	681b      	ldr	r3, [r3, #0]
 800047e:	f107 0214 	add.w	r2, r7, #20
 8000482:	4611      	mov	r1, r2
 8000484:	4618      	mov	r0, r3
 8000486:	f005 fbbf 	bl	8005c08 <SPI_Init>
	SPI_Cmd(NRF_SPI,ENABLE);											//SPI config
 800048a:	68fb      	ldr	r3, [r7, #12]
 800048c:	681b      	ldr	r3, [r3, #0]
 800048e:	2101      	movs	r1, #1
 8000490:	4618      	mov	r0, r3
 8000492:	f005 fbfd 	bl	8005c90 <SPI_Cmd>
}
 8000496:	68fb      	ldr	r3, [r7, #12]
 8000498:	4618      	mov	r0, r3
 800049a:	3730      	adds	r7, #48	; 0x30
 800049c:	46bd      	mov	sp, r7
 800049e:	bd80      	pop	{r7, pc}

080004a0 <_ZN3SPI9ASSERT_CSEi>:

void SPI::ASSERT_CS(int STATE){
 80004a0:	b580      	push	{r7, lr}
 80004a2:	b082      	sub	sp, #8
 80004a4:	af00      	add	r7, sp, #0
 80004a6:	6078      	str	r0, [r7, #4]
 80004a8:	6039      	str	r1, [r7, #0]
	if(STATE==SET){
 80004aa:	683b      	ldr	r3, [r7, #0]
 80004ac:	2b01      	cmp	r3, #1
 80004ae:	d108      	bne.n	80004c2 <_ZN3SPI9ASSERT_CSEi+0x22>
		GPIO_SetBits(NRF_CS_GPIO,NRF_CS_Pin);
 80004b0:	687b      	ldr	r3, [r7, #4]
 80004b2:	685a      	ldr	r2, [r3, #4]
 80004b4:	687b      	ldr	r3, [r7, #4]
 80004b6:	891b      	ldrh	r3, [r3, #8]
 80004b8:	4619      	mov	r1, r3
 80004ba:	4610      	mov	r0, r2
 80004bc:	f005 fd8a 	bl	8005fd4 <GPIO_SetBits>
	}else if(STATE==RESET){
		GPIO_ResetBits(NRF_CS_GPIO,NRF_CS_Pin);
	}
}
 80004c0:	e00a      	b.n	80004d8 <_ZN3SPI9ASSERT_CSEi+0x38>
}

void SPI::ASSERT_CS(int STATE){
	if(STATE==SET){
		GPIO_SetBits(NRF_CS_GPIO,NRF_CS_Pin);
	}else if(STATE==RESET){
 80004c2:	683b      	ldr	r3, [r7, #0]
 80004c4:	2b00      	cmp	r3, #0
 80004c6:	d107      	bne.n	80004d8 <_ZN3SPI9ASSERT_CSEi+0x38>
		GPIO_ResetBits(NRF_CS_GPIO,NRF_CS_Pin);
 80004c8:	687b      	ldr	r3, [r7, #4]
 80004ca:	685a      	ldr	r2, [r3, #4]
 80004cc:	687b      	ldr	r3, [r7, #4]
 80004ce:	891b      	ldrh	r3, [r3, #8]
 80004d0:	4619      	mov	r1, r3
 80004d2:	4610      	mov	r0, r2
 80004d4:	f005 fd8e 	bl	8005ff4 <GPIO_ResetBits>
	}
}
 80004d8:	bf00      	nop
 80004da:	3708      	adds	r7, #8
 80004dc:	46bd      	mov	sp, r7
 80004de:	bd80      	pop	{r7, pc}

080004e0 <_ZN3SPI3CMDEhhPhS0_>:
 * cmd: comando a ser enviado pela discovery (master)
 * size: número de bytes que devem ser recebidos/enviados pelo SPI
 * ptr_send: ponteiro com os size bytes a serem enviados, use NULL para somente receber
 * ptr_receive: ponteiro com os size bytes a serem recebidos, use NULL para apenas enviar
 */
int SPI::CMD(uint8_t cmd, uint8_t size,uint8_t* ptr_send,uint8_t* ptr_receive){
 80004e0:	b580      	push	{r7, lr}
 80004e2:	b086      	sub	sp, #24
 80004e4:	af00      	add	r7, sp, #0
 80004e6:	60f8      	str	r0, [r7, #12]
 80004e8:	607b      	str	r3, [r7, #4]
 80004ea:	460b      	mov	r3, r1
 80004ec:	72fb      	strb	r3, [r7, #11]
 80004ee:	4613      	mov	r3, r2
 80004f0:	72bb      	strb	r3, [r7, #10]
	ASSERT_CS(RESET);
 80004f2:	2100      	movs	r1, #0
 80004f4:	68f8      	ldr	r0, [r7, #12]
 80004f6:	f7ff ffd3 	bl	80004a0 <_ZN3SPI9ASSERT_CSEi>

	//limpa o buffer de recepção
	SPI_I2S_ReceiveData(NRF_SPI);
 80004fa:	68fb      	ldr	r3, [r7, #12]
 80004fc:	681b      	ldr	r3, [r3, #0]
 80004fe:	4618      	mov	r0, r3
 8000500:	f005 fbe6 	bl	8005cd0 <SPI_I2S_ReceiveData>

	SPI_I2S_SendData(NRF_SPI,cmd);
 8000504:	68fb      	ldr	r3, [r7, #12]
 8000506:	681b      	ldr	r3, [r3, #0]
 8000508:	7afa      	ldrb	r2, [r7, #11]
 800050a:	b292      	uxth	r2, r2
 800050c:	4611      	mov	r1, r2
 800050e:	4618      	mov	r0, r3
 8000510:	f005 fbec 	bl	8005cec <SPI_I2S_SendData>
	while(!SPI_I2S_GetFlagStatus(NRF_SPI,SPI_I2S_FLAG_TXE));
 8000514:	68fb      	ldr	r3, [r7, #12]
 8000516:	681b      	ldr	r3, [r3, #0]
 8000518:	2102      	movs	r1, #2
 800051a:	4618      	mov	r0, r3
 800051c:	f005 fbf6 	bl	8005d0c <SPI_I2S_GetFlagStatus>
 8000520:	4603      	mov	r3, r0
 8000522:	2b00      	cmp	r3, #0
 8000524:	bf0c      	ite	eq
 8000526:	2301      	moveq	r3, #1
 8000528:	2300      	movne	r3, #0
 800052a:	b2db      	uxtb	r3, r3
 800052c:	2b00      	cmp	r3, #0
 800052e:	d000      	beq.n	8000532 <_ZN3SPI3CMDEhhPhS0_+0x52>
 8000530:	e7f0      	b.n	8000514 <_ZN3SPI3CMDEhhPhS0_+0x34>
	while(!SPI_I2S_GetFlagStatus(NRF_SPI,SPI_I2S_FLAG_RXNE));
 8000532:	68fb      	ldr	r3, [r7, #12]
 8000534:	681b      	ldr	r3, [r3, #0]
 8000536:	2101      	movs	r1, #1
 8000538:	4618      	mov	r0, r3
 800053a:	f005 fbe7 	bl	8005d0c <SPI_I2S_GetFlagStatus>
 800053e:	4603      	mov	r3, r0
 8000540:	2b00      	cmp	r3, #0
 8000542:	bf0c      	ite	eq
 8000544:	2301      	moveq	r3, #1
 8000546:	2300      	movne	r3, #0
 8000548:	b2db      	uxtb	r3, r3
 800054a:	2b00      	cmp	r3, #0
 800054c:	d000      	beq.n	8000550 <_ZN3SPI3CMDEhhPhS0_+0x70>
 800054e:	e7f0      	b.n	8000532 <_ZN3SPI3CMDEhhPhS0_+0x52>
	uint8_t status = SPI_I2S_ReceiveData(NRF_SPI);
 8000550:	68fb      	ldr	r3, [r7, #12]
 8000552:	681b      	ldr	r3, [r3, #0]
 8000554:	4618      	mov	r0, r3
 8000556:	f005 fbbb 	bl	8005cd0 <SPI_I2S_ReceiveData>
 800055a:	4603      	mov	r3, r0
 800055c:	75fb      	strb	r3, [r7, #23]

	uint8_t trash;

	while(size--){
 800055e:	7abb      	ldrb	r3, [r7, #10]
 8000560:	1e5a      	subs	r2, r3, #1
 8000562:	72ba      	strb	r2, [r7, #10]
 8000564:	2b00      	cmp	r3, #0
 8000566:	bf14      	ite	ne
 8000568:	2301      	movne	r3, #1
 800056a:	2300      	moveq	r3, #0
 800056c:	b2db      	uxtb	r3, r3
 800056e:	2b00      	cmp	r3, #0
 8000570:	d04c      	beq.n	800060c <_ZN3SPI3CMDEhhPhS0_+0x12c>
		if(ptr_send!=0x00){
 8000572:	687b      	ldr	r3, [r7, #4]
 8000574:	2b00      	cmp	r3, #0
 8000576:	d00c      	beq.n	8000592 <_ZN3SPI3CMDEhhPhS0_+0xb2>
			SPI_I2S_SendData(NRF_SPI,*ptr_send);
 8000578:	68fb      	ldr	r3, [r7, #12]
 800057a:	681a      	ldr	r2, [r3, #0]
 800057c:	687b      	ldr	r3, [r7, #4]
 800057e:	781b      	ldrb	r3, [r3, #0]
 8000580:	b29b      	uxth	r3, r3
 8000582:	4619      	mov	r1, r3
 8000584:	4610      	mov	r0, r2
 8000586:	f005 fbb1 	bl	8005cec <SPI_I2S_SendData>
			ptr_send++;
 800058a:	687b      	ldr	r3, [r7, #4]
 800058c:	3301      	adds	r3, #1
 800058e:	607b      	str	r3, [r7, #4]
 8000590:	e005      	b.n	800059e <_ZN3SPI3CMDEhhPhS0_+0xbe>
		}else{
			SPI_I2S_SendData(NRF_SPI,0x00);
 8000592:	68fb      	ldr	r3, [r7, #12]
 8000594:	681b      	ldr	r3, [r3, #0]
 8000596:	2100      	movs	r1, #0
 8000598:	4618      	mov	r0, r3
 800059a:	f005 fba7 	bl	8005cec <SPI_I2S_SendData>
		}
		while(!SPI_I2S_GetFlagStatus(NRF_SPI,SPI_I2S_FLAG_TXE));
 800059e:	68fb      	ldr	r3, [r7, #12]
 80005a0:	681b      	ldr	r3, [r3, #0]
 80005a2:	2102      	movs	r1, #2
 80005a4:	4618      	mov	r0, r3
 80005a6:	f005 fbb1 	bl	8005d0c <SPI_I2S_GetFlagStatus>
 80005aa:	4603      	mov	r3, r0
 80005ac:	2b00      	cmp	r3, #0
 80005ae:	bf0c      	ite	eq
 80005b0:	2301      	moveq	r3, #1
 80005b2:	2300      	movne	r3, #0
 80005b4:	b2db      	uxtb	r3, r3
 80005b6:	2b00      	cmp	r3, #0
 80005b8:	d000      	beq.n	80005bc <_ZN3SPI3CMDEhhPhS0_+0xdc>
 80005ba:	e7f0      	b.n	800059e <_ZN3SPI3CMDEhhPhS0_+0xbe>

		while(!SPI_I2S_GetFlagStatus(NRF_SPI,SPI_I2S_FLAG_RXNE));
 80005bc:	68fb      	ldr	r3, [r7, #12]
 80005be:	681b      	ldr	r3, [r3, #0]
 80005c0:	2101      	movs	r1, #1
 80005c2:	4618      	mov	r0, r3
 80005c4:	f005 fba2 	bl	8005d0c <SPI_I2S_GetFlagStatus>
 80005c8:	4603      	mov	r3, r0
 80005ca:	2b00      	cmp	r3, #0
 80005cc:	bf0c      	ite	eq
 80005ce:	2301      	moveq	r3, #1
 80005d0:	2300      	movne	r3, #0
 80005d2:	b2db      	uxtb	r3, r3
 80005d4:	2b00      	cmp	r3, #0
 80005d6:	d000      	beq.n	80005da <_ZN3SPI3CMDEhhPhS0_+0xfa>
 80005d8:	e7f0      	b.n	80005bc <_ZN3SPI3CMDEhhPhS0_+0xdc>
		if(ptr_receive!=0x00){
 80005da:	6a3b      	ldr	r3, [r7, #32]
 80005dc:	2b00      	cmp	r3, #0
 80005de:	d00f      	beq.n	8000600 <_ZN3SPI3CMDEhhPhS0_+0x120>
			*ptr_receive = SPI_I2S_ReceiveData(NRF_SPI);
 80005e0:	68fb      	ldr	r3, [r7, #12]
 80005e2:	681b      	ldr	r3, [r3, #0]
 80005e4:	4618      	mov	r0, r3
 80005e6:	f005 fb73 	bl	8005cd0 <SPI_I2S_ReceiveData>
 80005ea:	4603      	mov	r3, r0
 80005ec:	b2da      	uxtb	r2, r3
 80005ee:	6a3b      	ldr	r3, [r7, #32]
 80005f0:	701a      	strb	r2, [r3, #0]
			trash = *ptr_receive;
 80005f2:	6a3b      	ldr	r3, [r7, #32]
 80005f4:	781b      	ldrb	r3, [r3, #0]
 80005f6:	75bb      	strb	r3, [r7, #22]
			ptr_receive++;
 80005f8:	6a3b      	ldr	r3, [r7, #32]
 80005fa:	3301      	adds	r3, #1
 80005fc:	623b      	str	r3, [r7, #32]
 80005fe:	e7ae      	b.n	800055e <_ZN3SPI3CMDEhhPhS0_+0x7e>
		}else{
			SPI_I2S_ReceiveData(NRF_SPI);
 8000600:	68fb      	ldr	r3, [r7, #12]
 8000602:	681b      	ldr	r3, [r3, #0]
 8000604:	4618      	mov	r0, r3
 8000606:	f005 fb63 	bl	8005cd0 <SPI_I2S_ReceiveData>
	while(!SPI_I2S_GetFlagStatus(NRF_SPI,SPI_I2S_FLAG_RXNE));
	uint8_t status = SPI_I2S_ReceiveData(NRF_SPI);

	uint8_t trash;

	while(size--){
 800060a:	e7a8      	b.n	800055e <_ZN3SPI3CMDEhhPhS0_+0x7e>
		}else{
			SPI_I2S_ReceiveData(NRF_SPI);
		}
	}

	while(!SPI_I2S_GetFlagStatus(NRF_SPI,SPI_I2S_FLAG_TXE));
 800060c:	68fb      	ldr	r3, [r7, #12]
 800060e:	681b      	ldr	r3, [r3, #0]
 8000610:	2102      	movs	r1, #2
 8000612:	4618      	mov	r0, r3
 8000614:	f005 fb7a 	bl	8005d0c <SPI_I2S_GetFlagStatus>
 8000618:	4603      	mov	r3, r0
 800061a:	2b00      	cmp	r3, #0
 800061c:	bf0c      	ite	eq
 800061e:	2301      	moveq	r3, #1
 8000620:	2300      	movne	r3, #0
 8000622:	b2db      	uxtb	r3, r3
 8000624:	2b00      	cmp	r3, #0
 8000626:	d000      	beq.n	800062a <_ZN3SPI3CMDEhhPhS0_+0x14a>
 8000628:	e7f0      	b.n	800060c <_ZN3SPI3CMDEhhPhS0_+0x12c>
	while(SPI_I2S_GetFlagStatus(NRF_SPI,SPI_I2S_FLAG_BSY));
 800062a:	68fb      	ldr	r3, [r7, #12]
 800062c:	681b      	ldr	r3, [r3, #0]
 800062e:	2180      	movs	r1, #128	; 0x80
 8000630:	4618      	mov	r0, r3
 8000632:	f005 fb6b 	bl	8005d0c <SPI_I2S_GetFlagStatus>
 8000636:	4603      	mov	r3, r0
 8000638:	2b00      	cmp	r3, #0
 800063a:	bf14      	ite	ne
 800063c:	2301      	movne	r3, #1
 800063e:	2300      	moveq	r3, #0
 8000640:	b2db      	uxtb	r3, r3
 8000642:	2b00      	cmp	r3, #0
 8000644:	d000      	beq.n	8000648 <_ZN3SPI3CMDEhhPhS0_+0x168>
 8000646:	e7f0      	b.n	800062a <_ZN3SPI3CMDEhhPhS0_+0x14a>

	ASSERT_CS(SET);
 8000648:	2101      	movs	r1, #1
 800064a:	68f8      	ldr	r0, [r7, #12]
 800064c:	f7ff ff28 	bl	80004a0 <_ZN3SPI9ASSERT_CSEi>
	return status;
 8000650:	7dfb      	ldrb	r3, [r7, #23]
}
 8000652:	4618      	mov	r0, r3
 8000654:	3718      	adds	r7, #24
 8000656:	46bd      	mov	sp, r7
 8000658:	bd80      	pop	{r7, pc}
 800065a:	bf00      	nop

0800065c <_ZN3SPI10W_REGISTEREhhPh>:

//TODO: resolver a incompatibilidade de velocidades do NRF e da STM32 sem usar Delay_ms()
//escreve registrador do NRF24 via SPI
int SPI::W_REGISTER(uint8_t adress, uint8_t size,uint8_t* value){//VALUE: array com os bits do registrador SIZE: EM BYTES
 800065c:	b580      	push	{r7, lr}
 800065e:	b088      	sub	sp, #32
 8000660:	af02      	add	r7, sp, #8
 8000662:	60f8      	str	r0, [r7, #12]
 8000664:	607b      	str	r3, [r7, #4]
 8000666:	460b      	mov	r3, r1
 8000668:	72fb      	strb	r3, [r7, #11]
 800066a:	4613      	mov	r3, r2
 800066c:	72bb      	strb	r3, [r7, #10]
	//verifica se adress é mesmo um  endereço
	if(adress > 0x1d){
 800066e:	7afb      	ldrb	r3, [r7, #11]
 8000670:	2b1d      	cmp	r3, #29
 8000672:	d901      	bls.n	8000678 <_ZN3SPI10W_REGISTEREhhPh+0x1c>
		return 1;
 8000674:	2301      	movs	r3, #1
 8000676:	e00e      	b.n	8000696 <_ZN3SPI10W_REGISTEREhhPh+0x3a>
	}

	uint8_t wcommand = adress;
 8000678:	7afb      	ldrb	r3, [r7, #11]
 800067a:	75fb      	strb	r3, [r7, #23]
	wcommand |= 32;
 800067c:	7dfb      	ldrb	r3, [r7, #23]
 800067e:	f043 0320 	orr.w	r3, r3, #32
 8000682:	75fb      	strb	r3, [r7, #23]

	return CMD(wcommand,size,value,0x00);
 8000684:	7aba      	ldrb	r2, [r7, #10]
 8000686:	7df9      	ldrb	r1, [r7, #23]
 8000688:	2300      	movs	r3, #0
 800068a:	9300      	str	r3, [sp, #0]
 800068c:	687b      	ldr	r3, [r7, #4]
 800068e:	68f8      	ldr	r0, [r7, #12]
 8000690:	f7ff ff26 	bl	80004e0 <_ZN3SPI3CMDEhhPhS0_>
 8000694:	4603      	mov	r3, r0
}//WORKED! but SPI seems too much fast to NRF
 8000696:	4618      	mov	r0, r3
 8000698:	3718      	adds	r7, #24
 800069a:	46bd      	mov	sp, r7
 800069c:	bd80      	pop	{r7, pc}
 800069e:	bf00      	nop

080006a0 <_ZN3SPI10R_REGISTEREhhPh>:

//POINTER: array com os bits do registrador SIZE: EM BYTES
int SPI::R_REGISTER(uint8_t address, uint8_t size,uint8_t* pointer){
 80006a0:	b580      	push	{r7, lr}
 80006a2:	b086      	sub	sp, #24
 80006a4:	af02      	add	r7, sp, #8
 80006a6:	60f8      	str	r0, [r7, #12]
 80006a8:	607b      	str	r3, [r7, #4]
 80006aa:	460b      	mov	r3, r1
 80006ac:	72fb      	strb	r3, [r7, #11]
 80006ae:	4613      	mov	r3, r2
 80006b0:	72bb      	strb	r3, [r7, #10]
	if(address>0x1d)
 80006b2:	7afb      	ldrb	r3, [r7, #11]
 80006b4:	2b1d      	cmp	r3, #29
 80006b6:	d902      	bls.n	80006be <_ZN3SPI10R_REGISTEREhhPh+0x1e>
		return -1;
 80006b8:	f04f 33ff 	mov.w	r3, #4294967295
 80006bc:	e008      	b.n	80006d0 <_ZN3SPI10R_REGISTEREhhPh+0x30>
	return CMD(address,size,0x00,pointer);
 80006be:	7aba      	ldrb	r2, [r7, #10]
 80006c0:	7af9      	ldrb	r1, [r7, #11]
 80006c2:	687b      	ldr	r3, [r7, #4]
 80006c4:	9300      	str	r3, [sp, #0]
 80006c6:	2300      	movs	r3, #0
 80006c8:	68f8      	ldr	r0, [r7, #12]
 80006ca:	f7ff ff09 	bl	80004e0 <_ZN3SPI3CMDEhhPhS0_>
 80006ce:	4603      	mov	r3, r0
}//WORKED!
 80006d0:	4618      	mov	r0, r3
 80006d2:	3710      	adds	r7, #16
 80006d4:	46bd      	mov	sp, r7
 80006d6:	bd80      	pop	{r7, pc}

080006d8 <_ZN3SPI3NOPEv>:

	ASSERT_CS(SET);//seta o CS, fim da escrita
	return;
}//doesn't work

uint8_t SPI::NOP(void){
 80006d8:	b580      	push	{r7, lr}
 80006da:	b084      	sub	sp, #16
 80006dc:	af02      	add	r7, sp, #8
 80006de:	6078      	str	r0, [r7, #4]
	return CMD(0xff,0,0x00,0x00);//NOP command, no data bytes, only sends back the content of STATUS register
 80006e0:	2300      	movs	r3, #0
 80006e2:	9300      	str	r3, [sp, #0]
 80006e4:	2300      	movs	r3, #0
 80006e6:	2200      	movs	r2, #0
 80006e8:	21ff      	movs	r1, #255	; 0xff
 80006ea:	6878      	ldr	r0, [r7, #4]
 80006ec:	f7ff fef8 	bl	80004e0 <_ZN3SPI3CMDEhhPhS0_>
 80006f0:	4603      	mov	r3, r0
 80006f2:	b2db      	uxtb	r3, r3
}
 80006f4:	4618      	mov	r0, r3
 80006f6:	3708      	adds	r7, #8
 80006f8:	46bd      	mov	sp, r7
 80006fa:	bd80      	pop	{r7, pc}

080006fc <_ZN8REGISTERC1Ev>:
 *      Author: Renan
 */
#include "stm32f4xx.h" //para incluir stdint.h
#include "own_libraries/REGISTER.h"

REGISTER::REGISTER(){//CONSTRUTOR, incializa o REGISTER
 80006fc:	b480      	push	{r7}
 80006fe:	b085      	sub	sp, #20
 8000700:	af00      	add	r7, sp, #0
 8000702:	6078      	str	r0, [r7, #4]
	size = 0;
 8000704:	687b      	ldr	r3, [r7, #4]
 8000706:	2200      	movs	r2, #0
 8000708:	701a      	strb	r2, [r3, #0]
	address = 0;
 800070a:	687b      	ldr	r3, [r7, #4]
 800070c:	2200      	movs	r2, #0
 800070e:	705a      	strb	r2, [r3, #1]
	uint8_t i;
	for(i=0;i<5;i++)
 8000710:	2300      	movs	r3, #0
 8000712:	73fb      	strb	r3, [r7, #15]
 8000714:	7bfb      	ldrb	r3, [r7, #15]
 8000716:	2b04      	cmp	r3, #4
 8000718:	d808      	bhi.n	800072c <_ZN8REGISTERC1Ev+0x30>
		content[i]=0;
 800071a:	7bfb      	ldrb	r3, [r7, #15]
 800071c:	687a      	ldr	r2, [r7, #4]
 800071e:	4413      	add	r3, r2
 8000720:	2200      	movs	r2, #0
 8000722:	709a      	strb	r2, [r3, #2]

REGISTER::REGISTER(){//CONSTRUTOR, incializa o REGISTER
	size = 0;
	address = 0;
	uint8_t i;
	for(i=0;i<5;i++)
 8000724:	7bfb      	ldrb	r3, [r7, #15]
 8000726:	3301      	adds	r3, #1
 8000728:	73fb      	strb	r3, [r7, #15]
 800072a:	e7f3      	b.n	8000714 <_ZN8REGISTERC1Ev+0x18>
		content[i]=0;
}
 800072c:	687b      	ldr	r3, [r7, #4]
 800072e:	4618      	mov	r0, r3
 8000730:	3714      	adds	r7, #20
 8000732:	46bd      	mov	sp, r7
 8000734:	f85d 7b04 	ldr.w	r7, [sp], #4
 8000738:	4770      	bx	lr
 800073a:	bf00      	nop

0800073c <_ZN8REGISTER8set_sizeEh>:

void REGISTER::set_size(uint8_t _size){
 800073c:	b480      	push	{r7}
 800073e:	b083      	sub	sp, #12
 8000740:	af00      	add	r7, sp, #0
 8000742:	6078      	str	r0, [r7, #4]
 8000744:	460b      	mov	r3, r1
 8000746:	70fb      	strb	r3, [r7, #3]
	size = _size;
 8000748:	687b      	ldr	r3, [r7, #4]
 800074a:	78fa      	ldrb	r2, [r7, #3]
 800074c:	701a      	strb	r2, [r3, #0]
}
 800074e:	bf00      	nop
 8000750:	370c      	adds	r7, #12
 8000752:	46bd      	mov	sp, r7
 8000754:	f85d 7b04 	ldr.w	r7, [sp], #4
 8000758:	4770      	bx	lr
 800075a:	bf00      	nop

0800075c <_ZN8REGISTER11set_addressEh>:

uint8_t REGISTER::get_size(){
	return size;
}

void REGISTER::set_address(uint8_t _address){
 800075c:	b480      	push	{r7}
 800075e:	b083      	sub	sp, #12
 8000760:	af00      	add	r7, sp, #0
 8000762:	6078      	str	r0, [r7, #4]
 8000764:	460b      	mov	r3, r1
 8000766:	70fb      	strb	r3, [r7, #3]
	address = _address;
 8000768:	687b      	ldr	r3, [r7, #4]
 800076a:	78fa      	ldrb	r2, [r7, #3]
 800076c:	705a      	strb	r2, [r3, #1]
}
 800076e:	bf00      	nop
 8000770:	370c      	adds	r7, #12
 8000772:	46bd      	mov	sp, r7
 8000774:	f85d 7b04 	ldr.w	r7, [sp], #4
 8000778:	4770      	bx	lr
 800077a:	bf00      	nop

0800077c <_ZN16NRF_REGISTER_MAPC1Ev>:
	}
	return;
}//WORKED!

//inicializa objeto da classe NRF_REGISTERS, põe os valores de address e size, coloca os valores de RESET dos registradores
NRF_REGISTER_MAP::NRF_REGISTER_MAP(){
 800077c:	b580      	push	{r7, lr}
 800077e:	b084      	sub	sp, #16
 8000780:	af00      	add	r7, sp, #0
 8000782:	6078      	str	r0, [r7, #4]
 8000784:	4aaf      	ldr	r2, [pc, #700]	; (8000a44 <_ZN16NRF_REGISTER_MAPC1Ev+0x2c8>)
 8000786:	687b      	ldr	r3, [r7, #4]
 8000788:	601a      	str	r2, [r3, #0]
 800078a:	687b      	ldr	r3, [r7, #4]
 800078c:	3304      	adds	r3, #4
 800078e:	4618      	mov	r0, r3
 8000790:	f7ff ffb4 	bl	80006fc <_ZN8REGISTERC1Ev>
 8000794:	687b      	ldr	r3, [r7, #4]
 8000796:	330b      	adds	r3, #11
 8000798:	4618      	mov	r0, r3
 800079a:	f7ff ffaf 	bl	80006fc <_ZN8REGISTERC1Ev>
 800079e:	687b      	ldr	r3, [r7, #4]
 80007a0:	3312      	adds	r3, #18
 80007a2:	4618      	mov	r0, r3
 80007a4:	f7ff ffaa 	bl	80006fc <_ZN8REGISTERC1Ev>
 80007a8:	687b      	ldr	r3, [r7, #4]
 80007aa:	3319      	adds	r3, #25
 80007ac:	4618      	mov	r0, r3
 80007ae:	f7ff ffa5 	bl	80006fc <_ZN8REGISTERC1Ev>
 80007b2:	687b      	ldr	r3, [r7, #4]
 80007b4:	3320      	adds	r3, #32
 80007b6:	4618      	mov	r0, r3
 80007b8:	f7ff ffa0 	bl	80006fc <_ZN8REGISTERC1Ev>
 80007bc:	687b      	ldr	r3, [r7, #4]
 80007be:	3327      	adds	r3, #39	; 0x27
 80007c0:	4618      	mov	r0, r3
 80007c2:	f7ff ff9b 	bl	80006fc <_ZN8REGISTERC1Ev>
 80007c6:	687b      	ldr	r3, [r7, #4]
 80007c8:	332e      	adds	r3, #46	; 0x2e
 80007ca:	4618      	mov	r0, r3
 80007cc:	f7ff ff96 	bl	80006fc <_ZN8REGISTERC1Ev>
 80007d0:	687b      	ldr	r3, [r7, #4]
 80007d2:	3335      	adds	r3, #53	; 0x35
 80007d4:	4618      	mov	r0, r3
 80007d6:	f7ff ff91 	bl	80006fc <_ZN8REGISTERC1Ev>
 80007da:	687b      	ldr	r3, [r7, #4]
 80007dc:	333c      	adds	r3, #60	; 0x3c
 80007de:	4618      	mov	r0, r3
 80007e0:	f7ff ff8c 	bl	80006fc <_ZN8REGISTERC1Ev>
 80007e4:	687b      	ldr	r3, [r7, #4]
 80007e6:	3343      	adds	r3, #67	; 0x43
 80007e8:	4618      	mov	r0, r3
 80007ea:	f7ff ff87 	bl	80006fc <_ZN8REGISTERC1Ev>
 80007ee:	687b      	ldr	r3, [r7, #4]
 80007f0:	334a      	adds	r3, #74	; 0x4a
 80007f2:	4618      	mov	r0, r3
 80007f4:	f7ff ff82 	bl	80006fc <_ZN8REGISTERC1Ev>
 80007f8:	687b      	ldr	r3, [r7, #4]
 80007fa:	3351      	adds	r3, #81	; 0x51
 80007fc:	4618      	mov	r0, r3
 80007fe:	f7ff ff7d 	bl	80006fc <_ZN8REGISTERC1Ev>
 8000802:	687b      	ldr	r3, [r7, #4]
 8000804:	3358      	adds	r3, #88	; 0x58
 8000806:	4618      	mov	r0, r3
 8000808:	f7ff ff78 	bl	80006fc <_ZN8REGISTERC1Ev>
 800080c:	687b      	ldr	r3, [r7, #4]
 800080e:	335f      	adds	r3, #95	; 0x5f
 8000810:	4618      	mov	r0, r3
 8000812:	f7ff ff73 	bl	80006fc <_ZN8REGISTERC1Ev>
 8000816:	687b      	ldr	r3, [r7, #4]
 8000818:	3366      	adds	r3, #102	; 0x66
 800081a:	4618      	mov	r0, r3
 800081c:	f7ff ff6e 	bl	80006fc <_ZN8REGISTERC1Ev>
 8000820:	687b      	ldr	r3, [r7, #4]
 8000822:	336d      	adds	r3, #109	; 0x6d
 8000824:	4618      	mov	r0, r3
 8000826:	f7ff ff69 	bl	80006fc <_ZN8REGISTERC1Ev>
 800082a:	687b      	ldr	r3, [r7, #4]
 800082c:	3374      	adds	r3, #116	; 0x74
 800082e:	4618      	mov	r0, r3
 8000830:	f7ff ff64 	bl	80006fc <_ZN8REGISTERC1Ev>
 8000834:	687b      	ldr	r3, [r7, #4]
 8000836:	337b      	adds	r3, #123	; 0x7b
 8000838:	4618      	mov	r0, r3
 800083a:	f7ff ff5f 	bl	80006fc <_ZN8REGISTERC1Ev>
 800083e:	687b      	ldr	r3, [r7, #4]
 8000840:	3382      	adds	r3, #130	; 0x82
 8000842:	4618      	mov	r0, r3
 8000844:	f7ff ff5a 	bl	80006fc <_ZN8REGISTERC1Ev>
 8000848:	687b      	ldr	r3, [r7, #4]
 800084a:	3389      	adds	r3, #137	; 0x89
 800084c:	4618      	mov	r0, r3
 800084e:	f7ff ff55 	bl	80006fc <_ZN8REGISTERC1Ev>
 8000852:	687b      	ldr	r3, [r7, #4]
 8000854:	3390      	adds	r3, #144	; 0x90
 8000856:	4618      	mov	r0, r3
 8000858:	f7ff ff50 	bl	80006fc <_ZN8REGISTERC1Ev>
 800085c:	687b      	ldr	r3, [r7, #4]
 800085e:	3397      	adds	r3, #151	; 0x97
 8000860:	4618      	mov	r0, r3
 8000862:	f7ff ff4b 	bl	80006fc <_ZN8REGISTERC1Ev>
 8000866:	687b      	ldr	r3, [r7, #4]
 8000868:	339e      	adds	r3, #158	; 0x9e
 800086a:	4618      	mov	r0, r3
 800086c:	f7ff ff46 	bl	80006fc <_ZN8REGISTERC1Ev>
 8000870:	687b      	ldr	r3, [r7, #4]
 8000872:	33a5      	adds	r3, #165	; 0xa5
 8000874:	4618      	mov	r0, r3
 8000876:	f7ff ff41 	bl	80006fc <_ZN8REGISTERC1Ev>
 800087a:	687b      	ldr	r3, [r7, #4]
 800087c:	33ac      	adds	r3, #172	; 0xac
 800087e:	4618      	mov	r0, r3
 8000880:	f7ff ff3c 	bl	80006fc <_ZN8REGISTERC1Ev>
 8000884:	687b      	ldr	r3, [r7, #4]
 8000886:	33b3      	adds	r3, #179	; 0xb3
 8000888:	4618      	mov	r0, r3
 800088a:	f7ff ff37 	bl	80006fc <_ZN8REGISTERC1Ev>
	REGISTER* tmp_pointer = &CONFIG;//percorre os registradores do objeto NRF_REGISTERS
 800088e:	687b      	ldr	r3, [r7, #4]
 8000890:	3304      	adds	r3, #4
 8000892:	60fb      	str	r3, [r7, #12]

	//inicializa os campos address
	uint8_t i=0;
 8000894:	2300      	movs	r3, #0
 8000896:	72fb      	strb	r3, [r7, #11]
	for(i=0x00;i<=0x17;i++){
 8000898:	2300      	movs	r3, #0
 800089a:	72fb      	strb	r3, [r7, #11]
 800089c:	7afb      	ldrb	r3, [r7, #11]
 800089e:	2b17      	cmp	r3, #23
 80008a0:	d80b      	bhi.n	80008ba <_ZN16NRF_REGISTER_MAPC1Ev+0x13e>
		tmp_pointer->set_address(i);
 80008a2:	7afb      	ldrb	r3, [r7, #11]
 80008a4:	4619      	mov	r1, r3
 80008a6:	68f8      	ldr	r0, [r7, #12]
 80008a8:	f7ff ff58 	bl	800075c <_ZN8REGISTER11set_addressEh>
		tmp_pointer++;
 80008ac:	68fb      	ldr	r3, [r7, #12]
 80008ae:	3307      	adds	r3, #7
 80008b0:	60fb      	str	r3, [r7, #12]
NRF_REGISTER_MAP::NRF_REGISTER_MAP(){
	REGISTER* tmp_pointer = &CONFIG;//percorre os registradores do objeto NRF_REGISTERS

	//inicializa os campos address
	uint8_t i=0;
	for(i=0x00;i<=0x17;i++){
 80008b2:	7afb      	ldrb	r3, [r7, #11]
 80008b4:	3301      	adds	r3, #1
 80008b6:	72fb      	strb	r3, [r7, #11]
 80008b8:	e7f0      	b.n	800089c <_ZN16NRF_REGISTER_MAPC1Ev+0x120>
		tmp_pointer->set_address(i);
		tmp_pointer++;
	}
	for(i=0x1c;i<=0x1d;i++){
 80008ba:	231c      	movs	r3, #28
 80008bc:	72fb      	strb	r3, [r7, #11]
 80008be:	7afb      	ldrb	r3, [r7, #11]
 80008c0:	2b1d      	cmp	r3, #29
 80008c2:	d80b      	bhi.n	80008dc <_ZN16NRF_REGISTER_MAPC1Ev+0x160>
		tmp_pointer->set_address(i);
 80008c4:	7afb      	ldrb	r3, [r7, #11]
 80008c6:	4619      	mov	r1, r3
 80008c8:	68f8      	ldr	r0, [r7, #12]
 80008ca:	f7ff ff47 	bl	800075c <_ZN8REGISTER11set_addressEh>
		tmp_pointer++;
 80008ce:	68fb      	ldr	r3, [r7, #12]
 80008d0:	3307      	adds	r3, #7
 80008d2:	60fb      	str	r3, [r7, #12]
	uint8_t i=0;
	for(i=0x00;i<=0x17;i++){
		tmp_pointer->set_address(i);
		tmp_pointer++;
	}
	for(i=0x1c;i<=0x1d;i++){
 80008d4:	7afb      	ldrb	r3, [r7, #11]
 80008d6:	3301      	adds	r3, #1
 80008d8:	72fb      	strb	r3, [r7, #11]
 80008da:	e7f0      	b.n	80008be <_ZN16NRF_REGISTER_MAPC1Ev+0x142>
		tmp_pointer->set_address(i);
		tmp_pointer++;
	}//terminou de inicializar os campos de address

	tmp_pointer = &CONFIG;// tmp_pointer tem de percorrer os registradores 3 vezes
 80008dc:	687b      	ldr	r3, [r7, #4]
 80008de:	3304      	adds	r3, #4
 80008e0:	60fb      	str	r3, [r7, #12]
	//inicializa os campos size
	for(i=0x00;i<=0x09;i++){
 80008e2:	2300      	movs	r3, #0
 80008e4:	72fb      	strb	r3, [r7, #11]
 80008e6:	7afb      	ldrb	r3, [r7, #11]
 80008e8:	2b09      	cmp	r3, #9
 80008ea:	d80a      	bhi.n	8000902 <_ZN16NRF_REGISTER_MAPC1Ev+0x186>
		tmp_pointer->set_size(1);
 80008ec:	2101      	movs	r1, #1
 80008ee:	68f8      	ldr	r0, [r7, #12]
 80008f0:	f7ff ff24 	bl	800073c <_ZN8REGISTER8set_sizeEh>
		tmp_pointer++;
 80008f4:	68fb      	ldr	r3, [r7, #12]
 80008f6:	3307      	adds	r3, #7
 80008f8:	60fb      	str	r3, [r7, #12]
		tmp_pointer++;
	}//terminou de inicializar os campos de address

	tmp_pointer = &CONFIG;// tmp_pointer tem de percorrer os registradores 3 vezes
	//inicializa os campos size
	for(i=0x00;i<=0x09;i++){
 80008fa:	7afb      	ldrb	r3, [r7, #11]
 80008fc:	3301      	adds	r3, #1
 80008fe:	72fb      	strb	r3, [r7, #11]
 8000900:	e7f1      	b.n	80008e6 <_ZN16NRF_REGISTER_MAPC1Ev+0x16a>
		tmp_pointer->set_size(1);
		tmp_pointer++;
	}
	for(i=0x0a;i<=0x0b;i++){
 8000902:	230a      	movs	r3, #10
 8000904:	72fb      	strb	r3, [r7, #11]
 8000906:	7afb      	ldrb	r3, [r7, #11]
 8000908:	2b0b      	cmp	r3, #11
 800090a:	d80a      	bhi.n	8000922 <_ZN16NRF_REGISTER_MAPC1Ev+0x1a6>
		tmp_pointer->set_size(5);
 800090c:	2105      	movs	r1, #5
 800090e:	68f8      	ldr	r0, [r7, #12]
 8000910:	f7ff ff14 	bl	800073c <_ZN8REGISTER8set_sizeEh>
		tmp_pointer++;
 8000914:	68fb      	ldr	r3, [r7, #12]
 8000916:	3307      	adds	r3, #7
 8000918:	60fb      	str	r3, [r7, #12]
	//inicializa os campos size
	for(i=0x00;i<=0x09;i++){
		tmp_pointer->set_size(1);
		tmp_pointer++;
	}
	for(i=0x0a;i<=0x0b;i++){
 800091a:	7afb      	ldrb	r3, [r7, #11]
 800091c:	3301      	adds	r3, #1
 800091e:	72fb      	strb	r3, [r7, #11]
 8000920:	e7f1      	b.n	8000906 <_ZN16NRF_REGISTER_MAPC1Ev+0x18a>
		tmp_pointer->set_size(5);
		tmp_pointer++;
	}
	for(i=0x0c;i<=0x0f;i++){
 8000922:	230c      	movs	r3, #12
 8000924:	72fb      	strb	r3, [r7, #11]
 8000926:	7afb      	ldrb	r3, [r7, #11]
 8000928:	2b0f      	cmp	r3, #15
 800092a:	d80a      	bhi.n	8000942 <_ZN16NRF_REGISTER_MAPC1Ev+0x1c6>
		tmp_pointer->set_size(1);
 800092c:	2101      	movs	r1, #1
 800092e:	68f8      	ldr	r0, [r7, #12]
 8000930:	f7ff ff04 	bl	800073c <_ZN8REGISTER8set_sizeEh>
		tmp_pointer++;
 8000934:	68fb      	ldr	r3, [r7, #12]
 8000936:	3307      	adds	r3, #7
 8000938:	60fb      	str	r3, [r7, #12]
	}
	for(i=0x0a;i<=0x0b;i++){
		tmp_pointer->set_size(5);
		tmp_pointer++;
	}
	for(i=0x0c;i<=0x0f;i++){
 800093a:	7afb      	ldrb	r3, [r7, #11]
 800093c:	3301      	adds	r3, #1
 800093e:	72fb      	strb	r3, [r7, #11]
 8000940:	e7f1      	b.n	8000926 <_ZN16NRF_REGISTER_MAPC1Ev+0x1aa>
		tmp_pointer->set_size(1);
		tmp_pointer++;
	}
	for(i=0x10;i<=0x10;i++){
 8000942:	2310      	movs	r3, #16
 8000944:	72fb      	strb	r3, [r7, #11]
 8000946:	7afb      	ldrb	r3, [r7, #11]
 8000948:	2b10      	cmp	r3, #16
 800094a:	d80a      	bhi.n	8000962 <_ZN16NRF_REGISTER_MAPC1Ev+0x1e6>
		tmp_pointer->set_size(5);
 800094c:	2105      	movs	r1, #5
 800094e:	68f8      	ldr	r0, [r7, #12]
 8000950:	f7ff fef4 	bl	800073c <_ZN8REGISTER8set_sizeEh>
		tmp_pointer++;
 8000954:	68fb      	ldr	r3, [r7, #12]
 8000956:	3307      	adds	r3, #7
 8000958:	60fb      	str	r3, [r7, #12]
	}
	for(i=0x0c;i<=0x0f;i++){
		tmp_pointer->set_size(1);
		tmp_pointer++;
	}
	for(i=0x10;i<=0x10;i++){
 800095a:	7afb      	ldrb	r3, [r7, #11]
 800095c:	3301      	adds	r3, #1
 800095e:	72fb      	strb	r3, [r7, #11]
 8000960:	e7f1      	b.n	8000946 <_ZN16NRF_REGISTER_MAPC1Ev+0x1ca>
		tmp_pointer->set_size(5);
		tmp_pointer++;
	}
	for(i=0x11;i<=0x19;i++){
 8000962:	2311      	movs	r3, #17
 8000964:	72fb      	strb	r3, [r7, #11]
 8000966:	7afb      	ldrb	r3, [r7, #11]
 8000968:	2b19      	cmp	r3, #25
 800096a:	d80a      	bhi.n	8000982 <_ZN16NRF_REGISTER_MAPC1Ev+0x206>
		tmp_pointer->set_size(1);
 800096c:	2101      	movs	r1, #1
 800096e:	68f8      	ldr	r0, [r7, #12]
 8000970:	f7ff fee4 	bl	800073c <_ZN8REGISTER8set_sizeEh>
		tmp_pointer++;
 8000974:	68fb      	ldr	r3, [r7, #12]
 8000976:	3307      	adds	r3, #7
 8000978:	60fb      	str	r3, [r7, #12]
	}
	for(i=0x10;i<=0x10;i++){
		tmp_pointer->set_size(5);
		tmp_pointer++;
	}
	for(i=0x11;i<=0x19;i++){
 800097a:	7afb      	ldrb	r3, [r7, #11]
 800097c:	3301      	adds	r3, #1
 800097e:	72fb      	strb	r3, [r7, #11]
 8000980:	e7f1      	b.n	8000966 <_ZN16NRF_REGISTER_MAPC1Ev+0x1ea>
		tmp_pointer->set_size(1);
		tmp_pointer++;
	}//terminou de inicializar os campos de size

	//inicializa os campos content
	(CONFIG).content[0] = 0b1000;
 8000982:	687b      	ldr	r3, [r7, #4]
 8000984:	2208      	movs	r2, #8
 8000986:	719a      	strb	r2, [r3, #6]
	(EN_AA).content[0] = 0b111111;
 8000988:	687b      	ldr	r3, [r7, #4]
 800098a:	223f      	movs	r2, #63	; 0x3f
 800098c:	735a      	strb	r2, [r3, #13]
	(EN_RXADDR).content[0] = 0b11;
 800098e:	687b      	ldr	r3, [r7, #4]
 8000990:	2203      	movs	r2, #3
 8000992:	751a      	strb	r2, [r3, #20]
	(SETUP_AW).content[0] = 0b11;
 8000994:	687b      	ldr	r3, [r7, #4]
 8000996:	2203      	movs	r2, #3
 8000998:	76da      	strb	r2, [r3, #27]
	(SETUP_RETR).content[0] = 0b11;
 800099a:	687b      	ldr	r3, [r7, #4]
 800099c:	2203      	movs	r2, #3
 800099e:	f883 2022 	strb.w	r2, [r3, #34]	; 0x22
	(RF_CH).content[0] = 0b10;
 80009a2:	687b      	ldr	r3, [r7, #4]
 80009a4:	2202      	movs	r2, #2
 80009a6:	f883 2029 	strb.w	r2, [r3, #41]	; 0x29
	(RF_SETUP).content[0] = 0b1111;
 80009aa:	687b      	ldr	r3, [r7, #4]
 80009ac:	220f      	movs	r2, #15
 80009ae:	f883 2030 	strb.w	r2, [r3, #48]	; 0x30
	(STATUS).content[0] = 0b1110;
 80009b2:	687b      	ldr	r3, [r7, #4]
 80009b4:	220e      	movs	r2, #14
 80009b6:	f883 2037 	strb.w	r2, [r3, #55]	; 0x37
	(OBSERVE_TX).content[0] = 0b0;
 80009ba:	687b      	ldr	r3, [r7, #4]
 80009bc:	2200      	movs	r2, #0
 80009be:	f883 203e 	strb.w	r2, [r3, #62]	; 0x3e
	(CD).content[0] = 0b0;
 80009c2:	687b      	ldr	r3, [r7, #4]
 80009c4:	2200      	movs	r2, #0
 80009c6:	f883 2045 	strb.w	r2, [r3, #69]	; 0x45

	for(i=0;i<5;i++){
 80009ca:	2300      	movs	r3, #0
 80009cc:	72fb      	strb	r3, [r7, #11]
 80009ce:	7afb      	ldrb	r3, [r7, #11]
 80009d0:	2b04      	cmp	r3, #4
 80009d2:	d809      	bhi.n	80009e8 <_ZN16NRF_REGISTER_MAPC1Ev+0x26c>
		(RX_ADDR_P0).content[i] = 0xe7;
 80009d4:	7afb      	ldrb	r3, [r7, #11]
 80009d6:	687a      	ldr	r2, [r7, #4]
 80009d8:	4413      	add	r3, r2
 80009da:	22e7      	movs	r2, #231	; 0xe7
 80009dc:	f883 204c 	strb.w	r2, [r3, #76]	; 0x4c
	(RF_SETUP).content[0] = 0b1111;
	(STATUS).content[0] = 0b1110;
	(OBSERVE_TX).content[0] = 0b0;
	(CD).content[0] = 0b0;

	for(i=0;i<5;i++){
 80009e0:	7afb      	ldrb	r3, [r7, #11]
 80009e2:	3301      	adds	r3, #1
 80009e4:	72fb      	strb	r3, [r7, #11]
 80009e6:	e7f2      	b.n	80009ce <_ZN16NRF_REGISTER_MAPC1Ev+0x252>
		(RX_ADDR_P0).content[i] = 0xe7;
	}
	for(i=0;i<5;i++){
 80009e8:	2300      	movs	r3, #0
 80009ea:	72fb      	strb	r3, [r7, #11]
 80009ec:	7afb      	ldrb	r3, [r7, #11]
 80009ee:	2b04      	cmp	r3, #4
 80009f0:	d809      	bhi.n	8000a06 <_ZN16NRF_REGISTER_MAPC1Ev+0x28a>
		(RX_ADDR_P1).content[i] = 0xc2;
 80009f2:	7afb      	ldrb	r3, [r7, #11]
 80009f4:	687a      	ldr	r2, [r7, #4]
 80009f6:	4413      	add	r3, r2
 80009f8:	22c2      	movs	r2, #194	; 0xc2
 80009fa:	f883 2053 	strb.w	r2, [r3, #83]	; 0x53
	(CD).content[0] = 0b0;

	for(i=0;i<5;i++){
		(RX_ADDR_P0).content[i] = 0xe7;
	}
	for(i=0;i<5;i++){
 80009fe:	7afb      	ldrb	r3, [r7, #11]
 8000a00:	3301      	adds	r3, #1
 8000a02:	72fb      	strb	r3, [r7, #11]
 8000a04:	e7f2      	b.n	80009ec <_ZN16NRF_REGISTER_MAPC1Ev+0x270>
		(RX_ADDR_P1).content[i] = 0xc2;
	}
	(RX_ADDR_P2).content[0] = 0xc3;
 8000a06:	687b      	ldr	r3, [r7, #4]
 8000a08:	22c3      	movs	r2, #195	; 0xc3
 8000a0a:	f883 205a 	strb.w	r2, [r3, #90]	; 0x5a
	(RX_ADDR_P3).content[0] = 0xc4;
 8000a0e:	687b      	ldr	r3, [r7, #4]
 8000a10:	22c4      	movs	r2, #196	; 0xc4
 8000a12:	f883 2061 	strb.w	r2, [r3, #97]	; 0x61
	(RX_ADDR_P4).content[0] = 0xc5;
 8000a16:	687b      	ldr	r3, [r7, #4]
 8000a18:	22c5      	movs	r2, #197	; 0xc5
 8000a1a:	f883 2068 	strb.w	r2, [r3, #104]	; 0x68
	(RX_ADDR_P5).content[0] = 0xc6;
 8000a1e:	687b      	ldr	r3, [r7, #4]
 8000a20:	22c6      	movs	r2, #198	; 0xc6
 8000a22:	f883 206f 	strb.w	r2, [r3, #111]	; 0x6f
	for(i=0;i<5;i++){
 8000a26:	2300      	movs	r3, #0
 8000a28:	72fb      	strb	r3, [r7, #11]
 8000a2a:	7afb      	ldrb	r3, [r7, #11]
 8000a2c:	2b04      	cmp	r3, #4
 8000a2e:	d80b      	bhi.n	8000a48 <_ZN16NRF_REGISTER_MAPC1Ev+0x2cc>
		(TX_ADDR).content[i] = 0xe7;
 8000a30:	7afb      	ldrb	r3, [r7, #11]
 8000a32:	687a      	ldr	r2, [r7, #4]
 8000a34:	4413      	add	r3, r2
 8000a36:	22e7      	movs	r2, #231	; 0xe7
 8000a38:	f883 2076 	strb.w	r2, [r3, #118]	; 0x76
	}
	(RX_ADDR_P2).content[0] = 0xc3;
	(RX_ADDR_P3).content[0] = 0xc4;
	(RX_ADDR_P4).content[0] = 0xc5;
	(RX_ADDR_P5).content[0] = 0xc6;
	for(i=0;i<5;i++){
 8000a3c:	7afb      	ldrb	r3, [r7, #11]
 8000a3e:	3301      	adds	r3, #1
 8000a40:	72fb      	strb	r3, [r7, #11]
 8000a42:	e7f2      	b.n	8000a2a <_ZN16NRF_REGISTER_MAPC1Ev+0x2ae>
 8000a44:	080066b0 	.word	0x080066b0
		(TX_ADDR).content[i] = 0xe7;
	}
	(RX_PW_P0).content[0] = 0x00;
 8000a48:	687b      	ldr	r3, [r7, #4]
 8000a4a:	2200      	movs	r2, #0
 8000a4c:	f883 207d 	strb.w	r2, [r3, #125]	; 0x7d
	(RX_PW_P1).content[0] = 0x00;
 8000a50:	687b      	ldr	r3, [r7, #4]
 8000a52:	2200      	movs	r2, #0
 8000a54:	f883 2084 	strb.w	r2, [r3, #132]	; 0x84
	(RX_PW_P2).content[0] = 0x00;
 8000a58:	687b      	ldr	r3, [r7, #4]
 8000a5a:	2200      	movs	r2, #0
 8000a5c:	f883 208b 	strb.w	r2, [r3, #139]	; 0x8b
	(RX_PW_P3).content[0] = 0x00;
 8000a60:	687b      	ldr	r3, [r7, #4]
 8000a62:	2200      	movs	r2, #0
 8000a64:	f883 2092 	strb.w	r2, [r3, #146]	; 0x92
	(RX_PW_P4).content[0] = 0x00;
 8000a68:	687b      	ldr	r3, [r7, #4]
 8000a6a:	2200      	movs	r2, #0
 8000a6c:	f883 2099 	strb.w	r2, [r3, #153]	; 0x99
	(RX_PW_P5).content[0] = 0x00;
 8000a70:	687b      	ldr	r3, [r7, #4]
 8000a72:	2200      	movs	r2, #0
 8000a74:	f883 20a0 	strb.w	r2, [r3, #160]	; 0xa0
	(FIFO_STATUS).content[0] = 0b10001;
 8000a78:	687b      	ldr	r3, [r7, #4]
 8000a7a:	2211      	movs	r2, #17
 8000a7c:	f883 20a7 	strb.w	r2, [r3, #167]	; 0xa7
	(DYNPD).content[0] = 0x00;
 8000a80:	687b      	ldr	r3, [r7, #4]
 8000a82:	2200      	movs	r2, #0
 8000a84:	f883 20ae 	strb.w	r2, [r3, #174]	; 0xae
	(FEATURE).content[0] = 0x00;
 8000a88:	687b      	ldr	r3, [r7, #4]
 8000a8a:	2200      	movs	r2, #0
 8000a8c:	f883 20b5 	strb.w	r2, [r3, #181]	; 0xb5
	//terminou de inicializar os campos de content
}
 8000a90:	687b      	ldr	r3, [r7, #4]
 8000a92:	4618      	mov	r0, r3
 8000a94:	3710      	adds	r7, #16
 8000a96:	46bd      	mov	sp, r7
 8000a98:	bd80      	pop	{r7, pc}
 8000a9a:	bf00      	nop

08000a9c <_ZN3NRF10W_REGISTEREhhPh>:
	void RX_configure();
	void TX_configure();

private:
	//métodos
	int W_REGISTER(uint8_t adress, uint8_t size,uint8_t* value) {return SPI::W_REGISTER(adress, size,value); };//WORKED! but SPI seems too much fast to NRF
 8000a9c:	b580      	push	{r7, lr}
 8000a9e:	b084      	sub	sp, #16
 8000aa0:	af00      	add	r7, sp, #0
 8000aa2:	60f8      	str	r0, [r7, #12]
 8000aa4:	607b      	str	r3, [r7, #4]
 8000aa6:	460b      	mov	r3, r1
 8000aa8:	72fb      	strb	r3, [r7, #11]
 8000aaa:	4613      	mov	r3, r2
 8000aac:	72bb      	strb	r3, [r7, #10]
 8000aae:	68fb      	ldr	r3, [r7, #12]
 8000ab0:	f103 00bc 	add.w	r0, r3, #188	; 0xbc
 8000ab4:	7aba      	ldrb	r2, [r7, #10]
 8000ab6:	7af9      	ldrb	r1, [r7, #11]
 8000ab8:	687b      	ldr	r3, [r7, #4]
 8000aba:	f7ff fdcf 	bl	800065c <_ZN3SPI10W_REGISTEREhhPh>
 8000abe:	4603      	mov	r3, r0
 8000ac0:	4618      	mov	r0, r3
 8000ac2:	3710      	adds	r7, #16
 8000ac4:	46bd      	mov	sp, r7
 8000ac6:	bd80      	pop	{r7, pc}

08000ac8 <_ZN3NRF10R_REGISTEREhhPh>:
	int R_REGISTER(uint8_t adress, uint8_t size,uint8_t* pointer) {return SPI::R_REGISTER(adress, size, pointer); };//WORKED!
 8000ac8:	b580      	push	{r7, lr}
 8000aca:	b084      	sub	sp, #16
 8000acc:	af00      	add	r7, sp, #0
 8000ace:	60f8      	str	r0, [r7, #12]
 8000ad0:	607b      	str	r3, [r7, #4]
 8000ad2:	460b      	mov	r3, r1
 8000ad4:	72fb      	strb	r3, [r7, #11]
 8000ad6:	4613      	mov	r3, r2
 8000ad8:	72bb      	strb	r3, [r7, #10]
 8000ada:	68fb      	ldr	r3, [r7, #12]
 8000adc:	f103 00bc 	add.w	r0, r3, #188	; 0xbc
 8000ae0:	7aba      	ldrb	r2, [r7, #10]
 8000ae2:	7af9      	ldrb	r1, [r7, #11]
 8000ae4:	687b      	ldr	r3, [r7, #4]
 8000ae6:	f7ff fddb 	bl	80006a0 <_ZN3SPI10R_REGISTEREhhPh>
 8000aea:	4603      	mov	r3, r0
 8000aec:	4618      	mov	r0, r3
 8000aee:	3710      	adds	r7, #16
 8000af0:	46bd      	mov	sp, r7
 8000af2:	bd80      	pop	{r7, pc}

08000af4 <_ZN3NRFC1EP12GPIO_TypeDeftS1_tP11SPI_TypeDefS1_tS1_tS1_tS1_t>:
#include "stm32f4_discovery.h"
#include "stm32f4xx_gpio.h"
#include "own_libraries/CONFIG.h"
#include "own_libraries/NRF24.h"

NRF::NRF(GPIO_TypeDef* CE_GPIO,uint16_t CE_Pin,
 8000af4:	b590      	push	{r4, r7, lr}
 8000af6:	b08f      	sub	sp, #60	; 0x3c
 8000af8:	af00      	add	r7, sp, #0
 8000afa:	60f8      	str	r0, [r7, #12]
 8000afc:	60b9      	str	r1, [r7, #8]
 8000afe:	603b      	str	r3, [r7, #0]
 8000b00:	4613      	mov	r3, r2
 8000b02:	80fb      	strh	r3, [r7, #6]
		GPIO_TypeDef* IRQ_GPIO,uint16_t IRQ_Pin,
		SPI_TypeDef* NRF_SPI,GPIO_TypeDef* NRF_CS_GPIO,uint16_t NRF_CS_Pin,
		GPIO_TypeDef* SCK_GPIO,uint16_t SCK_Pin,
		GPIO_TypeDef* MISO_GPIO,uint16_t MISO_Pin,
		GPIO_TypeDef* MOSI_GPIO,uint16_t MOSI_Pin):
	SPI(NRF_SPI,NRF_CS_GPIO,NRF_CS_Pin), NRF_REGISTER_MAP(){
 8000b04:	68fb      	ldr	r3, [r7, #12]
 8000b06:	f103 00bc 	add.w	r0, r3, #188	; 0xbc
 8000b0a:	f8b7 3054 	ldrh.w	r3, [r7, #84]	; 0x54
 8000b0e:	6d3a      	ldr	r2, [r7, #80]	; 0x50
 8000b10:	6cf9      	ldr	r1, [r7, #76]	; 0x4c
 8000b12:	f7ff fc65 	bl	80003e0 <_ZN3SPIC1EP11SPI_TypeDefP12GPIO_TypeDeft>
 8000b16:	68fb      	ldr	r3, [r7, #12]
 8000b18:	4618      	mov	r0, r3
 8000b1a:	f7ff fe2f 	bl	800077c <_ZN16NRF_REGISTER_MAPC1Ev>
 8000b1e:	4a7e      	ldr	r2, [pc, #504]	; (8000d18 <_ZN3NRFC1EP12GPIO_TypeDeftS1_tP11SPI_TypeDefS1_tS1_tS1_tS1_t+0x224>)
 8000b20:	68fb      	ldr	r3, [r7, #12]
 8000b22:	601a      	str	r2, [r3, #0]
	NRF_CE_GPIO = CE_GPIO;
 8000b24:	68fb      	ldr	r3, [r7, #12]
 8000b26:	68ba      	ldr	r2, [r7, #8]
 8000b28:	f8c3 20c8 	str.w	r2, [r3, #200]	; 0xc8
	NRF_CE_Pin 	= CE_Pin;
 8000b2c:	68fb      	ldr	r3, [r7, #12]
 8000b2e:	88fa      	ldrh	r2, [r7, #6]
 8000b30:	f8a3 20cc 	strh.w	r2, [r3, #204]	; 0xcc
	NRF_IRQ_GPIO= IRQ_GPIO;
 8000b34:	68fb      	ldr	r3, [r7, #12]
 8000b36:	683a      	ldr	r2, [r7, #0]
 8000b38:	f8c3 20d0 	str.w	r2, [r3, #208]	; 0xd0
	NRF_IRQ_Pin = IRQ_Pin;
 8000b3c:	68fb      	ldr	r3, [r7, #12]
 8000b3e:	f8b7 2048 	ldrh.w	r2, [r7, #72]	; 0x48
 8000b42:	f8a3 20d4 	strh.w	r2, [r3, #212]	; 0xd4

	//ENABLE the clock of NRF_CE_GPIO
	GPIO_Clock_Cmd(NRF_CE_GPIO,ENABLE);
 8000b46:	68fb      	ldr	r3, [r7, #12]
 8000b48:	f8d3 30c8 	ldr.w	r3, [r3, #200]	; 0xc8
 8000b4c:	2101      	movs	r1, #1
 8000b4e:	4618      	mov	r0, r3
 8000b50:	f000 fcb8 	bl	80014c4 <_Z14GPIO_Clock_CmdP12GPIO_TypeDef15FunctionalState>

	//CE GPIO configuration
	GPIO_InitTypeDef GPIO_CE_initstruct;
	GPIO_CE_initstruct.GPIO_Mode	= GPIO_Mode_OUT;
 8000b54:	2301      	movs	r3, #1
 8000b56:	f887 3034 	strb.w	r3, [r7, #52]	; 0x34
	GPIO_CE_initstruct.GPIO_OType	= GPIO_OType_PP;
 8000b5a:	2300      	movs	r3, #0
 8000b5c:	f887 3036 	strb.w	r3, [r7, #54]	; 0x36
	GPIO_CE_initstruct.GPIO_Pin 	= NRF_CE_Pin;
 8000b60:	68fb      	ldr	r3, [r7, #12]
 8000b62:	f8b3 30cc 	ldrh.w	r3, [r3, #204]	; 0xcc
 8000b66:	633b      	str	r3, [r7, #48]	; 0x30
	GPIO_CE_initstruct.GPIO_PuPd 	= GPIO_PuPd_NOPULL;
 8000b68:	2300      	movs	r3, #0
 8000b6a:	f887 3037 	strb.w	r3, [r7, #55]	; 0x37
	GPIO_CE_initstruct.GPIO_Speed	= GPIO_Speed_50MHz;
 8000b6e:	2302      	movs	r3, #2
 8000b70:	f887 3035 	strb.w	r3, [r7, #53]	; 0x35
	GPIO_Init(NRF_CE_GPIO, &GPIO_CE_initstruct);
 8000b74:	68fb      	ldr	r3, [r7, #12]
 8000b76:	f8d3 30c8 	ldr.w	r3, [r3, #200]	; 0xc8
 8000b7a:	f107 0230 	add.w	r2, r7, #48	; 0x30
 8000b7e:	4611      	mov	r1, r2
 8000b80:	4618      	mov	r0, r3
 8000b82:	f005 f97f 	bl	8005e84 <GPIO_Init>
	 * configura como input, habilita a interrupção,
	 * conecta ao EXTI
	 */

	//enables the SYSCFG clock
	RCC_APB2PeriphClockCmd(RCC_APB2Periph_SYSCFG,ENABLE);
 8000b86:	2101      	movs	r1, #1
 8000b88:	f44f 4080 	mov.w	r0, #16384	; 0x4000
 8000b8c:	f005 f93a 	bl	8005e04 <RCC_APB2PeriphClockCmd>

	GPIO_Clock_Cmd(NRF_IRQ_GPIO,ENABLE);
 8000b90:	68fb      	ldr	r3, [r7, #12]
 8000b92:	f8d3 30d0 	ldr.w	r3, [r3, #208]	; 0xd0
 8000b96:	2101      	movs	r1, #1
 8000b98:	4618      	mov	r0, r3
 8000b9a:	f000 fc93 	bl	80014c4 <_Z14GPIO_Clock_CmdP12GPIO_TypeDef15FunctionalState>
	GPIO_InitTypeDef GPIO_IRQ_initstruct;
	GPIO_IRQ_initstruct.GPIO_Pin	= NRF_IRQ_Pin;
 8000b9e:	68fb      	ldr	r3, [r7, #12]
 8000ba0:	f8b3 30d4 	ldrh.w	r3, [r3, #212]	; 0xd4
 8000ba4:	62bb      	str	r3, [r7, #40]	; 0x28
	GPIO_IRQ_initstruct.GPIO_Mode	= GPIO_Mode_IN;
 8000ba6:	2300      	movs	r3, #0
 8000ba8:	f887 302c 	strb.w	r3, [r7, #44]	; 0x2c
	GPIO_IRQ_initstruct.GPIO_OType	= GPIO_OType_PP;
 8000bac:	2300      	movs	r3, #0
 8000bae:	f887 302e 	strb.w	r3, [r7, #46]	; 0x2e
	GPIO_IRQ_initstruct.GPIO_PuPd	= GPIO_PuPd_UP;
 8000bb2:	2301      	movs	r3, #1
 8000bb4:	f887 302f 	strb.w	r3, [r7, #47]	; 0x2f
	GPIO_IRQ_initstruct.GPIO_Speed	= GPIO_Speed_50MHz;
 8000bb8:	2302      	movs	r3, #2
 8000bba:	f887 302d 	strb.w	r3, [r7, #45]	; 0x2d
	GPIO_Init(NRF_IRQ_GPIO,&GPIO_IRQ_initstruct);
 8000bbe:	68fb      	ldr	r3, [r7, #12]
 8000bc0:	f8d3 30d0 	ldr.w	r3, [r3, #208]	; 0xd0
 8000bc4:	f107 0228 	add.w	r2, r7, #40	; 0x28
 8000bc8:	4611      	mov	r1, r2
 8000bca:	4618      	mov	r0, r3
 8000bcc:	f005 f95a 	bl	8005e84 <GPIO_Init>

	//TODO: experimentar configurar o EXTI antes de config o NVIC
	//TODO: experimentar também inicializar o clock do SYSCFG depois do clock do IRQ_GPIO

	EXTI_InitTypeDef EXTI_cfg;
	EXTI_cfg.EXTI_Line		= EXTI_Line(NRF_IRQ_Pin);
 8000bd0:	68fb      	ldr	r3, [r7, #12]
 8000bd2:	f8b3 30d4 	ldrh.w	r3, [r3, #212]	; 0xd4
 8000bd6:	4618      	mov	r0, r3
 8000bd8:	f000 feae 	bl	8001938 <_Z9EXTI_Linet>
 8000bdc:	4603      	mov	r3, r0
 8000bde:	623b      	str	r3, [r7, #32]
	EXTI_cfg.EXTI_LineCmd	= ENABLE;
 8000be0:	2301      	movs	r3, #1
 8000be2:	f887 3026 	strb.w	r3, [r7, #38]	; 0x26
	EXTI_cfg.EXTI_Mode		= EXTI_Mode_Interrupt;
 8000be6:	2300      	movs	r3, #0
 8000be8:	f887 3024 	strb.w	r3, [r7, #36]	; 0x24
	EXTI_cfg.EXTI_Trigger	= EXTI_Trigger_Falling;
 8000bec:	230c      	movs	r3, #12
 8000bee:	f887 3025 	strb.w	r3, [r7, #37]	; 0x25
	EXTI_Init(&EXTI_cfg);
 8000bf2:	f107 0320 	add.w	r3, r7, #32
 8000bf6:	4618      	mov	r0, r3
 8000bf8:	f005 fa56 	bl	80060a8 <EXTI_Init>

	NVIC_InitTypeDef NVIC_cfg;
	NVIC_cfg.NVIC_IRQChannel					= EXTIx_IRQn(NRF_IRQ_Pin);
 8000bfc:	68fb      	ldr	r3, [r7, #12]
 8000bfe:	f8b3 30d4 	ldrh.w	r3, [r3, #212]	; 0xd4
 8000c02:	4618      	mov	r0, r3
 8000c04:	f000 fe2e 	bl	8001864 <_Z10EXTIx_IRQnt>
 8000c08:	4603      	mov	r3, r0
 8000c0a:	b2db      	uxtb	r3, r3
 8000c0c:	773b      	strb	r3, [r7, #28]
	NVIC_cfg.NVIC_IRQChannelCmd					= ENABLE;
 8000c0e:	2301      	movs	r3, #1
 8000c10:	77fb      	strb	r3, [r7, #31]
	NVIC_cfg.NVIC_IRQChannelPreemptionPriority	= 0x0f;	//lower priority, can be preempted
 8000c12:	230f      	movs	r3, #15
 8000c14:	777b      	strb	r3, [r7, #29]
	NVIC_cfg.NVIC_IRQChannelSubPriority			= 0x0f;	//lower priority, can be preempted
 8000c16:	230f      	movs	r3, #15
 8000c18:	77bb      	strb	r3, [r7, #30]
	NVIC_Init(&NVIC_cfg);
 8000c1a:	f107 031c 	add.w	r3, r7, #28
 8000c1e:	4618      	mov	r0, r3
 8000c20:	f005 fbea 	bl	80063f8 <NVIC_Init>

	SYSCFG_EXTILineConfig(EXTI_PortSource(NRF_IRQ_GPIO),EXTI_PinSource(NRF_IRQ_Pin));
 8000c24:	68fb      	ldr	r3, [r7, #12]
 8000c26:	f8d3 30d0 	ldr.w	r3, [r3, #208]	; 0xd0
 8000c2a:	4618      	mov	r0, r3
 8000c2c:	f000 fef4 	bl	8001a18 <_Z15EXTI_PortSourceP12GPIO_TypeDef>
 8000c30:	4603      	mov	r3, r0
 8000c32:	461c      	mov	r4, r3
 8000c34:	68fb      	ldr	r3, [r7, #12]
 8000c36:	f8b3 30d4 	ldrh.w	r3, [r3, #212]	; 0xd4
 8000c3a:	4618      	mov	r0, r3
 8000c3c:	f000 ff64 	bl	8001b08 <_Z14EXTI_PinSourcet>
 8000c40:	4603      	mov	r3, r0
 8000c42:	4619      	mov	r1, r3
 8000c44:	4620      	mov	r0, r4
 8000c46:	f004 ff9d 	bl	8005b84 <SYSCFG_EXTILineConfig>
	/*TODO: FAZER O OVERRIDE DOS HANDLERS*/

	//MOSI, MISO, SCK GPIO configuration
	GPIO_InitTypeDef GPIO_SPI_Pins_initstruct;
	GPIO_SPI_Pins_initstruct.GPIO_Mode	= GPIO_Mode_AF;
 8000c4a:	2302      	movs	r3, #2
 8000c4c:	763b      	strb	r3, [r7, #24]
	GPIO_SPI_Pins_initstruct.GPIO_OType = GPIO_OType_PP;
 8000c4e:	2300      	movs	r3, #0
 8000c50:	76bb      	strb	r3, [r7, #26]
	GPIO_SPI_Pins_initstruct.GPIO_PuPd	= GPIO_PuPd_NOPULL;
 8000c52:	2300      	movs	r3, #0
 8000c54:	76fb      	strb	r3, [r7, #27]
	GPIO_SPI_Pins_initstruct.GPIO_Speed = GPIO_Speed_50MHz;
 8000c56:	2302      	movs	r3, #2
 8000c58:	767b      	strb	r3, [r7, #25]

	GPIO_Clock_Cmd(SCK_GPIO, ENABLE);
 8000c5a:	2101      	movs	r1, #1
 8000c5c:	6db8      	ldr	r0, [r7, #88]	; 0x58
 8000c5e:	f000 fc31 	bl	80014c4 <_Z14GPIO_Clock_CmdP12GPIO_TypeDef15FunctionalState>
	GPIO_SPI_Pins_initstruct.GPIO_Pin = SCK_Pin;
 8000c62:	f8b7 305c 	ldrh.w	r3, [r7, #92]	; 0x5c
 8000c66:	617b      	str	r3, [r7, #20]
	GPIO_Init(SCK_GPIO, &GPIO_SPI_Pins_initstruct);
 8000c68:	f107 0314 	add.w	r3, r7, #20
 8000c6c:	4619      	mov	r1, r3
 8000c6e:	6db8      	ldr	r0, [r7, #88]	; 0x58
 8000c70:	f005 f908 	bl	8005e84 <GPIO_Init>

	GPIO_Clock_Cmd(MISO_GPIO, ENABLE);
 8000c74:	2101      	movs	r1, #1
 8000c76:	6e38      	ldr	r0, [r7, #96]	; 0x60
 8000c78:	f000 fc24 	bl	80014c4 <_Z14GPIO_Clock_CmdP12GPIO_TypeDef15FunctionalState>
	GPIO_SPI_Pins_initstruct.GPIO_Pin = MISO_Pin;
 8000c7c:	f8b7 3064 	ldrh.w	r3, [r7, #100]	; 0x64
 8000c80:	617b      	str	r3, [r7, #20]
	GPIO_Init(MISO_GPIO, &GPIO_SPI_Pins_initstruct);
 8000c82:	f107 0314 	add.w	r3, r7, #20
 8000c86:	4619      	mov	r1, r3
 8000c88:	6e38      	ldr	r0, [r7, #96]	; 0x60
 8000c8a:	f005 f8fb 	bl	8005e84 <GPIO_Init>

	GPIO_Clock_Cmd(MOSI_GPIO, ENABLE);
 8000c8e:	2101      	movs	r1, #1
 8000c90:	6eb8      	ldr	r0, [r7, #104]	; 0x68
 8000c92:	f000 fc17 	bl	80014c4 <_Z14GPIO_Clock_CmdP12GPIO_TypeDef15FunctionalState>
	GPIO_SPI_Pins_initstruct.GPIO_Pin = MOSI_Pin;
 8000c96:	f8b7 306c 	ldrh.w	r3, [r7, #108]	; 0x6c
 8000c9a:	617b      	str	r3, [r7, #20]
	GPIO_Init(MOSI_GPIO, &GPIO_SPI_Pins_initstruct);
 8000c9c:	f107 0314 	add.w	r3, r7, #20
 8000ca0:	4619      	mov	r1, r3
 8000ca2:	6eb8      	ldr	r0, [r7, #104]	; 0x68
 8000ca4:	f005 f8ee 	bl	8005e84 <GPIO_Init>

	//SPI1 CONFIG MOSI, MISO, SCK
	GPIO_PinAFConfig(SCK_GPIO , GPIO_PinSource(SCK_Pin) , GPIO_AF_SPIx(NRF_SPI));
 8000ca8:	f8b7 305c 	ldrh.w	r3, [r7, #92]	; 0x5c
 8000cac:	4618      	mov	r0, r3
 8000cae:	f000 fd1b 	bl	80016e8 <_Z14GPIO_PinSourcet>
 8000cb2:	4603      	mov	r3, r0
 8000cb4:	461c      	mov	r4, r3
 8000cb6:	6cf8      	ldr	r0, [r7, #76]	; 0x4c
 8000cb8:	f000 fd80 	bl	80017bc <_Z12GPIO_AF_SPIxP11SPI_TypeDef>
 8000cbc:	4603      	mov	r3, r0
 8000cbe:	461a      	mov	r2, r3
 8000cc0:	4621      	mov	r1, r4
 8000cc2:	6db8      	ldr	r0, [r7, #88]	; 0x58
 8000cc4:	f005 f9a6 	bl	8006014 <GPIO_PinAFConfig>
	GPIO_PinAFConfig(MISO_GPIO, GPIO_PinSource(MISO_Pin), GPIO_AF_SPIx(NRF_SPI));
 8000cc8:	f8b7 3064 	ldrh.w	r3, [r7, #100]	; 0x64
 8000ccc:	4618      	mov	r0, r3
 8000cce:	f000 fd0b 	bl	80016e8 <_Z14GPIO_PinSourcet>
 8000cd2:	4603      	mov	r3, r0
 8000cd4:	461c      	mov	r4, r3
 8000cd6:	6cf8      	ldr	r0, [r7, #76]	; 0x4c
 8000cd8:	f000 fd70 	bl	80017bc <_Z12GPIO_AF_SPIxP11SPI_TypeDef>
 8000cdc:	4603      	mov	r3, r0
 8000cde:	461a      	mov	r2, r3
 8000ce0:	4621      	mov	r1, r4
 8000ce2:	6e38      	ldr	r0, [r7, #96]	; 0x60
 8000ce4:	f005 f996 	bl	8006014 <GPIO_PinAFConfig>
	GPIO_PinAFConfig(MOSI_GPIO, GPIO_PinSource(MOSI_Pin), GPIO_AF_SPIx(NRF_SPI));
 8000ce8:	f8b7 306c 	ldrh.w	r3, [r7, #108]	; 0x6c
 8000cec:	4618      	mov	r0, r3
 8000cee:	f000 fcfb 	bl	80016e8 <_Z14GPIO_PinSourcet>
 8000cf2:	4603      	mov	r3, r0
 8000cf4:	461c      	mov	r4, r3
 8000cf6:	6cf8      	ldr	r0, [r7, #76]	; 0x4c
 8000cf8:	f000 fd60 	bl	80017bc <_Z12GPIO_AF_SPIxP11SPI_TypeDef>
 8000cfc:	4603      	mov	r3, r0
 8000cfe:	461a      	mov	r2, r3
 8000d00:	4621      	mov	r1, r4
 8000d02:	6eb8      	ldr	r0, [r7, #104]	; 0x68
 8000d04:	f005 f986 	bl	8006014 <GPIO_PinAFConfig>

	//finalizada a etapa de configuração, faz o Power Up
	begin();
 8000d08:	68f8      	ldr	r0, [r7, #12]
 8000d0a:	f000 f82b 	bl	8000d64 <_ZN3NRF5beginEv>
}
 8000d0e:	68fb      	ldr	r3, [r7, #12]
 8000d10:	4618      	mov	r0, r3
 8000d12:	373c      	adds	r7, #60	; 0x3c
 8000d14:	46bd      	mov	sp, r7
 8000d16:	bd90      	pop	{r4, r7, pc}
 8000d18:	080066c0 	.word	0x080066c0

08000d1c <_ZN3NRF9ASSERT_CEEi>:

//Chip Enable ativa o modo RX ou TX
void NRF::ASSERT_CE(int STATE){
 8000d1c:	b580      	push	{r7, lr}
 8000d1e:	b082      	sub	sp, #8
 8000d20:	af00      	add	r7, sp, #0
 8000d22:	6078      	str	r0, [r7, #4]
 8000d24:	6039      	str	r1, [r7, #0]
	if(STATE==SET){
 8000d26:	683b      	ldr	r3, [r7, #0]
 8000d28:	2b01      	cmp	r3, #1
 8000d2a:	d10a      	bne.n	8000d42 <_ZN3NRF9ASSERT_CEEi+0x26>
		GPIO_SetBits(NRF_CE_GPIO,NRF_CE_Pin);//CE=HIGH põe o NRF em TX
 8000d2c:	687b      	ldr	r3, [r7, #4]
 8000d2e:	f8d3 20c8 	ldr.w	r2, [r3, #200]	; 0xc8
 8000d32:	687b      	ldr	r3, [r7, #4]
 8000d34:	f8b3 30cc 	ldrh.w	r3, [r3, #204]	; 0xcc
 8000d38:	4619      	mov	r1, r3
 8000d3a:	4610      	mov	r0, r2
 8000d3c:	f005 f94a 	bl	8005fd4 <GPIO_SetBits>
	}else if(STATE==RESET){
		GPIO_ResetBits(NRF_CE_GPIO,NRF_CE_Pin);//CE=LOW põe o NRF em RX
	}
}
 8000d40:	e00c      	b.n	8000d5c <_ZN3NRF9ASSERT_CEEi+0x40>

//Chip Enable ativa o modo RX ou TX
void NRF::ASSERT_CE(int STATE){
	if(STATE==SET){
		GPIO_SetBits(NRF_CE_GPIO,NRF_CE_Pin);//CE=HIGH põe o NRF em TX
	}else if(STATE==RESET){
 8000d42:	683b      	ldr	r3, [r7, #0]
 8000d44:	2b00      	cmp	r3, #0
 8000d46:	d109      	bne.n	8000d5c <_ZN3NRF9ASSERT_CEEi+0x40>
		GPIO_ResetBits(NRF_CE_GPIO,NRF_CE_Pin);//CE=LOW põe o NRF em RX
 8000d48:	687b      	ldr	r3, [r7, #4]
 8000d4a:	f8d3 20c8 	ldr.w	r2, [r3, #200]	; 0xc8
 8000d4e:	687b      	ldr	r3, [r7, #4]
 8000d50:	f8b3 30cc 	ldrh.w	r3, [r3, #204]	; 0xcc
 8000d54:	4619      	mov	r1, r3
 8000d56:	4610      	mov	r0, r2
 8000d58:	f005 f94c 	bl	8005ff4 <GPIO_ResetBits>
	}
}
 8000d5c:	bf00      	nop
 8000d5e:	3708      	adds	r7, #8
 8000d60:	46bd      	mov	sp, r7
 8000d62:	bd80      	pop	{r7, pc}

08000d64 <_ZN3NRF5beginEv>:

//supõe que o NRF estava desligado e põe ele em standby-I
void NRF::begin(){
 8000d64:	b590      	push	{r4, r7, lr}
 8000d66:	b085      	sub	sp, #20
 8000d68:	af00      	add	r7, sp, #0
 8000d6a:	6078      	str	r0, [r7, #4]
	//Delay_ms(11);
	int i;
	for (i=0;i<0xafffff5;i++);
 8000d6c:	2300      	movs	r3, #0
 8000d6e:	60fb      	str	r3, [r7, #12]
 8000d70:	68fb      	ldr	r3, [r7, #12]
 8000d72:	4a1f      	ldr	r2, [pc, #124]	; (8000df0 <_ZN3NRF5beginEv+0x8c>)
 8000d74:	4293      	cmp	r3, r2
 8000d76:	dc03      	bgt.n	8000d80 <_ZN3NRF5beginEv+0x1c>
 8000d78:	68fb      	ldr	r3, [r7, #12]
 8000d7a:	3301      	adds	r3, #1
 8000d7c:	60fb      	str	r3, [r7, #12]
 8000d7e:	e7f7      	b.n	8000d70 <_ZN3NRF5beginEv+0xc>

	ASSERT_CS(SET);
 8000d80:	687b      	ldr	r3, [r7, #4]
 8000d82:	33bc      	adds	r3, #188	; 0xbc
 8000d84:	2101      	movs	r1, #1
 8000d86:	4618      	mov	r0, r3
 8000d88:	f7ff fb8a 	bl	80004a0 <_ZN3SPI9ASSERT_CSEi>
	ASSERT_CE(RESET);
 8000d8c:	2100      	movs	r1, #0
 8000d8e:	6878      	ldr	r0, [r7, #4]
 8000d90:	f7ff ffc4 	bl	8000d1c <_ZN3NRF9ASSERT_CEEi>

	//lê CONFIG
	uint8_t config;
	R_REGISTER(0x00,1, &config);
 8000d94:	687b      	ldr	r3, [r7, #4]
 8000d96:	681b      	ldr	r3, [r3, #0]
 8000d98:	3304      	adds	r3, #4
 8000d9a:	681c      	ldr	r4, [r3, #0]
 8000d9c:	f107 030b 	add.w	r3, r7, #11
 8000da0:	2201      	movs	r2, #1
 8000da2:	2100      	movs	r1, #0
 8000da4:	6878      	ldr	r0, [r7, #4]
 8000da6:	47a0      	blx	r4

	//faz PWR_UP=1
	config = 0b00000010;
 8000da8:	2302      	movs	r3, #2
 8000daa:	72fb      	strb	r3, [r7, #11]
	//grava o novo valor de CONFIG
	W_REGISTER(0x00,1,&config);
 8000dac:	687b      	ldr	r3, [r7, #4]
 8000dae:	681b      	ldr	r3, [r3, #0]
 8000db0:	681c      	ldr	r4, [r3, #0]
 8000db2:	f107 030b 	add.w	r3, r7, #11
 8000db6:	2201      	movs	r2, #1
 8000db8:	2100      	movs	r1, #0
 8000dba:	6878      	ldr	r0, [r7, #4]
 8000dbc:	47a0      	blx	r4
	config = 0x70;
 8000dbe:	2370      	movs	r3, #112	; 0x70
 8000dc0:	72fb      	strb	r3, [r7, #11]
	W_REGISTER(0x07,1,&config);
 8000dc2:	687b      	ldr	r3, [r7, #4]
 8000dc4:	681b      	ldr	r3, [r3, #0]
 8000dc6:	681c      	ldr	r4, [r3, #0]
 8000dc8:	f107 030b 	add.w	r3, r7, #11
 8000dcc:	2201      	movs	r2, #1
 8000dce:	2107      	movs	r1, #7
 8000dd0:	6878      	ldr	r0, [r7, #4]
 8000dd2:	47a0      	blx	r4

	//Delay_ms(2);//tempo de startup
	for (i=0;i<0x1fffffe;i++);
 8000dd4:	2300      	movs	r3, #0
 8000dd6:	60fb      	str	r3, [r7, #12]
 8000dd8:	68fb      	ldr	r3, [r7, #12]
 8000dda:	4a06      	ldr	r2, [pc, #24]	; (8000df4 <_ZN3NRF5beginEv+0x90>)
 8000ddc:	4293      	cmp	r3, r2
 8000dde:	dc03      	bgt.n	8000de8 <_ZN3NRF5beginEv+0x84>
 8000de0:	68fb      	ldr	r3, [r7, #12]
 8000de2:	3301      	adds	r3, #1
 8000de4:	60fb      	str	r3, [r7, #12]
 8000de6:	e7f7      	b.n	8000dd8 <_ZN3NRF5beginEv+0x74>
	return;
 8000de8:	bf00      	nop
}
 8000dea:	3714      	adds	r7, #20
 8000dec:	46bd      	mov	sp, r7
 8000dee:	bd90      	pop	{r4, r7, pc}
 8000df0:	0afffff4 	.word	0x0afffff4
 8000df4:	01fffffd 	.word	0x01fffffd

08000df8 <_ZN3NRF12stdbyI_to_RXEh>:

	RF_CH_setup(channel);//setup of frequency
	return;
}

void NRF::stdbyI_to_RX(uint8_t channel){
 8000df8:	b590      	push	{r4, r7, lr}
 8000dfa:	b085      	sub	sp, #20
 8000dfc:	af00      	add	r7, sp, #0
 8000dfe:	6078      	str	r0, [r7, #4]
 8000e00:	460b      	mov	r3, r1
 8000e02:	70fb      	strb	r3, [r7, #3]
	uint8_t config;
	R_REGISTER(0x00,1,&config);
 8000e04:	687b      	ldr	r3, [r7, #4]
 8000e06:	681b      	ldr	r3, [r3, #0]
 8000e08:	3304      	adds	r3, #4
 8000e0a:	681c      	ldr	r4, [r3, #0]
 8000e0c:	f107 030b 	add.w	r3, r7, #11
 8000e10:	2201      	movs	r2, #1
 8000e12:	2100      	movs	r1, #0
 8000e14:	6878      	ldr	r0, [r7, #4]
 8000e16:	47a0      	blx	r4

	int i;
	for (i=0;i<0xffff;i++);
 8000e18:	2300      	movs	r3, #0
 8000e1a:	60fb      	str	r3, [r7, #12]
 8000e1c:	68fb      	ldr	r3, [r7, #12]
 8000e1e:	f64f 72fe 	movw	r2, #65534	; 0xfffe
 8000e22:	4293      	cmp	r3, r2
 8000e24:	dc03      	bgt.n	8000e2e <_ZN3NRF12stdbyI_to_RXEh+0x36>
 8000e26:	68fb      	ldr	r3, [r7, #12]
 8000e28:	3301      	adds	r3, #1
 8000e2a:	60fb      	str	r3, [r7, #12]
 8000e2c:	e7f6      	b.n	8000e1c <_ZN3NRF12stdbyI_to_RXEh+0x24>

	config |= 0b00000001;//makes PRIM_RX=1 (receiver)
 8000e2e:	7afb      	ldrb	r3, [r7, #11]
 8000e30:	f043 0301 	orr.w	r3, r3, #1
 8000e34:	b2db      	uxtb	r3, r3
 8000e36:	72fb      	strb	r3, [r7, #11]
	W_REGISTER(0x00,1,&config);
 8000e38:	687b      	ldr	r3, [r7, #4]
 8000e3a:	681b      	ldr	r3, [r3, #0]
 8000e3c:	681c      	ldr	r4, [r3, #0]
 8000e3e:	f107 030b 	add.w	r3, r7, #11
 8000e42:	2201      	movs	r2, #1
 8000e44:	2100      	movs	r1, #0
 8000e46:	6878      	ldr	r0, [r7, #4]
 8000e48:	47a0      	blx	r4
	for (i=0;i<0xffff;i++);
 8000e4a:	2300      	movs	r3, #0
 8000e4c:	60fb      	str	r3, [r7, #12]
 8000e4e:	68fb      	ldr	r3, [r7, #12]
 8000e50:	f64f 72fe 	movw	r2, #65534	; 0xfffe
 8000e54:	4293      	cmp	r3, r2
 8000e56:	dc03      	bgt.n	8000e60 <_ZN3NRF12stdbyI_to_RXEh+0x68>
 8000e58:	68fb      	ldr	r3, [r7, #12]
 8000e5a:	3301      	adds	r3, #1
 8000e5c:	60fb      	str	r3, [r7, #12]
 8000e5e:	e7f6      	b.n	8000e4e <_ZN3NRF12stdbyI_to_RXEh+0x56>

	RF_CH_setup(channel);//setup of frequency
 8000e60:	78fb      	ldrb	r3, [r7, #3]
 8000e62:	4619      	mov	r1, r3
 8000e64:	6878      	ldr	r0, [r7, #4]
 8000e66:	f000 f885 	bl	8000f74 <_ZN3NRF11RF_CH_setupEh>
	return;
 8000e6a:	bf00      	nop
}//WORKED!
 8000e6c:	3714      	adds	r7, #20
 8000e6e:	46bd      	mov	sp, r7
 8000e70:	bd90      	pop	{r4, r7, pc}
 8000e72:	bf00      	nop

08000e74 <_ZN3NRF11EN_AA_setupEh>:

//preenche o registrador EN_AA usando o valor ENAA_Px
void NRF::EN_AA_setup(uint8_t ENAA_Px){
 8000e74:	b590      	push	{r4, r7, lr}
 8000e76:	b085      	sub	sp, #20
 8000e78:	af00      	add	r7, sp, #0
 8000e7a:	6078      	str	r0, [r7, #4]
 8000e7c:	460b      	mov	r3, r1
 8000e7e:	70fb      	strb	r3, [r7, #3]
	uint8_t en_aa = ENAA_Px;
 8000e80:	78fb      	ldrb	r3, [r7, #3]
 8000e82:	72fb      	strb	r3, [r7, #11]

	W_REGISTER(0x01,1,&en_aa);
 8000e84:	687b      	ldr	r3, [r7, #4]
 8000e86:	681b      	ldr	r3, [r3, #0]
 8000e88:	681c      	ldr	r4, [r3, #0]
 8000e8a:	f107 030b 	add.w	r3, r7, #11
 8000e8e:	2201      	movs	r2, #1
 8000e90:	2101      	movs	r1, #1
 8000e92:	6878      	ldr	r0, [r7, #4]
 8000e94:	47a0      	blx	r4

	int i;
	for (i=0;i<0xffff;i++);
 8000e96:	2300      	movs	r3, #0
 8000e98:	60fb      	str	r3, [r7, #12]
 8000e9a:	68fb      	ldr	r3, [r7, #12]
 8000e9c:	f64f 72fe 	movw	r2, #65534	; 0xfffe
 8000ea0:	4293      	cmp	r3, r2
 8000ea2:	dc03      	bgt.n	8000eac <_ZN3NRF11EN_AA_setupEh+0x38>
 8000ea4:	68fb      	ldr	r3, [r7, #12]
 8000ea6:	3301      	adds	r3, #1
 8000ea8:	60fb      	str	r3, [r7, #12]
 8000eaa:	e7f6      	b.n	8000e9a <_ZN3NRF11EN_AA_setupEh+0x26>
	return;
 8000eac:	bf00      	nop
}//WORKED!
 8000eae:	3714      	adds	r7, #20
 8000eb0:	46bd      	mov	sp, r7
 8000eb2:	bd90      	pop	{r4, r7, pc}

08000eb4 <_ZN3NRF15EN_RXADDR_setupEh>:

//preenche o registrador EN_RXADDR usando o valor ERX_Px
void NRF::EN_RXADDR_setup(uint8_t ERX_Px){
 8000eb4:	b590      	push	{r4, r7, lr}
 8000eb6:	b085      	sub	sp, #20
 8000eb8:	af00      	add	r7, sp, #0
 8000eba:	6078      	str	r0, [r7, #4]
 8000ebc:	460b      	mov	r3, r1
 8000ebe:	70fb      	strb	r3, [r7, #3]
	uint8_t en_pipes = ERX_Px;
 8000ec0:	78fb      	ldrb	r3, [r7, #3]
 8000ec2:	72fb      	strb	r3, [r7, #11]

	W_REGISTER(0x02,1,&en_pipes);
 8000ec4:	687b      	ldr	r3, [r7, #4]
 8000ec6:	681b      	ldr	r3, [r3, #0]
 8000ec8:	681c      	ldr	r4, [r3, #0]
 8000eca:	f107 030b 	add.w	r3, r7, #11
 8000ece:	2201      	movs	r2, #1
 8000ed0:	2102      	movs	r1, #2
 8000ed2:	6878      	ldr	r0, [r7, #4]
 8000ed4:	47a0      	blx	r4
	int i;
	for (i=0;i<0xffff;i++);
 8000ed6:	2300      	movs	r3, #0
 8000ed8:	60fb      	str	r3, [r7, #12]
 8000eda:	68fb      	ldr	r3, [r7, #12]
 8000edc:	f64f 72fe 	movw	r2, #65534	; 0xfffe
 8000ee0:	4293      	cmp	r3, r2
 8000ee2:	dc03      	bgt.n	8000eec <_ZN3NRF15EN_RXADDR_setupEh+0x38>
 8000ee4:	68fb      	ldr	r3, [r7, #12]
 8000ee6:	3301      	adds	r3, #1
 8000ee8:	60fb      	str	r3, [r7, #12]
 8000eea:	e7f6      	b.n	8000eda <_ZN3NRF15EN_RXADDR_setupEh+0x26>
	return;
 8000eec:	bf00      	nop
}//WORKED!
 8000eee:	3714      	adds	r7, #20
 8000ef0:	46bd      	mov	sp, r7
 8000ef2:	bd90      	pop	{r4, r7, pc}

08000ef4 <_ZN3NRF14SETUP_AW_setupEh>:

//preenche o registrador SETUP_AW, grava nele o valor AW
//AW deve ser construído usando as constantes AW_x_bytes
void NRF::SETUP_AW_setup(uint8_t AW){
 8000ef4:	b590      	push	{r4, r7, lr}
 8000ef6:	b085      	sub	sp, #20
 8000ef8:	af00      	add	r7, sp, #0
 8000efa:	6078      	str	r0, [r7, #4]
 8000efc:	460b      	mov	r3, r1
 8000efe:	70fb      	strb	r3, [r7, #3]
	uint8_t address_width = AW;
 8000f00:	78fb      	ldrb	r3, [r7, #3]
 8000f02:	72fb      	strb	r3, [r7, #11]

	W_REGISTER(0x03,1,&address_width);
 8000f04:	687b      	ldr	r3, [r7, #4]
 8000f06:	681b      	ldr	r3, [r3, #0]
 8000f08:	681c      	ldr	r4, [r3, #0]
 8000f0a:	f107 030b 	add.w	r3, r7, #11
 8000f0e:	2201      	movs	r2, #1
 8000f10:	2103      	movs	r1, #3
 8000f12:	6878      	ldr	r0, [r7, #4]
 8000f14:	47a0      	blx	r4

	int i;
	for (i=0;i<0xffff;i++);
 8000f16:	2300      	movs	r3, #0
 8000f18:	60fb      	str	r3, [r7, #12]
 8000f1a:	68fb      	ldr	r3, [r7, #12]
 8000f1c:	f64f 72fe 	movw	r2, #65534	; 0xfffe
 8000f20:	4293      	cmp	r3, r2
 8000f22:	dc03      	bgt.n	8000f2c <_ZN3NRF14SETUP_AW_setupEh+0x38>
 8000f24:	68fb      	ldr	r3, [r7, #12]
 8000f26:	3301      	adds	r3, #1
 8000f28:	60fb      	str	r3, [r7, #12]
 8000f2a:	e7f6      	b.n	8000f1a <_ZN3NRF14SETUP_AW_setupEh+0x26>
	return;
 8000f2c:	bf00      	nop
}//WORKED!
 8000f2e:	3714      	adds	r7, #20
 8000f30:	46bd      	mov	sp, r7
 8000f32:	bd90      	pop	{r4, r7, pc}

08000f34 <_ZN3NRF16SETUP_RETR_setupEh>:

//Setup of Automatic Retransmission, fills the SETUP_RETR with ARconfig
//should be filled with one RETR_ARC and, optionally, one RETR_ARDelay value
void NRF::SETUP_RETR_setup(uint8_t setup_retries){
 8000f34:	b590      	push	{r4, r7, lr}
 8000f36:	b085      	sub	sp, #20
 8000f38:	af00      	add	r7, sp, #0
 8000f3a:	6078      	str	r0, [r7, #4]
 8000f3c:	460b      	mov	r3, r1
 8000f3e:	70fb      	strb	r3, [r7, #3]
	uint8_t ARconfig = setup_retries;
 8000f40:	78fb      	ldrb	r3, [r7, #3]
 8000f42:	72fb      	strb	r3, [r7, #11]

	W_REGISTER(0x04,1,&ARconfig);
 8000f44:	687b      	ldr	r3, [r7, #4]
 8000f46:	681b      	ldr	r3, [r3, #0]
 8000f48:	681c      	ldr	r4, [r3, #0]
 8000f4a:	f107 030b 	add.w	r3, r7, #11
 8000f4e:	2201      	movs	r2, #1
 8000f50:	2104      	movs	r1, #4
 8000f52:	6878      	ldr	r0, [r7, #4]
 8000f54:	47a0      	blx	r4

	int i;
	for (i=0;i<0xffff;i++);
 8000f56:	2300      	movs	r3, #0
 8000f58:	60fb      	str	r3, [r7, #12]
 8000f5a:	68fb      	ldr	r3, [r7, #12]
 8000f5c:	f64f 72fe 	movw	r2, #65534	; 0xfffe
 8000f60:	4293      	cmp	r3, r2
 8000f62:	dc03      	bgt.n	8000f6c <_ZN3NRF16SETUP_RETR_setupEh+0x38>
 8000f64:	68fb      	ldr	r3, [r7, #12]
 8000f66:	3301      	adds	r3, #1
 8000f68:	60fb      	str	r3, [r7, #12]
 8000f6a:	e7f6      	b.n	8000f5a <_ZN3NRF16SETUP_RETR_setupEh+0x26>
	return;
 8000f6c:	bf00      	nop
}//WORKED!
 8000f6e:	3714      	adds	r7, #20
 8000f70:	46bd      	mov	sp, r7
 8000f72:	bd90      	pop	{r4, r7, pc}

08000f74 <_ZN3NRF11RF_CH_setupEh>:

//preenche o registrador RF_CH, grava o valor rf_channel
void NRF::RF_CH_setup(uint8_t channel){
 8000f74:	b590      	push	{r4, r7, lr}
 8000f76:	b085      	sub	sp, #20
 8000f78:	af00      	add	r7, sp, #0
 8000f7a:	6078      	str	r0, [r7, #4]
 8000f7c:	460b      	mov	r3, r1
 8000f7e:	70fb      	strb	r3, [r7, #3]
	uint8_t rf_ch = channel;
 8000f80:	78fb      	ldrb	r3, [r7, #3]
 8000f82:	72fb      	strb	r3, [r7, #11]

	W_REGISTER(0x05,1,&rf_ch);
 8000f84:	687b      	ldr	r3, [r7, #4]
 8000f86:	681b      	ldr	r3, [r3, #0]
 8000f88:	681c      	ldr	r4, [r3, #0]
 8000f8a:	f107 030b 	add.w	r3, r7, #11
 8000f8e:	2201      	movs	r2, #1
 8000f90:	2105      	movs	r1, #5
 8000f92:	6878      	ldr	r0, [r7, #4]
 8000f94:	47a0      	blx	r4

	int i;
	for (i=0;i<0xffff;i++);
 8000f96:	2300      	movs	r3, #0
 8000f98:	60fb      	str	r3, [r7, #12]
 8000f9a:	68fb      	ldr	r3, [r7, #12]
 8000f9c:	f64f 72fe 	movw	r2, #65534	; 0xfffe
 8000fa0:	4293      	cmp	r3, r2
 8000fa2:	dc03      	bgt.n	8000fac <_ZN3NRF11RF_CH_setupEh+0x38>
 8000fa4:	68fb      	ldr	r3, [r7, #12]
 8000fa6:	3301      	adds	r3, #1
 8000fa8:	60fb      	str	r3, [r7, #12]
 8000faa:	e7f6      	b.n	8000f9a <_ZN3NRF11RF_CH_setupEh+0x26>
	return;
 8000fac:	bf00      	nop
}//WORKED!
 8000fae:	3714      	adds	r7, #20
 8000fb0:	46bd      	mov	sp, r7
 8000fb2:	bd90      	pop	{r4, r7, pc}

08000fb4 <_ZN3NRF14RF_SETUP_setupEh>:

//preenche o registrador RF_SETUP, grava nele o valor configuration
void NRF::RF_SETUP_setup(uint8_t configuration){
 8000fb4:	b590      	push	{r4, r7, lr}
 8000fb6:	b085      	sub	sp, #20
 8000fb8:	af00      	add	r7, sp, #0
 8000fba:	6078      	str	r0, [r7, #4]
 8000fbc:	460b      	mov	r3, r1
 8000fbe:	70fb      	strb	r3, [r7, #3]
	uint8_t rf_setup =  configuration;
 8000fc0:	78fb      	ldrb	r3, [r7, #3]
 8000fc2:	72fb      	strb	r3, [r7, #11]

	W_REGISTER(0x06,1,&rf_setup);
 8000fc4:	687b      	ldr	r3, [r7, #4]
 8000fc6:	681b      	ldr	r3, [r3, #0]
 8000fc8:	681c      	ldr	r4, [r3, #0]
 8000fca:	f107 030b 	add.w	r3, r7, #11
 8000fce:	2201      	movs	r2, #1
 8000fd0:	2106      	movs	r1, #6
 8000fd2:	6878      	ldr	r0, [r7, #4]
 8000fd4:	47a0      	blx	r4

	int i;
	for (i=0;i<0xffff;i++);
 8000fd6:	2300      	movs	r3, #0
 8000fd8:	60fb      	str	r3, [r7, #12]
 8000fda:	68fb      	ldr	r3, [r7, #12]
 8000fdc:	f64f 72fe 	movw	r2, #65534	; 0xfffe
 8000fe0:	4293      	cmp	r3, r2
 8000fe2:	dc03      	bgt.n	8000fec <_ZN3NRF14RF_SETUP_setupEh+0x38>
 8000fe4:	68fb      	ldr	r3, [r7, #12]
 8000fe6:	3301      	adds	r3, #1
 8000fe8:	60fb      	str	r3, [r7, #12]
 8000fea:	e7f6      	b.n	8000fda <_ZN3NRF14RF_SETUP_setupEh+0x26>
	return;
 8000fec:	bf00      	nop
}//WORKED!
 8000fee:	3714      	adds	r7, #20
 8000ff0:	46bd      	mov	sp, r7
 8000ff2:	bd90      	pop	{r4, r7, pc}

08000ff4 <_ZN3NRF16RX_ADDR_Px_setupEhPh>:

//preenche o registrador RX_ADDR_Px da pipe associada, usando o(s) byte(s) em pointer
void NRF::RX_ADDR_Px_setup(uint8_t RX_Pipe,uint8_t* pointer){
 8000ff4:	b590      	push	{r4, r7, lr}
 8000ff6:	b087      	sub	sp, #28
 8000ff8:	af00      	add	r7, sp, #0
 8000ffa:	60f8      	str	r0, [r7, #12]
 8000ffc:	460b      	mov	r3, r1
 8000ffe:	607a      	str	r2, [r7, #4]
 8001000:	72fb      	strb	r3, [r7, #11]
	if(RX_Pipe == RX_Pipe_0)
 8001002:	7afb      	ldrb	r3, [r7, #11]
 8001004:	2b00      	cmp	r3, #0
 8001006:	d104      	bne.n	8001012 <_ZN3NRF16RX_ADDR_Px_setupEhPh+0x1e>
		RX_ADDR_P0_setup(pointer);
 8001008:	6879      	ldr	r1, [r7, #4]
 800100a:	68f8      	ldr	r0, [r7, #12]
 800100c:	f000 f822 	bl	8001054 <_ZN3NRF16RX_ADDR_P0_setupEPh>
		W_REGISTER(0x0a+RX_Pipe,1,pointer);

		int i;
		for (i=0;i<0xffff;i++);
	}
	return;
 8001010:	e01c      	b.n	800104c <_ZN3NRF16RX_ADDR_Px_setupEhPh+0x58>

//preenche o registrador RX_ADDR_Px da pipe associada, usando o(s) byte(s) em pointer
void NRF::RX_ADDR_Px_setup(uint8_t RX_Pipe,uint8_t* pointer){
	if(RX_Pipe == RX_Pipe_0)
		RX_ADDR_P0_setup(pointer);
	else if(RX_Pipe == RX_Pipe_1)
 8001012:	7afb      	ldrb	r3, [r7, #11]
 8001014:	2b01      	cmp	r3, #1
 8001016:	d104      	bne.n	8001022 <_ZN3NRF16RX_ADDR_Px_setupEhPh+0x2e>
		RX_ADDR_P1_setup(pointer);
 8001018:	6879      	ldr	r1, [r7, #4]
 800101a:	68f8      	ldr	r0, [r7, #12]
 800101c:	f000 f850 	bl	80010c0 <_ZN3NRF16RX_ADDR_P1_setupEPh>
		W_REGISTER(0x0a+RX_Pipe,1,pointer);

		int i;
		for (i=0;i<0xffff;i++);
	}
	return;
 8001020:	e014      	b.n	800104c <_ZN3NRF16RX_ADDR_Px_setupEhPh+0x58>
		RX_ADDR_P0_setup(pointer);
	else if(RX_Pipe == RX_Pipe_1)
		RX_ADDR_P1_setup(pointer);
	else{
		//TODO:melhorar a portabilidade, adicionar constantes com o endereço de cada registrador
		W_REGISTER(0x0a+RX_Pipe,1,pointer);
 8001022:	68fb      	ldr	r3, [r7, #12]
 8001024:	681b      	ldr	r3, [r3, #0]
 8001026:	681c      	ldr	r4, [r3, #0]
 8001028:	7afb      	ldrb	r3, [r7, #11]
 800102a:	330a      	adds	r3, #10
 800102c:	b2d9      	uxtb	r1, r3
 800102e:	687b      	ldr	r3, [r7, #4]
 8001030:	2201      	movs	r2, #1
 8001032:	68f8      	ldr	r0, [r7, #12]
 8001034:	47a0      	blx	r4

		int i;
		for (i=0;i<0xffff;i++);
 8001036:	2300      	movs	r3, #0
 8001038:	617b      	str	r3, [r7, #20]
 800103a:	697b      	ldr	r3, [r7, #20]
 800103c:	f64f 72fe 	movw	r2, #65534	; 0xfffe
 8001040:	4293      	cmp	r3, r2
 8001042:	dc03      	bgt.n	800104c <_ZN3NRF16RX_ADDR_Px_setupEhPh+0x58>
 8001044:	697b      	ldr	r3, [r7, #20]
 8001046:	3301      	adds	r3, #1
 8001048:	617b      	str	r3, [r7, #20]
 800104a:	e7f6      	b.n	800103a <_ZN3NRF16RX_ADDR_Px_setupEhPh+0x46>
	}
	return;
 800104c:	bf00      	nop
}//WORKED!
 800104e:	371c      	adds	r7, #28
 8001050:	46bd      	mov	sp, r7
 8001052:	bd90      	pop	{r4, r7, pc}

08001054 <_ZN3NRF16RX_ADDR_P0_setupEPh>:

//preenche o registrador RX_ADDR_P0 com os bytes em pointer, usa o número de bytes especificado por SETUP_AW
void NRF::RX_ADDR_P0_setup(uint8_t* pointer){
 8001054:	b590      	push	{r4, r7, lr}
 8001056:	b085      	sub	sp, #20
 8001058:	af00      	add	r7, sp, #0
 800105a:	6078      	str	r0, [r7, #4]
 800105c:	6039      	str	r1, [r7, #0]
	uint8_t size;
	//TODO:melhorar a portabilidade, adicionar constantes com o endereço de cada registrador
	R_REGISTER(0x03,1,&size);//lê SETUP_AW e armazena em size (OBS:SETUP_AW armazena armazena address_width - 2)
 800105e:	687b      	ldr	r3, [r7, #4]
 8001060:	681b      	ldr	r3, [r3, #0]
 8001062:	3304      	adds	r3, #4
 8001064:	681c      	ldr	r4, [r3, #0]
 8001066:	f107 030b 	add.w	r3, r7, #11
 800106a:	2201      	movs	r2, #1
 800106c:	2103      	movs	r1, #3
 800106e:	6878      	ldr	r0, [r7, #4]
 8001070:	47a0      	blx	r4

	//corrige os valores de size lidos
	if(size == AW_3_bytes)
 8001072:	7afb      	ldrb	r3, [r7, #11]
 8001074:	2b01      	cmp	r3, #1
 8001076:	d101      	bne.n	800107c <_ZN3NRF16RX_ADDR_P0_setupEPh+0x28>
		size = 3;
 8001078:	2303      	movs	r3, #3
 800107a:	72fb      	strb	r3, [r7, #11]
	if(size == AW_4_bytes)
 800107c:	7afb      	ldrb	r3, [r7, #11]
 800107e:	2b02      	cmp	r3, #2
 8001080:	d101      	bne.n	8001086 <_ZN3NRF16RX_ADDR_P0_setupEPh+0x32>
		size = 4;
 8001082:	2304      	movs	r3, #4
 8001084:	72fb      	strb	r3, [r7, #11]
	if(size == AW_5_bytes)
 8001086:	7afb      	ldrb	r3, [r7, #11]
 8001088:	2b03      	cmp	r3, #3
 800108a:	d101      	bne.n	8001090 <_ZN3NRF16RX_ADDR_P0_setupEPh+0x3c>
		size = 5;
 800108c:	2305      	movs	r3, #5
 800108e:	72fb      	strb	r3, [r7, #11]
	//TODO:melhorar a portabilidade, adicionar constantes com o endereço de cada registrador
	W_REGISTER(0x0a,size,pointer);
 8001090:	687b      	ldr	r3, [r7, #4]
 8001092:	681b      	ldr	r3, [r3, #0]
 8001094:	681c      	ldr	r4, [r3, #0]
 8001096:	7afa      	ldrb	r2, [r7, #11]
 8001098:	683b      	ldr	r3, [r7, #0]
 800109a:	210a      	movs	r1, #10
 800109c:	6878      	ldr	r0, [r7, #4]
 800109e:	47a0      	blx	r4
	for (int i=0;i<0xffff;i++);
 80010a0:	2300      	movs	r3, #0
 80010a2:	60fb      	str	r3, [r7, #12]
 80010a4:	68fb      	ldr	r3, [r7, #12]
 80010a6:	f64f 72fe 	movw	r2, #65534	; 0xfffe
 80010aa:	4293      	cmp	r3, r2
 80010ac:	dc03      	bgt.n	80010b6 <_ZN3NRF16RX_ADDR_P0_setupEPh+0x62>
 80010ae:	68fb      	ldr	r3, [r7, #12]
 80010b0:	3301      	adds	r3, #1
 80010b2:	60fb      	str	r3, [r7, #12]
 80010b4:	e7f6      	b.n	80010a4 <_ZN3NRF16RX_ADDR_P0_setupEPh+0x50>
	return;
 80010b6:	bf00      	nop
}//WORKED!
 80010b8:	3714      	adds	r7, #20
 80010ba:	46bd      	mov	sp, r7
 80010bc:	bd90      	pop	{r4, r7, pc}
 80010be:	bf00      	nop

080010c0 <_ZN3NRF16RX_ADDR_P1_setupEPh>:

//preenche o registrador RX_ADDR_P1 com os bytes em pointer, usa o número de bytes especificado por SETUP_AW
void NRF::RX_ADDR_P1_setup(uint8_t* pointer){
 80010c0:	b590      	push	{r4, r7, lr}
 80010c2:	b085      	sub	sp, #20
 80010c4:	af00      	add	r7, sp, #0
 80010c6:	6078      	str	r0, [r7, #4]
 80010c8:	6039      	str	r1, [r7, #0]
	uint8_t size;
	//TODO:melhorar a portabilidade, adicionar constantes com o endereço de cada registrador
	R_REGISTER(0x03,1,&size);//lê SETUP_AW e armazena em size (OBS:SETUP_AW armazena armazena address_width - 2)
 80010ca:	687b      	ldr	r3, [r7, #4]
 80010cc:	681b      	ldr	r3, [r3, #0]
 80010ce:	3304      	adds	r3, #4
 80010d0:	681c      	ldr	r4, [r3, #0]
 80010d2:	f107 030b 	add.w	r3, r7, #11
 80010d6:	2201      	movs	r2, #1
 80010d8:	2103      	movs	r1, #3
 80010da:	6878      	ldr	r0, [r7, #4]
 80010dc:	47a0      	blx	r4

	//corrige os valores de size lidos
	if(size == AW_3_bytes)
 80010de:	7afb      	ldrb	r3, [r7, #11]
 80010e0:	2b01      	cmp	r3, #1
 80010e2:	d101      	bne.n	80010e8 <_ZN3NRF16RX_ADDR_P1_setupEPh+0x28>
		size = 3;
 80010e4:	2303      	movs	r3, #3
 80010e6:	72fb      	strb	r3, [r7, #11]
	if(size == AW_4_bytes)
 80010e8:	7afb      	ldrb	r3, [r7, #11]
 80010ea:	2b02      	cmp	r3, #2
 80010ec:	d101      	bne.n	80010f2 <_ZN3NRF16RX_ADDR_P1_setupEPh+0x32>
		size = 4;
 80010ee:	2304      	movs	r3, #4
 80010f0:	72fb      	strb	r3, [r7, #11]
	if(size == AW_5_bytes)
 80010f2:	7afb      	ldrb	r3, [r7, #11]
 80010f4:	2b03      	cmp	r3, #3
 80010f6:	d101      	bne.n	80010fc <_ZN3NRF16RX_ADDR_P1_setupEPh+0x3c>
		size = 5;
 80010f8:	2305      	movs	r3, #5
 80010fa:	72fb      	strb	r3, [r7, #11]
	//TODO:melhorar a portabilidade, adicionar constantes com o endereço de cada registrador
	W_REGISTER(0x0b,size,pointer);
 80010fc:	687b      	ldr	r3, [r7, #4]
 80010fe:	681b      	ldr	r3, [r3, #0]
 8001100:	681c      	ldr	r4, [r3, #0]
 8001102:	7afa      	ldrb	r2, [r7, #11]
 8001104:	683b      	ldr	r3, [r7, #0]
 8001106:	210b      	movs	r1, #11
 8001108:	6878      	ldr	r0, [r7, #4]
 800110a:	47a0      	blx	r4
	for (int i=0;i<0xffff;i++);
 800110c:	2300      	movs	r3, #0
 800110e:	60fb      	str	r3, [r7, #12]
 8001110:	68fb      	ldr	r3, [r7, #12]
 8001112:	f64f 72fe 	movw	r2, #65534	; 0xfffe
 8001116:	4293      	cmp	r3, r2
 8001118:	dc03      	bgt.n	8001122 <_ZN3NRF16RX_ADDR_P1_setupEPh+0x62>
 800111a:	68fb      	ldr	r3, [r7, #12]
 800111c:	3301      	adds	r3, #1
 800111e:	60fb      	str	r3, [r7, #12]
 8001120:	e7f6      	b.n	8001110 <_ZN3NRF16RX_ADDR_P1_setupEPh+0x50>
	return;
 8001122:	bf00      	nop
}//WORKED!
 8001124:	3714      	adds	r7, #20
 8001126:	46bd      	mov	sp, r7
 8001128:	bd90      	pop	{r4, r7, pc}
 800112a:	bf00      	nop

0800112c <_ZN3NRF14RX_PW_Px_setupEhh>:

//escreve o registrador RX_PW_Px correspondente a pipe, grava payload_width
void NRF::RX_PW_Px_setup(uint8_t RX_Pipe, uint8_t payload_width){
 800112c:	b590      	push	{r4, r7, lr}
 800112e:	b085      	sub	sp, #20
 8001130:	af00      	add	r7, sp, #0
 8001132:	6078      	str	r0, [r7, #4]
 8001134:	460b      	mov	r3, r1
 8001136:	70fb      	strb	r3, [r7, #3]
 8001138:	4613      	mov	r3, r2
 800113a:	70bb      	strb	r3, [r7, #2]
	uint8_t pw = payload_width;
 800113c:	78bb      	ldrb	r3, [r7, #2]
 800113e:	72fb      	strb	r3, [r7, #11]

	//TODO:melhorar a portabilidade, adicionar constantes com o endereço de cada registrador
	W_REGISTER(0x11+RX_Pipe,1,&pw);
 8001140:	687b      	ldr	r3, [r7, #4]
 8001142:	681b      	ldr	r3, [r3, #0]
 8001144:	681c      	ldr	r4, [r3, #0]
 8001146:	78fb      	ldrb	r3, [r7, #3]
 8001148:	3311      	adds	r3, #17
 800114a:	b2d9      	uxtb	r1, r3
 800114c:	f107 030b 	add.w	r3, r7, #11
 8001150:	2201      	movs	r2, #1
 8001152:	6878      	ldr	r0, [r7, #4]
 8001154:	47a0      	blx	r4
	for (int i=0;i<0xffff;i++);
 8001156:	2300      	movs	r3, #0
 8001158:	60fb      	str	r3, [r7, #12]
 800115a:	68fb      	ldr	r3, [r7, #12]
 800115c:	f64f 72fe 	movw	r2, #65534	; 0xfffe
 8001160:	4293      	cmp	r3, r2
 8001162:	dc03      	bgt.n	800116c <_ZN3NRF14RX_PW_Px_setupEhh+0x40>
 8001164:	68fb      	ldr	r3, [r7, #12]
 8001166:	3301      	adds	r3, #1
 8001168:	60fb      	str	r3, [r7, #12]
 800116a:	e7f6      	b.n	800115a <_ZN3NRF14RX_PW_Px_setupEhh+0x2e>
	return;
 800116c:	bf00      	nop
}//WORKED!
 800116e:	3714      	adds	r7, #20
 8001170:	46bd      	mov	sp, r7
 8001172:	bd90      	pop	{r4, r7, pc}

08001174 <_ZN3NRF10DATA_READYEv>:

//retorna 1 se o NRF24 recebeu alguma coisa, retorna 0 se ainda não recebeu nada
uint8_t NRF::DATA_READY(void){
 8001174:	b590      	push	{r4, r7, lr}
 8001176:	b085      	sub	sp, #20
 8001178:	af00      	add	r7, sp, #0
 800117a:	6078      	str	r0, [r7, #4]
	uint8_t rx_empty=0;
 800117c:	2300      	movs	r3, #0
 800117e:	73fb      	strb	r3, [r7, #15]
	//passa aqui
	//NOP();
	R_REGISTER(0x17,1,&rx_empty);
 8001180:	687b      	ldr	r3, [r7, #4]
 8001182:	681b      	ldr	r3, [r3, #0]
 8001184:	3304      	adds	r3, #4
 8001186:	681c      	ldr	r4, [r3, #0]
 8001188:	f107 030f 	add.w	r3, r7, #15
 800118c:	2201      	movs	r2, #1
 800118e:	2117      	movs	r1, #23
 8001190:	6878      	ldr	r0, [r7, #4]
 8001192:	47a0      	blx	r4
	STM_EVAL_LEDOn(LED5);
 8001194:	2002      	movs	r0, #2
 8001196:	f000 ffab 	bl	80020f0 <STM_EVAL_LEDOn>
	//não passa aqui
	rx_empty &= RX_EMPTY_MASK;
 800119a:	7bfb      	ldrb	r3, [r7, #15]
 800119c:	f003 0301 	and.w	r3, r3, #1
 80011a0:	b2db      	uxtb	r3, r3
 80011a2:	73fb      	strb	r3, [r7, #15]
	R_REGISTER(0x07,1,&rx_dr);
	for (i=0;i<0xffff;i++);
	rx_dr &= RX_DR_MASK;*/

//	if(rx_dr || !rx_empty){
	if(!rx_empty){//TODO: contornar o problema de não conseguir resetar flag RX_DR
 80011a4:	7bfb      	ldrb	r3, [r7, #15]
 80011a6:	2b00      	cmp	r3, #0
 80011a8:	d101      	bne.n	80011ae <_ZN3NRF10DATA_READYEv+0x3a>
		return 1;
 80011aa:	2301      	movs	r3, #1
 80011ac:	e000      	b.n	80011b0 <_ZN3NRF10DATA_READYEv+0x3c>
	}
	else
		return 0;
 80011ae:	2300      	movs	r3, #0
}
 80011b0:	4618      	mov	r0, r3
 80011b2:	3714      	adds	r7, #20
 80011b4:	46bd      	mov	sp, r7
 80011b6:	bd90      	pop	{r4, r7, pc}

080011b8 <_ZN3NRF12start_listenEv>:
	ASSERT_CE(RESET);

	return TRANSMITTED();
}

void NRF::start_listen(){
 80011b8:	b580      	push	{r7, lr}
 80011ba:	b082      	sub	sp, #8
 80011bc:	af00      	add	r7, sp, #0
 80011be:	6078      	str	r0, [r7, #4]
	ASSERT_CE(SET);
 80011c0:	2101      	movs	r1, #1
 80011c2:	6878      	ldr	r0, [r7, #4]
 80011c4:	f7ff fdaa 	bl	8000d1c <_ZN3NRF9ASSERT_CEEi>
	return;
 80011c8:	bf00      	nop
}
 80011ca:	3708      	adds	r7, #8
 80011cc:	46bd      	mov	sp, r7
 80011ce:	bd80      	pop	{r7, pc}

080011d0 <_ZN3NRF11stop_listenEv>:

void NRF::stop_listen(){
 80011d0:	b580      	push	{r7, lr}
 80011d2:	b082      	sub	sp, #8
 80011d4:	af00      	add	r7, sp, #0
 80011d6:	6078      	str	r0, [r7, #4]
	ASSERT_CE(RESET);
 80011d8:	2100      	movs	r1, #0
 80011da:	6878      	ldr	r0, [r7, #4]
 80011dc:	f7ff fd9e 	bl	8000d1c <_ZN3NRF9ASSERT_CEEi>
	return;
 80011e0:	bf00      	nop
}
 80011e2:	3708      	adds	r7, #8
 80011e4:	46bd      	mov	sp, r7
 80011e6:	bd80      	pop	{r7, pc}

080011e8 <_ZN3NRF7RECEIVEEPh>:

//data: ponteiro para os bytes a serem transmitidos; size: número de bytes a enviar
//retorna 1 se o NRF24 enviou alguma coisa(recebeu o ACK, caso esteja habilitado), retorna 0 se ainda não conseguiu enviar(ou não recebeu o ACK, caso esteja habilitado)
uint8_t NRF::RECEIVE(uint8_t* data){
 80011e8:	b580      	push	{r7, lr}
 80011ea:	b082      	sub	sp, #8
 80011ec:	af00      	add	r7, sp, #0
 80011ee:	6078      	str	r0, [r7, #4]
 80011f0:	6039      	str	r1, [r7, #0]
	//start_listen();//TODO: SHOULD I REMOVE THIS?
	//passa aqui

	while(!DATA_READY()){
 80011f2:	6878      	ldr	r0, [r7, #4]
 80011f4:	f7ff ffbe 	bl	8001174 <_ZN3NRF10DATA_READYEv>
 80011f8:	4603      	mov	r3, r0
 80011fa:	2b00      	cmp	r3, #0
 80011fc:	bf0c      	ite	eq
 80011fe:	2301      	moveq	r3, #1
 8001200:	2300      	movne	r3, #0
 8001202:	b2db      	uxtb	r3, r3
 8001204:	2b00      	cmp	r3, #0
 8001206:	d006      	beq.n	8001216 <_ZN3NRF7RECEIVEEPh+0x2e>
		//não chega aqui
		STM_EVAL_LEDToggle(LED3);//TODO REMOVER APÓS DEBUG
 8001208:	2001      	movs	r0, #1
 800120a:	f000 ffa1 	bl	8002150 <STM_EVAL_LEDToggle>
		Delay_ms(250);//TODO REMOVER APÓS DEBUG
 800120e:	20fa      	movs	r0, #250	; 0xfa
 8001210:	f000 f93e 	bl	8001490 <_Z8Delay_msm>
//retorna 1 se o NRF24 enviou alguma coisa(recebeu o ACK, caso esteja habilitado), retorna 0 se ainda não conseguiu enviar(ou não recebeu o ACK, caso esteja habilitado)
uint8_t NRF::RECEIVE(uint8_t* data){
	//start_listen();//TODO: SHOULD I REMOVE THIS?
	//passa aqui

	while(!DATA_READY()){
 8001214:	e7ed      	b.n	80011f2 <_ZN3NRF7RECEIVEEPh+0xa>
		Delay_ms(250);//TODO REMOVER APÓS DEBUG
	}

	//espera até receber algo

	stop_listen();//TODO: SHOULD I REMOVE THIS?
 8001216:	6878      	ldr	r0, [r7, #4]
 8001218:	f7ff ffda 	bl	80011d0 <_ZN3NRF11stop_listenEv>
	READ_RX_FIFO(data);
 800121c:	6839      	ldr	r1, [r7, #0]
 800121e:	6878      	ldr	r0, [r7, #4]
 8001220:	f000 f806 	bl	8001230 <_ZN3NRF12READ_RX_FIFOEPh>

	return 1;
 8001224:	2301      	movs	r3, #1
}
 8001226:	4618      	mov	r0, r3
 8001228:	3708      	adds	r7, #8
 800122a:	46bd      	mov	sp, r7
 800122c:	bd80      	pop	{r7, pc}
 800122e:	bf00      	nop

08001230 <_ZN3NRF12READ_RX_FIFOEPh>:

//lê a payload no topo da RX_FIFO
//pointer: local aonde a mensagem será gravada
void NRF::READ_RX_FIFO(uint8_t* pointer){
 8001230:	b590      	push	{r4, r7, lr}
 8001232:	b08b      	sub	sp, #44	; 0x2c
 8001234:	af02      	add	r7, sp, #8
 8001236:	6078      	str	r0, [r7, #4]
 8001238:	6039      	str	r1, [r7, #0]
	//descobre qual pipe recebeu o pacote
	uint8_t RX_Pipe = GET_PIPE_FOR_READING();
 800123a:	6878      	ldr	r0, [r7, #4]
 800123c:	f000 f860 	bl	8001300 <_ZN3NRF20GET_PIPE_FOR_READINGEv>
 8001240:	4603      	mov	r3, r0
 8001242:	73fb      	strb	r3, [r7, #15]

	//TODO:fix NRF_R_RX_PAYLOAD()
	//lê o RX_PW_Px correspondente àquela pipe
	uint8_t payload_length;
	R_REGISTER(0x11+RX_Pipe,1,&payload_length);
 8001244:	687b      	ldr	r3, [r7, #4]
 8001246:	681b      	ldr	r3, [r3, #0]
 8001248:	3304      	adds	r3, #4
 800124a:	681c      	ldr	r4, [r3, #0]
 800124c:	7bfb      	ldrb	r3, [r7, #15]
 800124e:	3311      	adds	r3, #17
 8001250:	b2d9      	uxtb	r1, r3
 8001252:	f107 030e 	add.w	r3, r7, #14
 8001256:	2201      	movs	r2, #1
 8001258:	6878      	ldr	r0, [r7, #4]
 800125a:	47a0      	blx	r4
	for (int i=0;i<0xffff;i++);
 800125c:	2300      	movs	r3, #0
 800125e:	61fb      	str	r3, [r7, #28]
 8001260:	69fb      	ldr	r3, [r7, #28]
 8001262:	f64f 72fe 	movw	r2, #65534	; 0xfffe
 8001266:	4293      	cmp	r3, r2
 8001268:	dc03      	bgt.n	8001272 <_ZN3NRF12READ_RX_FIFOEPh+0x42>
 800126a:	69fb      	ldr	r3, [r7, #28]
 800126c:	3301      	adds	r3, #1
 800126e:	61fb      	str	r3, [r7, #28]
 8001270:	e7f6      	b.n	8001260 <_ZN3NRF12READ_RX_FIFOEPh+0x30>

	CMD(0x61,payload_length,0x00,pointer);//comando R_RX_PLD
 8001272:	687b      	ldr	r3, [r7, #4]
 8001274:	f103 00bc 	add.w	r0, r3, #188	; 0xbc
 8001278:	7bba      	ldrb	r2, [r7, #14]
 800127a:	683b      	ldr	r3, [r7, #0]
 800127c:	9300      	str	r3, [sp, #0]
 800127e:	2300      	movs	r3, #0
 8001280:	2161      	movs	r1, #97	; 0x61
 8001282:	f7ff f92d 	bl	80004e0 <_ZN3SPI3CMDEhhPhS0_>
	for (int i=0;i<0xffff;i++);
 8001286:	2300      	movs	r3, #0
 8001288:	61bb      	str	r3, [r7, #24]
 800128a:	69bb      	ldr	r3, [r7, #24]
 800128c:	f64f 72fe 	movw	r2, #65534	; 0xfffe
 8001290:	4293      	cmp	r3, r2
 8001292:	dc03      	bgt.n	800129c <_ZN3NRF12READ_RX_FIFOEPh+0x6c>
 8001294:	69bb      	ldr	r3, [r7, #24]
 8001296:	3301      	adds	r3, #1
 8001298:	61bb      	str	r3, [r7, #24]
 800129a:	e7f6      	b.n	800128a <_ZN3NRF12READ_RX_FIFOEPh+0x5a>

	//TODO: importar modificação para o RX_unif_functions
	//reseta a flag RX_DR para que IRQ possa subir de novo
	uint8_t status;
	R_REGISTER(0x07,1,&status);
 800129c:	687b      	ldr	r3, [r7, #4]
 800129e:	681b      	ldr	r3, [r3, #0]
 80012a0:	3304      	adds	r3, #4
 80012a2:	681c      	ldr	r4, [r3, #0]
 80012a4:	f107 030d 	add.w	r3, r7, #13
 80012a8:	2201      	movs	r2, #1
 80012aa:	2107      	movs	r1, #7
 80012ac:	6878      	ldr	r0, [r7, #4]
 80012ae:	47a0      	blx	r4
	for (int i=0;i<0xffff;i++);
 80012b0:	2300      	movs	r3, #0
 80012b2:	617b      	str	r3, [r7, #20]
 80012b4:	697b      	ldr	r3, [r7, #20]
 80012b6:	f64f 72fe 	movw	r2, #65534	; 0xfffe
 80012ba:	4293      	cmp	r3, r2
 80012bc:	dc03      	bgt.n	80012c6 <_ZN3NRF12READ_RX_FIFOEPh+0x96>
 80012be:	697b      	ldr	r3, [r7, #20]
 80012c0:	3301      	adds	r3, #1
 80012c2:	617b      	str	r3, [r7, #20]
 80012c4:	e7f6      	b.n	80012b4 <_ZN3NRF12READ_RX_FIFOEPh+0x84>

	status |= RX_DR_MASK;
 80012c6:	7b7b      	ldrb	r3, [r7, #13]
 80012c8:	f043 0340 	orr.w	r3, r3, #64	; 0x40
 80012cc:	b2db      	uxtb	r3, r3
 80012ce:	737b      	strb	r3, [r7, #13]
	W_REGISTER(0x07,1,&status);//Write 1 to clear RX_DR bit.
 80012d0:	687b      	ldr	r3, [r7, #4]
 80012d2:	681b      	ldr	r3, [r3, #0]
 80012d4:	681c      	ldr	r4, [r3, #0]
 80012d6:	f107 030d 	add.w	r3, r7, #13
 80012da:	2201      	movs	r2, #1
 80012dc:	2107      	movs	r1, #7
 80012de:	6878      	ldr	r0, [r7, #4]
 80012e0:	47a0      	blx	r4

	for (int i=0;i<0xffff;i++);
 80012e2:	2300      	movs	r3, #0
 80012e4:	613b      	str	r3, [r7, #16]
 80012e6:	693b      	ldr	r3, [r7, #16]
 80012e8:	f64f 72fe 	movw	r2, #65534	; 0xfffe
 80012ec:	4293      	cmp	r3, r2
 80012ee:	dc03      	bgt.n	80012f8 <_ZN3NRF12READ_RX_FIFOEPh+0xc8>
 80012f0:	693b      	ldr	r3, [r7, #16]
 80012f2:	3301      	adds	r3, #1
 80012f4:	613b      	str	r3, [r7, #16]
 80012f6:	e7f6      	b.n	80012e6 <_ZN3NRF12READ_RX_FIFOEPh+0xb6>
	return;
 80012f8:	bf00      	nop
}
 80012fa:	3724      	adds	r7, #36	; 0x24
 80012fc:	46bd      	mov	sp, r7
 80012fe:	bd90      	pop	{r4, r7, pc}

08001300 <_ZN3NRF20GET_PIPE_FOR_READINGEv>:

//retorna a pipe que recebeu o pacote disponível para leitura
uint8_t NRF::GET_PIPE_FOR_READING(void){
 8001300:	b580      	push	{r7, lr}
 8001302:	b084      	sub	sp, #16
 8001304:	af00      	add	r7, sp, #0
 8001306:	6078      	str	r0, [r7, #4]
	uint8_t status = NOP();
 8001308:	687b      	ldr	r3, [r7, #4]
 800130a:	33bc      	adds	r3, #188	; 0xbc
 800130c:	4618      	mov	r0, r3
 800130e:	f7ff f9e3 	bl	80006d8 <_ZN3SPI3NOPEv>
 8001312:	4603      	mov	r3, r0
 8001314:	73fb      	strb	r3, [r7, #15]
	uint8_t pipe_number = (status && RX_P_NO_MASK) >> 1;
 8001316:	2300      	movs	r3, #0
 8001318:	73bb      	strb	r3, [r7, #14]
	return  pipe_number;
 800131a:	7bbb      	ldrb	r3, [r7, #14]
}
 800131c:	4618      	mov	r0, r3
 800131e:	3710      	adds	r7, #16
 8001320:	46bd      	mov	sp, r7
 8001322:	bd80      	pop	{r7, pc}

08001324 <_ZN3NRF12RX_configureEv>:

//produz uma  struct de  configuração com "valores default"
void NRF::RX_configure(){
 8001324:	b580      	push	{r7, lr}
 8001326:	b090      	sub	sp, #64	; 0x40
 8001328:	af00      	add	r7, sp, #0
 800132a:	6078      	str	r0, [r7, #4]
	uint8_t myAddress[]={0xe7,0xe7,0xe7,0xe7,0xe7};
 800132c:	4a10      	ldr	r2, [pc, #64]	; (8001370 <_ZN3NRF12RX_configureEv+0x4c>)
 800132e:	f107 0338 	add.w	r3, r7, #56	; 0x38
 8001332:	6810      	ldr	r0, [r2, #0]
 8001334:	6018      	str	r0, [r3, #0]
 8001336:	7912      	ldrb	r2, [r2, #4]
 8001338:	711a      	strb	r2, [r3, #4]

	config_Struct configuration;
	configuration.AW_x_bytes=AW_5_bytes;
 800133a:	2303      	movs	r3, #3
 800133c:	73fb      	strb	r3, [r7, #15]
	configuration.ENAA_Px=ENAA_Disable_All_Pipes;
 800133e:	2300      	movs	r3, #0
 8001340:	737b      	strb	r3, [r7, #13]
	configuration.ERX_Px=ERX_P0;
 8001342:	2301      	movs	r3, #1
 8001344:	73bb      	strb	r3, [r7, #14]
	configuration.RETR_ARC_and_ARD=RETR_ARC_DISABLE_RETRANSMIT;//TODO: alterar AutoACK option
 8001346:	2300      	movs	r3, #0
 8001348:	743b      	strb	r3, [r7, #16]
	configuration.RF_SETUP=RF_SETUP_Data_Rate_2Mbps;
 800134a:	2308      	movs	r3, #8
 800134c:	747b      	strb	r3, [r7, #17]
	configuration.channel=0x02;
 800134e:	2302      	movs	r3, #2
 8001350:	733b      	strb	r3, [r7, #12]
	configuration.RX_ADDR_P0=myAddress;
 8001352:	f107 0338 	add.w	r3, r7, #56	; 0x38
 8001356:	623b      	str	r3, [r7, #32]
	configuration.payload_width_pipe_0=5;
 8001358:	2305      	movs	r3, #5
 800135a:	763b      	strb	r3, [r7, #24]

	RX_configure(&configuration);
 800135c:	f107 030c 	add.w	r3, r7, #12
 8001360:	4619      	mov	r1, r3
 8001362:	6878      	ldr	r0, [r7, #4]
 8001364:	f000 f806 	bl	8001374 <_ZN3NRF12RX_configureEP13config_Struct>

	return;
 8001368:	bf00      	nop
}
 800136a:	3740      	adds	r7, #64	; 0x40
 800136c:	46bd      	mov	sp, r7
 800136e:	bd80      	pop	{r7, pc}
 8001370:	08006608 	.word	0x08006608

08001374 <_ZN3NRF12RX_configureEP13config_Struct>:

//recebe uma struct de configuração do modo de recepção e altera os valores do registradores correspondentes
//TODO: incluir a configuração dos endereço da(s) pipe(s)
void NRF::RX_configure(config_Struct* pointer){
 8001374:	b580      	push	{r7, lr}
 8001376:	b086      	sub	sp, #24
 8001378:	af00      	add	r7, sp, #0
 800137a:	6078      	str	r0, [r7, #4]
 800137c:	6039      	str	r1, [r7, #0]
	stdbyI_to_RX(pointer->channel);//writes CONFIG and RF_CH registers
 800137e:	683b      	ldr	r3, [r7, #0]
 8001380:	781b      	ldrb	r3, [r3, #0]
 8001382:	4619      	mov	r1, r3
 8001384:	6878      	ldr	r0, [r7, #4]
 8001386:	f7ff fd37 	bl	8000df8 <_ZN3NRF12stdbyI_to_RXEh>

	EN_AA_setup(pointer->ENAA_Px);
 800138a:	683b      	ldr	r3, [r7, #0]
 800138c:	785b      	ldrb	r3, [r3, #1]
 800138e:	4619      	mov	r1, r3
 8001390:	6878      	ldr	r0, [r7, #4]
 8001392:	f7ff fd6f 	bl	8000e74 <_ZN3NRF11EN_AA_setupEh>

	EN_RXADDR_setup(pointer->ERX_Px);
 8001396:	683b      	ldr	r3, [r7, #0]
 8001398:	789b      	ldrb	r3, [r3, #2]
 800139a:	4619      	mov	r1, r3
 800139c:	6878      	ldr	r0, [r7, #4]
 800139e:	f7ff fd89 	bl	8000eb4 <_ZN3NRF15EN_RXADDR_setupEh>

	SETUP_AW_setup(pointer->AW_x_bytes);
 80013a2:	683b      	ldr	r3, [r7, #0]
 80013a4:	78db      	ldrb	r3, [r3, #3]
 80013a6:	4619      	mov	r1, r3
 80013a8:	6878      	ldr	r0, [r7, #4]
 80013aa:	f7ff fda3 	bl	8000ef4 <_ZN3NRF14SETUP_AW_setupEh>

	SETUP_RETR_setup(pointer->RETR_ARC_and_ARD);
 80013ae:	683b      	ldr	r3, [r7, #0]
 80013b0:	791b      	ldrb	r3, [r3, #4]
 80013b2:	4619      	mov	r1, r3
 80013b4:	6878      	ldr	r0, [r7, #4]
 80013b6:	f7ff fdbd 	bl	8000f34 <_ZN3NRF16SETUP_RETR_setupEh>

	RF_SETUP_setup(pointer->RF_SETUP);
 80013ba:	683b      	ldr	r3, [r7, #0]
 80013bc:	795b      	ldrb	r3, [r3, #5]
 80013be:	4619      	mov	r1, r3
 80013c0:	6878      	ldr	r0, [r7, #4]
 80013c2:	f7ff fdf7 	bl	8000fb4 <_ZN3NRF14RF_SETUP_setupEh>

	//TODO: fazer a verificação de quais as pipes precisam ser configuradas e quais as payloads de cada uma
	uint8_t* payload_width_pointer = &(pointer->payload_width_pipe_0);
 80013c6:	683b      	ldr	r3, [r7, #0]
 80013c8:	330c      	adds	r3, #12
 80013ca:	617b      	str	r3, [r7, #20]
	int i;
	for(i=RX_Pipe_0;i<=RX_Pipe_5;i++){
 80013cc:	2300      	movs	r3, #0
 80013ce:	613b      	str	r3, [r7, #16]
 80013d0:	693b      	ldr	r3, [r7, #16]
 80013d2:	2b05      	cmp	r3, #5
 80013d4:	dc18      	bgt.n	8001408 <_ZN3NRF12RX_configureEP13config_Struct+0x94>
		if((pointer->ERX_Px) & (1 << i)){//verifica se a pipe i está habilitada
 80013d6:	683b      	ldr	r3, [r7, #0]
 80013d8:	789b      	ldrb	r3, [r3, #2]
 80013da:	461a      	mov	r2, r3
 80013dc:	693b      	ldr	r3, [r7, #16]
 80013de:	fa42 f303 	asr.w	r3, r2, r3
 80013e2:	f003 0301 	and.w	r3, r3, #1
 80013e6:	2b00      	cmp	r3, #0
 80013e8:	d007      	beq.n	80013fa <_ZN3NRF12RX_configureEP13config_Struct+0x86>
			RX_PW_Px_setup(i, *payload_width_pointer);//configura o tamanho da payload da pipe i
 80013ea:	693b      	ldr	r3, [r7, #16]
 80013ec:	b2d9      	uxtb	r1, r3
 80013ee:	697b      	ldr	r3, [r7, #20]
 80013f0:	781b      	ldrb	r3, [r3, #0]
 80013f2:	461a      	mov	r2, r3
 80013f4:	6878      	ldr	r0, [r7, #4]
 80013f6:	f7ff fe99 	bl	800112c <_ZN3NRF14RX_PW_Px_setupEhh>
		}
		payload_width_pointer++;//passa a apontar para a próxima variável payload_width_pipe_x da struct
 80013fa:	697b      	ldr	r3, [r7, #20]
 80013fc:	3301      	adds	r3, #1
 80013fe:	617b      	str	r3, [r7, #20]
	RF_SETUP_setup(pointer->RF_SETUP);

	//TODO: fazer a verificação de quais as pipes precisam ser configuradas e quais as payloads de cada uma
	uint8_t* payload_width_pointer = &(pointer->payload_width_pipe_0);
	int i;
	for(i=RX_Pipe_0;i<=RX_Pipe_5;i++){
 8001400:	693b      	ldr	r3, [r7, #16]
 8001402:	3301      	adds	r3, #1
 8001404:	613b      	str	r3, [r7, #16]
 8001406:	e7e3      	b.n	80013d0 <_ZN3NRF12RX_configureEP13config_Struct+0x5c>
			RX_PW_Px_setup(i, *payload_width_pointer);//configura o tamanho da payload da pipe i
		}
		payload_width_pointer++;//passa a apontar para a próxima variável payload_width_pipe_x da struct
	}

	uint8_t** RX_ADDR_Px_pointer = &(pointer->RX_ADDR_P0);//RX_ADDR_Px_pointer é ponteiro para os RX_ADDR_Px
 8001408:	683b      	ldr	r3, [r7, #0]
 800140a:	3314      	adds	r3, #20
 800140c:	60fb      	str	r3, [r7, #12]

	//TODO: melhorar a implementação, para só escrever os registradores que realmente precisam ser configurados
	for(i=RX_Pipe_0;i<=RX_Pipe_5;i++){
 800140e:	2300      	movs	r3, #0
 8001410:	613b      	str	r3, [r7, #16]
 8001412:	693b      	ldr	r3, [r7, #16]
 8001414:	2b05      	cmp	r3, #5
 8001416:	dc18      	bgt.n	800144a <_ZN3NRF12RX_configureEP13config_Struct+0xd6>
		if((pointer->ERX_Px) & (1 << i)){//verifica se a pipe i está habilitada
 8001418:	683b      	ldr	r3, [r7, #0]
 800141a:	789b      	ldrb	r3, [r3, #2]
 800141c:	461a      	mov	r2, r3
 800141e:	693b      	ldr	r3, [r7, #16]
 8001420:	fa42 f303 	asr.w	r3, r2, r3
 8001424:	f003 0301 	and.w	r3, r3, #1
 8001428:	2b00      	cmp	r3, #0
 800142a:	d007      	beq.n	800143c <_ZN3NRF12RX_configureEP13config_Struct+0xc8>
			RX_ADDR_Px_setup(i,*RX_ADDR_Px_pointer);//configura o endereço da pipe i
 800142c:	693b      	ldr	r3, [r7, #16]
 800142e:	b2d9      	uxtb	r1, r3
 8001430:	68fb      	ldr	r3, [r7, #12]
 8001432:	681b      	ldr	r3, [r3, #0]
 8001434:	461a      	mov	r2, r3
 8001436:	6878      	ldr	r0, [r7, #4]
 8001438:	f7ff fddc 	bl	8000ff4 <_ZN3NRF16RX_ADDR_Px_setupEhPh>
		}
		RX_ADDR_Px_pointer++;//passa a apontar para o próximo RX_ADDR_Px da struct
 800143c:	68fb      	ldr	r3, [r7, #12]
 800143e:	3304      	adds	r3, #4
 8001440:	60fb      	str	r3, [r7, #12]
	}

	uint8_t** RX_ADDR_Px_pointer = &(pointer->RX_ADDR_P0);//RX_ADDR_Px_pointer é ponteiro para os RX_ADDR_Px

	//TODO: melhorar a implementação, para só escrever os registradores que realmente precisam ser configurados
	for(i=RX_Pipe_0;i<=RX_Pipe_5;i++){
 8001442:	693b      	ldr	r3, [r7, #16]
 8001444:	3301      	adds	r3, #1
 8001446:	613b      	str	r3, [r7, #16]
 8001448:	e7e3      	b.n	8001412 <_ZN3NRF12RX_configureEP13config_Struct+0x9e>
			RX_ADDR_Px_setup(i,*RX_ADDR_Px_pointer);//configura o endereço da pipe i
		}
		RX_ADDR_Px_pointer++;//passa a apontar para o próximo RX_ADDR_Px da struct
	}

	return;
 800144a:	bf00      	nop
}
 800144c:	3718      	adds	r7, #24
 800144e:	46bd      	mov	sp, r7
 8001450:	bd80      	pop	{r7, pc}
 8001452:	bf00      	nop

08001454 <_Z21TimingDelay_Decrementv>:
#include "stm32f4xx_gpio.h"

static __IO uint32_t TimingDelay;//número de ms que faltam

void TimingDelay_Decrement(void)
{
 8001454:	b480      	push	{r7}
 8001456:	af00      	add	r7, sp, #0
  if (TimingDelay != 0x00)
 8001458:	4b09      	ldr	r3, [pc, #36]	; (8001480 <_Z21TimingDelay_Decrementv+0x2c>)
 800145a:	681b      	ldr	r3, [r3, #0]
 800145c:	2b00      	cmp	r3, #0
 800145e:	bf14      	ite	ne
 8001460:	2301      	movne	r3, #1
 8001462:	2300      	moveq	r3, #0
 8001464:	b2db      	uxtb	r3, r3
 8001466:	2b00      	cmp	r3, #0
 8001468:	d004      	beq.n	8001474 <_Z21TimingDelay_Decrementv+0x20>
  {
    TimingDelay--;
 800146a:	4b05      	ldr	r3, [pc, #20]	; (8001480 <_Z21TimingDelay_Decrementv+0x2c>)
 800146c:	681b      	ldr	r3, [r3, #0]
 800146e:	3b01      	subs	r3, #1
 8001470:	4a03      	ldr	r2, [pc, #12]	; (8001480 <_Z21TimingDelay_Decrementv+0x2c>)
 8001472:	6013      	str	r3, [r2, #0]

  }
}
 8001474:	bf00      	nop
 8001476:	46bd      	mov	sp, r7
 8001478:	f85d 7b04 	ldr.w	r7, [sp], #4
 800147c:	4770      	bx	lr
 800147e:	bf00      	nop
 8001480:	200001b8 	.word	0x200001b8

08001484 <SysTick_Handler>:
 * para que seja tratado como código C, gere  uma função de mesmo nome, etc.
 * e  por que dava errado se adicionasse no stm32f4xx_it.h
 */
extern "C"{
	void SysTick_Handler(void)
	{
 8001484:	b580      	push	{r7, lr}
 8001486:	af00      	add	r7, sp, #0
		 TimingDelay_Decrement();
 8001488:	f7ff ffe4 	bl	8001454 <_Z21TimingDelay_Decrementv>
	}
 800148c:	bf00      	nop
 800148e:	bd80      	pop	{r7, pc}

08001490 <_Z8Delay_msm>:
}//fim do extern "C" {}

void Delay_ms(uint32_t time)
{
 8001490:	b480      	push	{r7}
 8001492:	b083      	sub	sp, #12
 8001494:	af00      	add	r7, sp, #0
 8001496:	6078      	str	r0, [r7, #4]
    TimingDelay = time;
 8001498:	4a09      	ldr	r2, [pc, #36]	; (80014c0 <_Z8Delay_msm+0x30>)
 800149a:	687b      	ldr	r3, [r7, #4]
 800149c:	6013      	str	r3, [r2, #0]

  while(TimingDelay != 0);
 800149e:	4b08      	ldr	r3, [pc, #32]	; (80014c0 <_Z8Delay_msm+0x30>)
 80014a0:	681b      	ldr	r3, [r3, #0]
 80014a2:	2b00      	cmp	r3, #0
 80014a4:	bf14      	ite	ne
 80014a6:	2301      	movne	r3, #1
 80014a8:	2300      	moveq	r3, #0
 80014aa:	b2db      	uxtb	r3, r3
 80014ac:	2b00      	cmp	r3, #0
 80014ae:	d000      	beq.n	80014b2 <_Z8Delay_msm+0x22>
 80014b0:	e7f5      	b.n	800149e <_Z8Delay_msm+0xe>
}
 80014b2:	bf00      	nop
 80014b4:	370c      	adds	r7, #12
 80014b6:	46bd      	mov	sp, r7
 80014b8:	f85d 7b04 	ldr.w	r7, [sp], #4
 80014bc:	4770      	bx	lr
 80014be:	bf00      	nop
 80014c0:	200001b8 	.word	0x200001b8

080014c4 <_Z14GPIO_Clock_CmdP12GPIO_TypeDef15FunctionalState>:
}

/*
 * Enables or disables the peripheral clock associated with GPIOx
 */
int GPIO_Clock_Cmd(GPIO_TypeDef* GPIOx, FunctionalState STATE){
 80014c4:	b580      	push	{r7, lr}
 80014c6:	b082      	sub	sp, #8
 80014c8:	af00      	add	r7, sp, #0
 80014ca:	6078      	str	r0, [r7, #4]
 80014cc:	460b      	mov	r3, r1
 80014ce:	70fb      	strb	r3, [r7, #3]
	if(!IS_GPIO_ALL_PERIPH(GPIOx)){
 80014d0:	687b      	ldr	r3, [r7, #4]
 80014d2:	4a42      	ldr	r2, [pc, #264]	; (80015dc <_Z14GPIO_Clock_CmdP12GPIO_TypeDef15FunctionalState+0x118>)
 80014d4:	4293      	cmp	r3, r2
 80014d6:	d022      	beq.n	800151e <_Z14GPIO_Clock_CmdP12GPIO_TypeDef15FunctionalState+0x5a>
 80014d8:	687b      	ldr	r3, [r7, #4]
 80014da:	4a41      	ldr	r2, [pc, #260]	; (80015e0 <_Z14GPIO_Clock_CmdP12GPIO_TypeDef15FunctionalState+0x11c>)
 80014dc:	4293      	cmp	r3, r2
 80014de:	d01e      	beq.n	800151e <_Z14GPIO_Clock_CmdP12GPIO_TypeDef15FunctionalState+0x5a>
 80014e0:	687b      	ldr	r3, [r7, #4]
 80014e2:	4a40      	ldr	r2, [pc, #256]	; (80015e4 <_Z14GPIO_Clock_CmdP12GPIO_TypeDef15FunctionalState+0x120>)
 80014e4:	4293      	cmp	r3, r2
 80014e6:	d01a      	beq.n	800151e <_Z14GPIO_Clock_CmdP12GPIO_TypeDef15FunctionalState+0x5a>
 80014e8:	687b      	ldr	r3, [r7, #4]
 80014ea:	4a3f      	ldr	r2, [pc, #252]	; (80015e8 <_Z14GPIO_Clock_CmdP12GPIO_TypeDef15FunctionalState+0x124>)
 80014ec:	4293      	cmp	r3, r2
 80014ee:	d016      	beq.n	800151e <_Z14GPIO_Clock_CmdP12GPIO_TypeDef15FunctionalState+0x5a>
 80014f0:	687b      	ldr	r3, [r7, #4]
 80014f2:	4a3e      	ldr	r2, [pc, #248]	; (80015ec <_Z14GPIO_Clock_CmdP12GPIO_TypeDef15FunctionalState+0x128>)
 80014f4:	4293      	cmp	r3, r2
 80014f6:	d012      	beq.n	800151e <_Z14GPIO_Clock_CmdP12GPIO_TypeDef15FunctionalState+0x5a>
 80014f8:	687b      	ldr	r3, [r7, #4]
 80014fa:	4a3d      	ldr	r2, [pc, #244]	; (80015f0 <_Z14GPIO_Clock_CmdP12GPIO_TypeDef15FunctionalState+0x12c>)
 80014fc:	4293      	cmp	r3, r2
 80014fe:	d00e      	beq.n	800151e <_Z14GPIO_Clock_CmdP12GPIO_TypeDef15FunctionalState+0x5a>
 8001500:	687b      	ldr	r3, [r7, #4]
 8001502:	4a3c      	ldr	r2, [pc, #240]	; (80015f4 <_Z14GPIO_Clock_CmdP12GPIO_TypeDef15FunctionalState+0x130>)
 8001504:	4293      	cmp	r3, r2
 8001506:	d00a      	beq.n	800151e <_Z14GPIO_Clock_CmdP12GPIO_TypeDef15FunctionalState+0x5a>
 8001508:	687b      	ldr	r3, [r7, #4]
 800150a:	4a3b      	ldr	r2, [pc, #236]	; (80015f8 <_Z14GPIO_Clock_CmdP12GPIO_TypeDef15FunctionalState+0x134>)
 800150c:	4293      	cmp	r3, r2
 800150e:	d006      	beq.n	800151e <_Z14GPIO_Clock_CmdP12GPIO_TypeDef15FunctionalState+0x5a>
 8001510:	687b      	ldr	r3, [r7, #4]
 8001512:	4a3a      	ldr	r2, [pc, #232]	; (80015fc <_Z14GPIO_Clock_CmdP12GPIO_TypeDef15FunctionalState+0x138>)
 8001514:	4293      	cmp	r3, r2
 8001516:	d002      	beq.n	800151e <_Z14GPIO_Clock_CmdP12GPIO_TypeDef15FunctionalState+0x5a>
		return -1;
 8001518:	f04f 33ff 	mov.w	r3, #4294967295
 800151c:	e05a      	b.n	80015d4 <_Z14GPIO_Clock_CmdP12GPIO_TypeDef15FunctionalState+0x110>
	}

	//ENABLE the clock of GPIOx
	if(GPIOx == GPIOA){
 800151e:	687b      	ldr	r3, [r7, #4]
 8001520:	4a2e      	ldr	r2, [pc, #184]	; (80015dc <_Z14GPIO_Clock_CmdP12GPIO_TypeDef15FunctionalState+0x118>)
 8001522:	4293      	cmp	r3, r2
 8001524:	d105      	bne.n	8001532 <_Z14GPIO_Clock_CmdP12GPIO_TypeDef15FunctionalState+0x6e>
		RCC_AHB1PeriphClockCmd(RCC_AHB1Periph_GPIOA, STATE);
 8001526:	78fb      	ldrb	r3, [r7, #3]
 8001528:	4619      	mov	r1, r3
 800152a:	2001      	movs	r0, #1
 800152c:	f004 fc0a 	bl	8005d44 <RCC_AHB1PeriphClockCmd>
 8001530:	e04f      	b.n	80015d2 <_Z14GPIO_Clock_CmdP12GPIO_TypeDef15FunctionalState+0x10e>
	}else if(GPIOx == GPIOB){
 8001532:	687b      	ldr	r3, [r7, #4]
 8001534:	4a2a      	ldr	r2, [pc, #168]	; (80015e0 <_Z14GPIO_Clock_CmdP12GPIO_TypeDef15FunctionalState+0x11c>)
 8001536:	4293      	cmp	r3, r2
 8001538:	d105      	bne.n	8001546 <_Z14GPIO_Clock_CmdP12GPIO_TypeDef15FunctionalState+0x82>
		RCC_AHB1PeriphClockCmd(RCC_AHB1Periph_GPIOB, STATE);
 800153a:	78fb      	ldrb	r3, [r7, #3]
 800153c:	4619      	mov	r1, r3
 800153e:	2002      	movs	r0, #2
 8001540:	f004 fc00 	bl	8005d44 <RCC_AHB1PeriphClockCmd>
 8001544:	e045      	b.n	80015d2 <_Z14GPIO_Clock_CmdP12GPIO_TypeDef15FunctionalState+0x10e>
	}else if(GPIOx == GPIOC){
 8001546:	687b      	ldr	r3, [r7, #4]
 8001548:	4a26      	ldr	r2, [pc, #152]	; (80015e4 <_Z14GPIO_Clock_CmdP12GPIO_TypeDef15FunctionalState+0x120>)
 800154a:	4293      	cmp	r3, r2
 800154c:	d105      	bne.n	800155a <_Z14GPIO_Clock_CmdP12GPIO_TypeDef15FunctionalState+0x96>
		RCC_AHB1PeriphClockCmd(RCC_AHB1Periph_GPIOC, STATE);
 800154e:	78fb      	ldrb	r3, [r7, #3]
 8001550:	4619      	mov	r1, r3
 8001552:	2004      	movs	r0, #4
 8001554:	f004 fbf6 	bl	8005d44 <RCC_AHB1PeriphClockCmd>
 8001558:	e03b      	b.n	80015d2 <_Z14GPIO_Clock_CmdP12GPIO_TypeDef15FunctionalState+0x10e>
	}else if(GPIOx == GPIOD){
 800155a:	687b      	ldr	r3, [r7, #4]
 800155c:	4a22      	ldr	r2, [pc, #136]	; (80015e8 <_Z14GPIO_Clock_CmdP12GPIO_TypeDef15FunctionalState+0x124>)
 800155e:	4293      	cmp	r3, r2
 8001560:	d105      	bne.n	800156e <_Z14GPIO_Clock_CmdP12GPIO_TypeDef15FunctionalState+0xaa>
		RCC_AHB1PeriphClockCmd(RCC_AHB1Periph_GPIOD, STATE);
 8001562:	78fb      	ldrb	r3, [r7, #3]
 8001564:	4619      	mov	r1, r3
 8001566:	2008      	movs	r0, #8
 8001568:	f004 fbec 	bl	8005d44 <RCC_AHB1PeriphClockCmd>
 800156c:	e031      	b.n	80015d2 <_Z14GPIO_Clock_CmdP12GPIO_TypeDef15FunctionalState+0x10e>
	}else if(GPIOx == GPIOE){
 800156e:	687b      	ldr	r3, [r7, #4]
 8001570:	4a1e      	ldr	r2, [pc, #120]	; (80015ec <_Z14GPIO_Clock_CmdP12GPIO_TypeDef15FunctionalState+0x128>)
 8001572:	4293      	cmp	r3, r2
 8001574:	d105      	bne.n	8001582 <_Z14GPIO_Clock_CmdP12GPIO_TypeDef15FunctionalState+0xbe>
		RCC_AHB1PeriphClockCmd(RCC_AHB1Periph_GPIOE, STATE);
 8001576:	78fb      	ldrb	r3, [r7, #3]
 8001578:	4619      	mov	r1, r3
 800157a:	2010      	movs	r0, #16
 800157c:	f004 fbe2 	bl	8005d44 <RCC_AHB1PeriphClockCmd>
 8001580:	e027      	b.n	80015d2 <_Z14GPIO_Clock_CmdP12GPIO_TypeDef15FunctionalState+0x10e>
	}else if(GPIOx == GPIOF){
 8001582:	687b      	ldr	r3, [r7, #4]
 8001584:	4a1a      	ldr	r2, [pc, #104]	; (80015f0 <_Z14GPIO_Clock_CmdP12GPIO_TypeDef15FunctionalState+0x12c>)
 8001586:	4293      	cmp	r3, r2
 8001588:	d105      	bne.n	8001596 <_Z14GPIO_Clock_CmdP12GPIO_TypeDef15FunctionalState+0xd2>
		RCC_AHB1PeriphClockCmd(RCC_AHB1Periph_GPIOF, STATE);
 800158a:	78fb      	ldrb	r3, [r7, #3]
 800158c:	4619      	mov	r1, r3
 800158e:	2020      	movs	r0, #32
 8001590:	f004 fbd8 	bl	8005d44 <RCC_AHB1PeriphClockCmd>
 8001594:	e01d      	b.n	80015d2 <_Z14GPIO_Clock_CmdP12GPIO_TypeDef15FunctionalState+0x10e>
	}else if(GPIOx == GPIOG){
 8001596:	687b      	ldr	r3, [r7, #4]
 8001598:	4a16      	ldr	r2, [pc, #88]	; (80015f4 <_Z14GPIO_Clock_CmdP12GPIO_TypeDef15FunctionalState+0x130>)
 800159a:	4293      	cmp	r3, r2
 800159c:	d105      	bne.n	80015aa <_Z14GPIO_Clock_CmdP12GPIO_TypeDef15FunctionalState+0xe6>
		RCC_AHB1PeriphClockCmd(RCC_AHB1Periph_GPIOG, STATE);
 800159e:	78fb      	ldrb	r3, [r7, #3]
 80015a0:	4619      	mov	r1, r3
 80015a2:	2040      	movs	r0, #64	; 0x40
 80015a4:	f004 fbce 	bl	8005d44 <RCC_AHB1PeriphClockCmd>
 80015a8:	e013      	b.n	80015d2 <_Z14GPIO_Clock_CmdP12GPIO_TypeDef15FunctionalState+0x10e>
	}else if(GPIOx == GPIOH){
 80015aa:	687b      	ldr	r3, [r7, #4]
 80015ac:	4a12      	ldr	r2, [pc, #72]	; (80015f8 <_Z14GPIO_Clock_CmdP12GPIO_TypeDef15FunctionalState+0x134>)
 80015ae:	4293      	cmp	r3, r2
 80015b0:	d105      	bne.n	80015be <_Z14GPIO_Clock_CmdP12GPIO_TypeDef15FunctionalState+0xfa>
		RCC_AHB1PeriphClockCmd(RCC_AHB1Periph_GPIOH, STATE);
 80015b2:	78fb      	ldrb	r3, [r7, #3]
 80015b4:	4619      	mov	r1, r3
 80015b6:	2080      	movs	r0, #128	; 0x80
 80015b8:	f004 fbc4 	bl	8005d44 <RCC_AHB1PeriphClockCmd>
 80015bc:	e009      	b.n	80015d2 <_Z14GPIO_Clock_CmdP12GPIO_TypeDef15FunctionalState+0x10e>
	}else if(GPIOx == GPIOI){
 80015be:	687b      	ldr	r3, [r7, #4]
 80015c0:	4a0e      	ldr	r2, [pc, #56]	; (80015fc <_Z14GPIO_Clock_CmdP12GPIO_TypeDef15FunctionalState+0x138>)
 80015c2:	4293      	cmp	r3, r2
 80015c4:	d105      	bne.n	80015d2 <_Z14GPIO_Clock_CmdP12GPIO_TypeDef15FunctionalState+0x10e>
		RCC_AHB1PeriphClockCmd(RCC_AHB1Periph_GPIOI, STATE);
 80015c6:	78fb      	ldrb	r3, [r7, #3]
 80015c8:	4619      	mov	r1, r3
 80015ca:	f44f 7080 	mov.w	r0, #256	; 0x100
 80015ce:	f004 fbb9 	bl	8005d44 <RCC_AHB1PeriphClockCmd>
	}
	return 0;
 80015d2:	2300      	movs	r3, #0
}
 80015d4:	4618      	mov	r0, r3
 80015d6:	3708      	adds	r7, #8
 80015d8:	46bd      	mov	sp, r7
 80015da:	bd80      	pop	{r7, pc}
 80015dc:	40020000 	.word	0x40020000
 80015e0:	40020400 	.word	0x40020400
 80015e4:	40020800 	.word	0x40020800
 80015e8:	40020c00 	.word	0x40020c00
 80015ec:	40021000 	.word	0x40021000
 80015f0:	40021400 	.word	0x40021400
 80015f4:	40021800 	.word	0x40021800
 80015f8:	40021c00 	.word	0x40021c00
 80015fc:	40022000 	.word	0x40022000

08001600 <_Z13SPI_Clock_CmdP11SPI_TypeDef15FunctionalState>:

/*
 * Enables or disables the peripheral clock associated with SPIx
 */
int SPI_Clock_Cmd(SPI_TypeDef* SPIx, FunctionalState STATE){
 8001600:	b580      	push	{r7, lr}
 8001602:	b082      	sub	sp, #8
 8001604:	af00      	add	r7, sp, #0
 8001606:	6078      	str	r0, [r7, #4]
 8001608:	460b      	mov	r3, r1
 800160a:	70fb      	strb	r3, [r7, #3]
	if(!IS_SPI_ALL_PERIPH(SPIx)){
 800160c:	687b      	ldr	r3, [r7, #4]
 800160e:	4a30      	ldr	r2, [pc, #192]	; (80016d0 <_Z13SPI_Clock_CmdP11SPI_TypeDef15FunctionalState+0xd0>)
 8001610:	4293      	cmp	r3, r2
 8001612:	d016      	beq.n	8001642 <_Z13SPI_Clock_CmdP11SPI_TypeDef15FunctionalState+0x42>
 8001614:	687b      	ldr	r3, [r7, #4]
 8001616:	4a2f      	ldr	r2, [pc, #188]	; (80016d4 <_Z13SPI_Clock_CmdP11SPI_TypeDef15FunctionalState+0xd4>)
 8001618:	4293      	cmp	r3, r2
 800161a:	d012      	beq.n	8001642 <_Z13SPI_Clock_CmdP11SPI_TypeDef15FunctionalState+0x42>
 800161c:	687b      	ldr	r3, [r7, #4]
 800161e:	4a2e      	ldr	r2, [pc, #184]	; (80016d8 <_Z13SPI_Clock_CmdP11SPI_TypeDef15FunctionalState+0xd8>)
 8001620:	4293      	cmp	r3, r2
 8001622:	d00e      	beq.n	8001642 <_Z13SPI_Clock_CmdP11SPI_TypeDef15FunctionalState+0x42>
 8001624:	687b      	ldr	r3, [r7, #4]
 8001626:	4a2d      	ldr	r2, [pc, #180]	; (80016dc <_Z13SPI_Clock_CmdP11SPI_TypeDef15FunctionalState+0xdc>)
 8001628:	4293      	cmp	r3, r2
 800162a:	d00a      	beq.n	8001642 <_Z13SPI_Clock_CmdP11SPI_TypeDef15FunctionalState+0x42>
 800162c:	687b      	ldr	r3, [r7, #4]
 800162e:	4a2c      	ldr	r2, [pc, #176]	; (80016e0 <_Z13SPI_Clock_CmdP11SPI_TypeDef15FunctionalState+0xe0>)
 8001630:	4293      	cmp	r3, r2
 8001632:	d006      	beq.n	8001642 <_Z13SPI_Clock_CmdP11SPI_TypeDef15FunctionalState+0x42>
 8001634:	687b      	ldr	r3, [r7, #4]
 8001636:	4a2b      	ldr	r2, [pc, #172]	; (80016e4 <_Z13SPI_Clock_CmdP11SPI_TypeDef15FunctionalState+0xe4>)
 8001638:	4293      	cmp	r3, r2
 800163a:	d002      	beq.n	8001642 <_Z13SPI_Clock_CmdP11SPI_TypeDef15FunctionalState+0x42>
		return -1;
 800163c:	f04f 33ff 	mov.w	r3, #4294967295
 8001640:	e041      	b.n	80016c6 <_Z13SPI_Clock_CmdP11SPI_TypeDef15FunctionalState+0xc6>
	}

	if(SPIx == SPI1){
 8001642:	687b      	ldr	r3, [r7, #4]
 8001644:	4a22      	ldr	r2, [pc, #136]	; (80016d0 <_Z13SPI_Clock_CmdP11SPI_TypeDef15FunctionalState+0xd0>)
 8001646:	4293      	cmp	r3, r2
 8001648:	d106      	bne.n	8001658 <_Z13SPI_Clock_CmdP11SPI_TypeDef15FunctionalState+0x58>
		RCC_APB2PeriphClockCmd(RCC_APB2Periph_SPI1,STATE);
 800164a:	78fb      	ldrb	r3, [r7, #3]
 800164c:	4619      	mov	r1, r3
 800164e:	f44f 5080 	mov.w	r0, #4096	; 0x1000
 8001652:	f004 fbd7 	bl	8005e04 <RCC_APB2PeriphClockCmd>
 8001656:	e035      	b.n	80016c4 <_Z13SPI_Clock_CmdP11SPI_TypeDef15FunctionalState+0xc4>
	}else if(SPIx == SPI2){
 8001658:	687b      	ldr	r3, [r7, #4]
 800165a:	4a1e      	ldr	r2, [pc, #120]	; (80016d4 <_Z13SPI_Clock_CmdP11SPI_TypeDef15FunctionalState+0xd4>)
 800165c:	4293      	cmp	r3, r2
 800165e:	d106      	bne.n	800166e <_Z13SPI_Clock_CmdP11SPI_TypeDef15FunctionalState+0x6e>
		RCC_APB1PeriphClockCmd(RCC_APB1Periph_SPI2,STATE);
 8001660:	78fb      	ldrb	r3, [r7, #3]
 8001662:	4619      	mov	r1, r3
 8001664:	f44f 4080 	mov.w	r0, #16384	; 0x4000
 8001668:	f004 fbac 	bl	8005dc4 <RCC_APB1PeriphClockCmd>
 800166c:	e02a      	b.n	80016c4 <_Z13SPI_Clock_CmdP11SPI_TypeDef15FunctionalState+0xc4>
	}else if(SPIx == SPI3){
 800166e:	687b      	ldr	r3, [r7, #4]
 8001670:	4a19      	ldr	r2, [pc, #100]	; (80016d8 <_Z13SPI_Clock_CmdP11SPI_TypeDef15FunctionalState+0xd8>)
 8001672:	4293      	cmp	r3, r2
 8001674:	d106      	bne.n	8001684 <_Z13SPI_Clock_CmdP11SPI_TypeDef15FunctionalState+0x84>
		RCC_APB1PeriphClockCmd(RCC_APB1Periph_SPI3,STATE);
 8001676:	78fb      	ldrb	r3, [r7, #3]
 8001678:	4619      	mov	r1, r3
 800167a:	f44f 4000 	mov.w	r0, #32768	; 0x8000
 800167e:	f004 fba1 	bl	8005dc4 <RCC_APB1PeriphClockCmd>
 8001682:	e01f      	b.n	80016c4 <_Z13SPI_Clock_CmdP11SPI_TypeDef15FunctionalState+0xc4>
	}else if(SPIx == SPI4){
 8001684:	687b      	ldr	r3, [r7, #4]
 8001686:	4a15      	ldr	r2, [pc, #84]	; (80016dc <_Z13SPI_Clock_CmdP11SPI_TypeDef15FunctionalState+0xdc>)
 8001688:	4293      	cmp	r3, r2
 800168a:	d106      	bne.n	800169a <_Z13SPI_Clock_CmdP11SPI_TypeDef15FunctionalState+0x9a>
		RCC_APB2PeriphClockCmd(RCC_APB2Periph_SPI4,STATE);
 800168c:	78fb      	ldrb	r3, [r7, #3]
 800168e:	4619      	mov	r1, r3
 8001690:	f44f 5000 	mov.w	r0, #8192	; 0x2000
 8001694:	f004 fbb6 	bl	8005e04 <RCC_APB2PeriphClockCmd>
 8001698:	e014      	b.n	80016c4 <_Z13SPI_Clock_CmdP11SPI_TypeDef15FunctionalState+0xc4>
	}else if(SPIx == SPI5){
 800169a:	687b      	ldr	r3, [r7, #4]
 800169c:	4a10      	ldr	r2, [pc, #64]	; (80016e0 <_Z13SPI_Clock_CmdP11SPI_TypeDef15FunctionalState+0xe0>)
 800169e:	4293      	cmp	r3, r2
 80016a0:	d106      	bne.n	80016b0 <_Z13SPI_Clock_CmdP11SPI_TypeDef15FunctionalState+0xb0>
		RCC_APB2PeriphClockCmd(RCC_APB2Periph_SPI5,STATE);
 80016a2:	78fb      	ldrb	r3, [r7, #3]
 80016a4:	4619      	mov	r1, r3
 80016a6:	f44f 1080 	mov.w	r0, #1048576	; 0x100000
 80016aa:	f004 fbab 	bl	8005e04 <RCC_APB2PeriphClockCmd>
 80016ae:	e009      	b.n	80016c4 <_Z13SPI_Clock_CmdP11SPI_TypeDef15FunctionalState+0xc4>
	}else if(SPIx == SPI6){
 80016b0:	687b      	ldr	r3, [r7, #4]
 80016b2:	4a0c      	ldr	r2, [pc, #48]	; (80016e4 <_Z13SPI_Clock_CmdP11SPI_TypeDef15FunctionalState+0xe4>)
 80016b4:	4293      	cmp	r3, r2
 80016b6:	d105      	bne.n	80016c4 <_Z13SPI_Clock_CmdP11SPI_TypeDef15FunctionalState+0xc4>
		RCC_APB2PeriphClockCmd(RCC_APB2Periph_SPI6,STATE);
 80016b8:	78fb      	ldrb	r3, [r7, #3]
 80016ba:	4619      	mov	r1, r3
 80016bc:	f44f 1000 	mov.w	r0, #2097152	; 0x200000
 80016c0:	f004 fba0 	bl	8005e04 <RCC_APB2PeriphClockCmd>
	}

	return 0;
 80016c4:	2300      	movs	r3, #0
}
 80016c6:	4618      	mov	r0, r3
 80016c8:	3708      	adds	r7, #8
 80016ca:	46bd      	mov	sp, r7
 80016cc:	bd80      	pop	{r7, pc}
 80016ce:	bf00      	nop
 80016d0:	40013000 	.word	0x40013000
 80016d4:	40003800 	.word	0x40003800
 80016d8:	40003c00 	.word	0x40003c00
 80016dc:	40013400 	.word	0x40013400
 80016e0:	40015000 	.word	0x40015000
 80016e4:	40015400 	.word	0x40015400

080016e8 <_Z14GPIO_PinSourcet>:

//retorna a constante GPIO_PinSource correspondente ao GPIO_Pin dado
uint16_t GPIO_PinSource(uint16_t GPIO_Pin){
 80016e8:	b480      	push	{r7}
 80016ea:	b083      	sub	sp, #12
 80016ec:	af00      	add	r7, sp, #0
 80016ee:	4603      	mov	r3, r0
 80016f0:	80fb      	strh	r3, [r7, #6]
	if(!IS_GPIO_PIN(GPIO_Pin)){
 80016f2:	88fb      	ldrh	r3, [r7, #6]
 80016f4:	2b00      	cmp	r3, #0
 80016f6:	d102      	bne.n	80016fe <_Z14GPIO_PinSourcet+0x16>
		return 0xFFFF;
 80016f8:	f64f 73ff 	movw	r3, #65535	; 0xffff
 80016fc:	e057      	b.n	80017ae <_Z14GPIO_PinSourcet+0xc6>
	}

	if(GPIO_Pin == GPIO_Pin_0){
 80016fe:	88fb      	ldrh	r3, [r7, #6]
 8001700:	2b01      	cmp	r3, #1
 8001702:	d101      	bne.n	8001708 <_Z14GPIO_PinSourcet+0x20>
		return GPIO_PinSource0;
 8001704:	2300      	movs	r3, #0
 8001706:	e052      	b.n	80017ae <_Z14GPIO_PinSourcet+0xc6>
	}else if(GPIO_Pin == GPIO_Pin_1){
 8001708:	88fb      	ldrh	r3, [r7, #6]
 800170a:	2b02      	cmp	r3, #2
 800170c:	d101      	bne.n	8001712 <_Z14GPIO_PinSourcet+0x2a>
		return GPIO_PinSource1;
 800170e:	2301      	movs	r3, #1
 8001710:	e04d      	b.n	80017ae <_Z14GPIO_PinSourcet+0xc6>
	}else if(GPIO_Pin == GPIO_Pin_2){
 8001712:	88fb      	ldrh	r3, [r7, #6]
 8001714:	2b04      	cmp	r3, #4
 8001716:	d101      	bne.n	800171c <_Z14GPIO_PinSourcet+0x34>
		return GPIO_PinSource2;
 8001718:	2302      	movs	r3, #2
 800171a:	e048      	b.n	80017ae <_Z14GPIO_PinSourcet+0xc6>
	}else if(GPIO_Pin == GPIO_Pin_3){
 800171c:	88fb      	ldrh	r3, [r7, #6]
 800171e:	2b08      	cmp	r3, #8
 8001720:	d101      	bne.n	8001726 <_Z14GPIO_PinSourcet+0x3e>
		return GPIO_PinSource3;
 8001722:	2303      	movs	r3, #3
 8001724:	e043      	b.n	80017ae <_Z14GPIO_PinSourcet+0xc6>
	}else if(GPIO_Pin == GPIO_Pin_4){
 8001726:	88fb      	ldrh	r3, [r7, #6]
 8001728:	2b10      	cmp	r3, #16
 800172a:	d101      	bne.n	8001730 <_Z14GPIO_PinSourcet+0x48>
		return GPIO_PinSource4;
 800172c:	2304      	movs	r3, #4
 800172e:	e03e      	b.n	80017ae <_Z14GPIO_PinSourcet+0xc6>
	}else if(GPIO_Pin == GPIO_Pin_5){
 8001730:	88fb      	ldrh	r3, [r7, #6]
 8001732:	2b20      	cmp	r3, #32
 8001734:	d101      	bne.n	800173a <_Z14GPIO_PinSourcet+0x52>
		return GPIO_PinSource5;
 8001736:	2305      	movs	r3, #5
 8001738:	e039      	b.n	80017ae <_Z14GPIO_PinSourcet+0xc6>
	}else if(GPIO_Pin == GPIO_Pin_6){
 800173a:	88fb      	ldrh	r3, [r7, #6]
 800173c:	2b40      	cmp	r3, #64	; 0x40
 800173e:	d101      	bne.n	8001744 <_Z14GPIO_PinSourcet+0x5c>
		return GPIO_PinSource6;
 8001740:	2306      	movs	r3, #6
 8001742:	e034      	b.n	80017ae <_Z14GPIO_PinSourcet+0xc6>
	}else if(GPIO_Pin == GPIO_Pin_7){
 8001744:	88fb      	ldrh	r3, [r7, #6]
 8001746:	2b80      	cmp	r3, #128	; 0x80
 8001748:	d101      	bne.n	800174e <_Z14GPIO_PinSourcet+0x66>
		return GPIO_PinSource7;
 800174a:	2307      	movs	r3, #7
 800174c:	e02f      	b.n	80017ae <_Z14GPIO_PinSourcet+0xc6>
	}else if(GPIO_Pin == GPIO_Pin_8){
 800174e:	88fb      	ldrh	r3, [r7, #6]
 8001750:	f5b3 7f80 	cmp.w	r3, #256	; 0x100
 8001754:	d101      	bne.n	800175a <_Z14GPIO_PinSourcet+0x72>
		return GPIO_PinSource8;
 8001756:	2308      	movs	r3, #8
 8001758:	e029      	b.n	80017ae <_Z14GPIO_PinSourcet+0xc6>
	}else if(GPIO_Pin == GPIO_Pin_9){
 800175a:	88fb      	ldrh	r3, [r7, #6]
 800175c:	f5b3 7f00 	cmp.w	r3, #512	; 0x200
 8001760:	d101      	bne.n	8001766 <_Z14GPIO_PinSourcet+0x7e>
		return GPIO_PinSource9;
 8001762:	2309      	movs	r3, #9
 8001764:	e023      	b.n	80017ae <_Z14GPIO_PinSourcet+0xc6>
	}else if(GPIO_Pin == GPIO_Pin_10){
 8001766:	88fb      	ldrh	r3, [r7, #6]
 8001768:	f5b3 6f80 	cmp.w	r3, #1024	; 0x400
 800176c:	d101      	bne.n	8001772 <_Z14GPIO_PinSourcet+0x8a>
		return GPIO_PinSource10;
 800176e:	230a      	movs	r3, #10
 8001770:	e01d      	b.n	80017ae <_Z14GPIO_PinSourcet+0xc6>
	}else if(GPIO_Pin == GPIO_Pin_11){
 8001772:	88fb      	ldrh	r3, [r7, #6]
 8001774:	f5b3 6f00 	cmp.w	r3, #2048	; 0x800
 8001778:	d101      	bne.n	800177e <_Z14GPIO_PinSourcet+0x96>
		return GPIO_PinSource11;
 800177a:	230b      	movs	r3, #11
 800177c:	e017      	b.n	80017ae <_Z14GPIO_PinSourcet+0xc6>
	}else if(GPIO_Pin == GPIO_Pin_12){
 800177e:	88fb      	ldrh	r3, [r7, #6]
 8001780:	f5b3 5f80 	cmp.w	r3, #4096	; 0x1000
 8001784:	d101      	bne.n	800178a <_Z14GPIO_PinSourcet+0xa2>
		return GPIO_PinSource12;
 8001786:	230c      	movs	r3, #12
 8001788:	e011      	b.n	80017ae <_Z14GPIO_PinSourcet+0xc6>
	}else if(GPIO_Pin == GPIO_Pin_13){
 800178a:	88fb      	ldrh	r3, [r7, #6]
 800178c:	f5b3 5f00 	cmp.w	r3, #8192	; 0x2000
 8001790:	d101      	bne.n	8001796 <_Z14GPIO_PinSourcet+0xae>
		return GPIO_PinSource13;
 8001792:	230d      	movs	r3, #13
 8001794:	e00b      	b.n	80017ae <_Z14GPIO_PinSourcet+0xc6>
	}else if(GPIO_Pin == GPIO_Pin_14){
 8001796:	88fb      	ldrh	r3, [r7, #6]
 8001798:	f5b3 4f80 	cmp.w	r3, #16384	; 0x4000
 800179c:	d101      	bne.n	80017a2 <_Z14GPIO_PinSourcet+0xba>
		return GPIO_PinSource14;
 800179e:	230e      	movs	r3, #14
 80017a0:	e005      	b.n	80017ae <_Z14GPIO_PinSourcet+0xc6>
	}else if(GPIO_Pin == GPIO_Pin_15){
 80017a2:	88fb      	ldrh	r3, [r7, #6]
 80017a4:	f5b3 4f00 	cmp.w	r3, #32768	; 0x8000
 80017a8:	d101      	bne.n	80017ae <_Z14GPIO_PinSourcet+0xc6>
		return GPIO_PinSource15;
 80017aa:	230f      	movs	r3, #15
 80017ac:	e7ff      	b.n	80017ae <_Z14GPIO_PinSourcet+0xc6>
	}
}
 80017ae:	4618      	mov	r0, r3
 80017b0:	370c      	adds	r7, #12
 80017b2:	46bd      	mov	sp, r7
 80017b4:	f85d 7b04 	ldr.w	r7, [sp], #4
 80017b8:	4770      	bx	lr
 80017ba:	bf00      	nop

080017bc <_Z12GPIO_AF_SPIxP11SPI_TypeDef>:

uint8_t GPIO_AF_SPIx(SPI_TypeDef* SPIx){
 80017bc:	b480      	push	{r7}
 80017be:	b083      	sub	sp, #12
 80017c0:	af00      	add	r7, sp, #0
 80017c2:	6078      	str	r0, [r7, #4]
	if(!IS_SPI_ALL_PERIPH(SPIx)){
 80017c4:	687b      	ldr	r3, [r7, #4]
 80017c6:	4a21      	ldr	r2, [pc, #132]	; (800184c <_Z12GPIO_AF_SPIxP11SPI_TypeDef+0x90>)
 80017c8:	4293      	cmp	r3, r2
 80017ca:	d015      	beq.n	80017f8 <_Z12GPIO_AF_SPIxP11SPI_TypeDef+0x3c>
 80017cc:	687b      	ldr	r3, [r7, #4]
 80017ce:	4a20      	ldr	r2, [pc, #128]	; (8001850 <_Z12GPIO_AF_SPIxP11SPI_TypeDef+0x94>)
 80017d0:	4293      	cmp	r3, r2
 80017d2:	d011      	beq.n	80017f8 <_Z12GPIO_AF_SPIxP11SPI_TypeDef+0x3c>
 80017d4:	687b      	ldr	r3, [r7, #4]
 80017d6:	4a1f      	ldr	r2, [pc, #124]	; (8001854 <_Z12GPIO_AF_SPIxP11SPI_TypeDef+0x98>)
 80017d8:	4293      	cmp	r3, r2
 80017da:	d00d      	beq.n	80017f8 <_Z12GPIO_AF_SPIxP11SPI_TypeDef+0x3c>
 80017dc:	687b      	ldr	r3, [r7, #4]
 80017de:	4a1e      	ldr	r2, [pc, #120]	; (8001858 <_Z12GPIO_AF_SPIxP11SPI_TypeDef+0x9c>)
 80017e0:	4293      	cmp	r3, r2
 80017e2:	d009      	beq.n	80017f8 <_Z12GPIO_AF_SPIxP11SPI_TypeDef+0x3c>
 80017e4:	687b      	ldr	r3, [r7, #4]
 80017e6:	4a1d      	ldr	r2, [pc, #116]	; (800185c <_Z12GPIO_AF_SPIxP11SPI_TypeDef+0xa0>)
 80017e8:	4293      	cmp	r3, r2
 80017ea:	d005      	beq.n	80017f8 <_Z12GPIO_AF_SPIxP11SPI_TypeDef+0x3c>
 80017ec:	687b      	ldr	r3, [r7, #4]
 80017ee:	4a1c      	ldr	r2, [pc, #112]	; (8001860 <_Z12GPIO_AF_SPIxP11SPI_TypeDef+0xa4>)
 80017f0:	4293      	cmp	r3, r2
 80017f2:	d001      	beq.n	80017f8 <_Z12GPIO_AF_SPIxP11SPI_TypeDef+0x3c>
		return 0xFF;
 80017f4:	23ff      	movs	r3, #255	; 0xff
 80017f6:	e023      	b.n	8001840 <_Z12GPIO_AF_SPIxP11SPI_TypeDef+0x84>
	}

	if(SPIx == SPI1){
 80017f8:	687b      	ldr	r3, [r7, #4]
 80017fa:	4a14      	ldr	r2, [pc, #80]	; (800184c <_Z12GPIO_AF_SPIxP11SPI_TypeDef+0x90>)
 80017fc:	4293      	cmp	r3, r2
 80017fe:	d101      	bne.n	8001804 <_Z12GPIO_AF_SPIxP11SPI_TypeDef+0x48>
		return GPIO_AF_SPI1;
 8001800:	2305      	movs	r3, #5
 8001802:	e01d      	b.n	8001840 <_Z12GPIO_AF_SPIxP11SPI_TypeDef+0x84>
	}else if(SPIx == SPI2){
 8001804:	687b      	ldr	r3, [r7, #4]
 8001806:	4a12      	ldr	r2, [pc, #72]	; (8001850 <_Z12GPIO_AF_SPIxP11SPI_TypeDef+0x94>)
 8001808:	4293      	cmp	r3, r2
 800180a:	d101      	bne.n	8001810 <_Z12GPIO_AF_SPIxP11SPI_TypeDef+0x54>
		return GPIO_AF_SPI2;
 800180c:	2305      	movs	r3, #5
 800180e:	e017      	b.n	8001840 <_Z12GPIO_AF_SPIxP11SPI_TypeDef+0x84>
	}else if(SPIx == SPI3){
 8001810:	687b      	ldr	r3, [r7, #4]
 8001812:	4a10      	ldr	r2, [pc, #64]	; (8001854 <_Z12GPIO_AF_SPIxP11SPI_TypeDef+0x98>)
 8001814:	4293      	cmp	r3, r2
 8001816:	d101      	bne.n	800181c <_Z12GPIO_AF_SPIxP11SPI_TypeDef+0x60>
		return GPIO_AF_SPI3;
 8001818:	2306      	movs	r3, #6
 800181a:	e011      	b.n	8001840 <_Z12GPIO_AF_SPIxP11SPI_TypeDef+0x84>
	}else if(SPIx == SPI4){
 800181c:	687b      	ldr	r3, [r7, #4]
 800181e:	4a0e      	ldr	r2, [pc, #56]	; (8001858 <_Z12GPIO_AF_SPIxP11SPI_TypeDef+0x9c>)
 8001820:	4293      	cmp	r3, r2
 8001822:	d101      	bne.n	8001828 <_Z12GPIO_AF_SPIxP11SPI_TypeDef+0x6c>
		return GPIO_AF_SPI4;
 8001824:	2305      	movs	r3, #5
 8001826:	e00b      	b.n	8001840 <_Z12GPIO_AF_SPIxP11SPI_TypeDef+0x84>
	}else if(SPIx == SPI5){
 8001828:	687b      	ldr	r3, [r7, #4]
 800182a:	4a0c      	ldr	r2, [pc, #48]	; (800185c <_Z12GPIO_AF_SPIxP11SPI_TypeDef+0xa0>)
 800182c:	4293      	cmp	r3, r2
 800182e:	d101      	bne.n	8001834 <_Z12GPIO_AF_SPIxP11SPI_TypeDef+0x78>
		return GPIO_AF_SPI5;
 8001830:	2305      	movs	r3, #5
 8001832:	e005      	b.n	8001840 <_Z12GPIO_AF_SPIxP11SPI_TypeDef+0x84>
	}else if(SPIx == SPI6){
 8001834:	687b      	ldr	r3, [r7, #4]
 8001836:	4a0a      	ldr	r2, [pc, #40]	; (8001860 <_Z12GPIO_AF_SPIxP11SPI_TypeDef+0xa4>)
 8001838:	4293      	cmp	r3, r2
 800183a:	d101      	bne.n	8001840 <_Z12GPIO_AF_SPIxP11SPI_TypeDef+0x84>
		return GPIO_AF_SPI6;
 800183c:	2305      	movs	r3, #5
 800183e:	e7ff      	b.n	8001840 <_Z12GPIO_AF_SPIxP11SPI_TypeDef+0x84>
	}
}
 8001840:	4618      	mov	r0, r3
 8001842:	370c      	adds	r7, #12
 8001844:	46bd      	mov	sp, r7
 8001846:	f85d 7b04 	ldr.w	r7, [sp], #4
 800184a:	4770      	bx	lr
 800184c:	40013000 	.word	0x40013000
 8001850:	40003800 	.word	0x40003800
 8001854:	40003c00 	.word	0x40003c00
 8001858:	40013400 	.word	0x40013400
 800185c:	40015000 	.word	0x40015000
 8001860:	40015400 	.word	0x40015400

08001864 <_Z10EXTIx_IRQnt>:

IRQn_Type EXTIx_IRQn(uint16_t GPIO_Pin){
 8001864:	b480      	push	{r7}
 8001866:	b083      	sub	sp, #12
 8001868:	af00      	add	r7, sp, #0
 800186a:	4603      	mov	r3, r0
 800186c:	80fb      	strh	r3, [r7, #6]

	if(!IS_GPIO_PIN(GPIO_Pin)){
 800186e:	88fb      	ldrh	r3, [r7, #6]
 8001870:	2b00      	cmp	r3, #0
 8001872:	d102      	bne.n	800187a <_Z10EXTIx_IRQnt+0x16>
		return UsageFault_IRQn;
 8001874:	f06f 0309 	mvn.w	r3, #9
 8001878:	e057      	b.n	800192a <_Z10EXTIx_IRQnt+0xc6>
	}

	if(GPIO_Pin == GPIO_Pin_0){
 800187a:	88fb      	ldrh	r3, [r7, #6]
 800187c:	2b01      	cmp	r3, #1
 800187e:	d101      	bne.n	8001884 <_Z10EXTIx_IRQnt+0x20>
		return EXTI0_IRQn;
 8001880:	2306      	movs	r3, #6
 8001882:	e052      	b.n	800192a <_Z10EXTIx_IRQnt+0xc6>
	}else if(GPIO_Pin == GPIO_Pin_1){
 8001884:	88fb      	ldrh	r3, [r7, #6]
 8001886:	2b02      	cmp	r3, #2
 8001888:	d101      	bne.n	800188e <_Z10EXTIx_IRQnt+0x2a>
		return EXTI1_IRQn;
 800188a:	2307      	movs	r3, #7
 800188c:	e04d      	b.n	800192a <_Z10EXTIx_IRQnt+0xc6>
	}else if(GPIO_Pin == GPIO_Pin_2){
 800188e:	88fb      	ldrh	r3, [r7, #6]
 8001890:	2b04      	cmp	r3, #4
 8001892:	d101      	bne.n	8001898 <_Z10EXTIx_IRQnt+0x34>
		return EXTI2_IRQn;
 8001894:	2308      	movs	r3, #8
 8001896:	e048      	b.n	800192a <_Z10EXTIx_IRQnt+0xc6>
	}else if(GPIO_Pin == GPIO_Pin_3){
 8001898:	88fb      	ldrh	r3, [r7, #6]
 800189a:	2b08      	cmp	r3, #8
 800189c:	d101      	bne.n	80018a2 <_Z10EXTIx_IRQnt+0x3e>
		return EXTI3_IRQn;
 800189e:	2309      	movs	r3, #9
 80018a0:	e043      	b.n	800192a <_Z10EXTIx_IRQnt+0xc6>
	}else if(GPIO_Pin == GPIO_Pin_4){
 80018a2:	88fb      	ldrh	r3, [r7, #6]
 80018a4:	2b10      	cmp	r3, #16
 80018a6:	d101      	bne.n	80018ac <_Z10EXTIx_IRQnt+0x48>
		return EXTI4_IRQn;
 80018a8:	230a      	movs	r3, #10
 80018aa:	e03e      	b.n	800192a <_Z10EXTIx_IRQnt+0xc6>
	}else if(GPIO_Pin == GPIO_Pin_5){
 80018ac:	88fb      	ldrh	r3, [r7, #6]
 80018ae:	2b20      	cmp	r3, #32
 80018b0:	d101      	bne.n	80018b6 <_Z10EXTIx_IRQnt+0x52>
		return EXTI9_5_IRQn;
 80018b2:	2317      	movs	r3, #23
 80018b4:	e039      	b.n	800192a <_Z10EXTIx_IRQnt+0xc6>
	}else if(GPIO_Pin == GPIO_Pin_6){
 80018b6:	88fb      	ldrh	r3, [r7, #6]
 80018b8:	2b40      	cmp	r3, #64	; 0x40
 80018ba:	d101      	bne.n	80018c0 <_Z10EXTIx_IRQnt+0x5c>
		return EXTI9_5_IRQn;
 80018bc:	2317      	movs	r3, #23
 80018be:	e034      	b.n	800192a <_Z10EXTIx_IRQnt+0xc6>
	}else if(GPIO_Pin == GPIO_Pin_7){
 80018c0:	88fb      	ldrh	r3, [r7, #6]
 80018c2:	2b80      	cmp	r3, #128	; 0x80
 80018c4:	d101      	bne.n	80018ca <_Z10EXTIx_IRQnt+0x66>
		return EXTI9_5_IRQn;
 80018c6:	2317      	movs	r3, #23
 80018c8:	e02f      	b.n	800192a <_Z10EXTIx_IRQnt+0xc6>
	}else if(GPIO_Pin == GPIO_Pin_8){
 80018ca:	88fb      	ldrh	r3, [r7, #6]
 80018cc:	f5b3 7f80 	cmp.w	r3, #256	; 0x100
 80018d0:	d101      	bne.n	80018d6 <_Z10EXTIx_IRQnt+0x72>
		return EXTI9_5_IRQn;
 80018d2:	2317      	movs	r3, #23
 80018d4:	e029      	b.n	800192a <_Z10EXTIx_IRQnt+0xc6>
	}else if(GPIO_Pin == GPIO_Pin_9){
 80018d6:	88fb      	ldrh	r3, [r7, #6]
 80018d8:	f5b3 7f00 	cmp.w	r3, #512	; 0x200
 80018dc:	d101      	bne.n	80018e2 <_Z10EXTIx_IRQnt+0x7e>
		return EXTI9_5_IRQn;
 80018de:	2317      	movs	r3, #23
 80018e0:	e023      	b.n	800192a <_Z10EXTIx_IRQnt+0xc6>
	}else if(GPIO_Pin == GPIO_Pin_10){
 80018e2:	88fb      	ldrh	r3, [r7, #6]
 80018e4:	f5b3 6f80 	cmp.w	r3, #1024	; 0x400
 80018e8:	d101      	bne.n	80018ee <_Z10EXTIx_IRQnt+0x8a>
		return EXTI15_10_IRQn;
 80018ea:	2328      	movs	r3, #40	; 0x28
 80018ec:	e01d      	b.n	800192a <_Z10EXTIx_IRQnt+0xc6>
	}else if(GPIO_Pin == GPIO_Pin_11){
 80018ee:	88fb      	ldrh	r3, [r7, #6]
 80018f0:	f5b3 6f00 	cmp.w	r3, #2048	; 0x800
 80018f4:	d101      	bne.n	80018fa <_Z10EXTIx_IRQnt+0x96>
		return EXTI15_10_IRQn;
 80018f6:	2328      	movs	r3, #40	; 0x28
 80018f8:	e017      	b.n	800192a <_Z10EXTIx_IRQnt+0xc6>
	}else if(GPIO_Pin == GPIO_Pin_12){
 80018fa:	88fb      	ldrh	r3, [r7, #6]
 80018fc:	f5b3 5f80 	cmp.w	r3, #4096	; 0x1000
 8001900:	d101      	bne.n	8001906 <_Z10EXTIx_IRQnt+0xa2>
		return EXTI15_10_IRQn;
 8001902:	2328      	movs	r3, #40	; 0x28
 8001904:	e011      	b.n	800192a <_Z10EXTIx_IRQnt+0xc6>
	}else if(GPIO_Pin == GPIO_Pin_13){
 8001906:	88fb      	ldrh	r3, [r7, #6]
 8001908:	f5b3 5f00 	cmp.w	r3, #8192	; 0x2000
 800190c:	d101      	bne.n	8001912 <_Z10EXTIx_IRQnt+0xae>
		return EXTI15_10_IRQn;
 800190e:	2328      	movs	r3, #40	; 0x28
 8001910:	e00b      	b.n	800192a <_Z10EXTIx_IRQnt+0xc6>
	}else if(GPIO_Pin == GPIO_Pin_14){
 8001912:	88fb      	ldrh	r3, [r7, #6]
 8001914:	f5b3 4f80 	cmp.w	r3, #16384	; 0x4000
 8001918:	d101      	bne.n	800191e <_Z10EXTIx_IRQnt+0xba>
		return EXTI15_10_IRQn;
 800191a:	2328      	movs	r3, #40	; 0x28
 800191c:	e005      	b.n	800192a <_Z10EXTIx_IRQnt+0xc6>
	}else if(GPIO_Pin == GPIO_Pin_15){
 800191e:	88fb      	ldrh	r3, [r7, #6]
 8001920:	f5b3 4f00 	cmp.w	r3, #32768	; 0x8000
 8001924:	d101      	bne.n	800192a <_Z10EXTIx_IRQnt+0xc6>
		return EXTI15_10_IRQn;
 8001926:	2328      	movs	r3, #40	; 0x28
 8001928:	e7ff      	b.n	800192a <_Z10EXTIx_IRQnt+0xc6>
	}
}
 800192a:	4618      	mov	r0, r3
 800192c:	370c      	adds	r7, #12
 800192e:	46bd      	mov	sp, r7
 8001930:	f85d 7b04 	ldr.w	r7, [sp], #4
 8001934:	4770      	bx	lr
 8001936:	bf00      	nop

08001938 <_Z9EXTI_Linet>:

uint32_t EXTI_Line(uint16_t GPIO_Pin){
 8001938:	b480      	push	{r7}
 800193a:	b083      	sub	sp, #12
 800193c:	af00      	add	r7, sp, #0
 800193e:	4603      	mov	r3, r0
 8001940:	80fb      	strh	r3, [r7, #6]
	if(!IS_GPIO_PIN(GPIO_Pin)){
 8001942:	88fb      	ldrh	r3, [r7, #6]
 8001944:	2b00      	cmp	r3, #0
 8001946:	d101      	bne.n	800194c <_Z9EXTI_Linet+0x14>
		return 0x00;
 8001948:	2300      	movs	r3, #0
 800194a:	e05f      	b.n	8001a0c <_Z9EXTI_Linet+0xd4>
	}

	if(GPIO_Pin == GPIO_Pin_0){
 800194c:	88fb      	ldrh	r3, [r7, #6]
 800194e:	2b01      	cmp	r3, #1
 8001950:	d101      	bne.n	8001956 <_Z9EXTI_Linet+0x1e>
		return EXTI_Line0;
 8001952:	2301      	movs	r3, #1
 8001954:	e05a      	b.n	8001a0c <_Z9EXTI_Linet+0xd4>
	}else if(GPIO_Pin == GPIO_Pin_1){
 8001956:	88fb      	ldrh	r3, [r7, #6]
 8001958:	2b02      	cmp	r3, #2
 800195a:	d101      	bne.n	8001960 <_Z9EXTI_Linet+0x28>
		return EXTI_Line1;
 800195c:	2302      	movs	r3, #2
 800195e:	e055      	b.n	8001a0c <_Z9EXTI_Linet+0xd4>
	}else if(GPIO_Pin == GPIO_Pin_2){
 8001960:	88fb      	ldrh	r3, [r7, #6]
 8001962:	2b04      	cmp	r3, #4
 8001964:	d101      	bne.n	800196a <_Z9EXTI_Linet+0x32>
		return EXTI_Line2;
 8001966:	2304      	movs	r3, #4
 8001968:	e050      	b.n	8001a0c <_Z9EXTI_Linet+0xd4>
	}else if(GPIO_Pin == GPIO_Pin_3){
 800196a:	88fb      	ldrh	r3, [r7, #6]
 800196c:	2b08      	cmp	r3, #8
 800196e:	d101      	bne.n	8001974 <_Z9EXTI_Linet+0x3c>
		return EXTI_Line3;
 8001970:	2308      	movs	r3, #8
 8001972:	e04b      	b.n	8001a0c <_Z9EXTI_Linet+0xd4>
	}else if(GPIO_Pin == GPIO_Pin_4){
 8001974:	88fb      	ldrh	r3, [r7, #6]
 8001976:	2b10      	cmp	r3, #16
 8001978:	d101      	bne.n	800197e <_Z9EXTI_Linet+0x46>
		return EXTI_Line4;
 800197a:	2310      	movs	r3, #16
 800197c:	e046      	b.n	8001a0c <_Z9EXTI_Linet+0xd4>
	}else if(GPIO_Pin == GPIO_Pin_5){
 800197e:	88fb      	ldrh	r3, [r7, #6]
 8001980:	2b20      	cmp	r3, #32
 8001982:	d101      	bne.n	8001988 <_Z9EXTI_Linet+0x50>
		return EXTI_Line5;
 8001984:	2320      	movs	r3, #32
 8001986:	e041      	b.n	8001a0c <_Z9EXTI_Linet+0xd4>
	}else if(GPIO_Pin == GPIO_Pin_6){
 8001988:	88fb      	ldrh	r3, [r7, #6]
 800198a:	2b40      	cmp	r3, #64	; 0x40
 800198c:	d101      	bne.n	8001992 <_Z9EXTI_Linet+0x5a>
		return EXTI_Line6;
 800198e:	2340      	movs	r3, #64	; 0x40
 8001990:	e03c      	b.n	8001a0c <_Z9EXTI_Linet+0xd4>
	}else if(GPIO_Pin == GPIO_Pin_7){
 8001992:	88fb      	ldrh	r3, [r7, #6]
 8001994:	2b80      	cmp	r3, #128	; 0x80
 8001996:	d101      	bne.n	800199c <_Z9EXTI_Linet+0x64>
		return EXTI_Line7;
 8001998:	2380      	movs	r3, #128	; 0x80
 800199a:	e037      	b.n	8001a0c <_Z9EXTI_Linet+0xd4>
	}else if(GPIO_Pin == GPIO_Pin_8){
 800199c:	88fb      	ldrh	r3, [r7, #6]
 800199e:	f5b3 7f80 	cmp.w	r3, #256	; 0x100
 80019a2:	d102      	bne.n	80019aa <_Z9EXTI_Linet+0x72>
		return EXTI_Line8;
 80019a4:	f44f 7380 	mov.w	r3, #256	; 0x100
 80019a8:	e030      	b.n	8001a0c <_Z9EXTI_Linet+0xd4>
	}else if(GPIO_Pin == GPIO_Pin_9){
 80019aa:	88fb      	ldrh	r3, [r7, #6]
 80019ac:	f5b3 7f00 	cmp.w	r3, #512	; 0x200
 80019b0:	d102      	bne.n	80019b8 <_Z9EXTI_Linet+0x80>
		return EXTI_Line9;
 80019b2:	f44f 7300 	mov.w	r3, #512	; 0x200
 80019b6:	e029      	b.n	8001a0c <_Z9EXTI_Linet+0xd4>
	}else if(GPIO_Pin == GPIO_Pin_10){
 80019b8:	88fb      	ldrh	r3, [r7, #6]
 80019ba:	f5b3 6f80 	cmp.w	r3, #1024	; 0x400
 80019be:	d102      	bne.n	80019c6 <_Z9EXTI_Linet+0x8e>
		return EXTI_Line10;
 80019c0:	f44f 6380 	mov.w	r3, #1024	; 0x400
 80019c4:	e022      	b.n	8001a0c <_Z9EXTI_Linet+0xd4>
	}else if(GPIO_Pin == GPIO_Pin_11){
 80019c6:	88fb      	ldrh	r3, [r7, #6]
 80019c8:	f5b3 6f00 	cmp.w	r3, #2048	; 0x800
 80019cc:	d102      	bne.n	80019d4 <_Z9EXTI_Linet+0x9c>
		return EXTI_Line11;
 80019ce:	f44f 6300 	mov.w	r3, #2048	; 0x800
 80019d2:	e01b      	b.n	8001a0c <_Z9EXTI_Linet+0xd4>
	}else if(GPIO_Pin == GPIO_Pin_12){
 80019d4:	88fb      	ldrh	r3, [r7, #6]
 80019d6:	f5b3 5f80 	cmp.w	r3, #4096	; 0x1000
 80019da:	d102      	bne.n	80019e2 <_Z9EXTI_Linet+0xaa>
		return EXTI_Line12;
 80019dc:	f44f 5380 	mov.w	r3, #4096	; 0x1000
 80019e0:	e014      	b.n	8001a0c <_Z9EXTI_Linet+0xd4>
	}else if(GPIO_Pin == GPIO_Pin_13){
 80019e2:	88fb      	ldrh	r3, [r7, #6]
 80019e4:	f5b3 5f00 	cmp.w	r3, #8192	; 0x2000
 80019e8:	d102      	bne.n	80019f0 <_Z9EXTI_Linet+0xb8>
		return EXTI_Line13;
 80019ea:	f44f 5300 	mov.w	r3, #8192	; 0x2000
 80019ee:	e00d      	b.n	8001a0c <_Z9EXTI_Linet+0xd4>
	}else if(GPIO_Pin == GPIO_Pin_14){
 80019f0:	88fb      	ldrh	r3, [r7, #6]
 80019f2:	f5b3 4f80 	cmp.w	r3, #16384	; 0x4000
 80019f6:	d102      	bne.n	80019fe <_Z9EXTI_Linet+0xc6>
		return EXTI_Line14;
 80019f8:	f44f 4380 	mov.w	r3, #16384	; 0x4000
 80019fc:	e006      	b.n	8001a0c <_Z9EXTI_Linet+0xd4>
	}else if(GPIO_Pin == GPIO_Pin_15){
 80019fe:	88fb      	ldrh	r3, [r7, #6]
 8001a00:	f5b3 4f00 	cmp.w	r3, #32768	; 0x8000
 8001a04:	d102      	bne.n	8001a0c <_Z9EXTI_Linet+0xd4>
		return EXTI_Line15;
 8001a06:	f44f 4300 	mov.w	r3, #32768	; 0x8000
 8001a0a:	e7ff      	b.n	8001a0c <_Z9EXTI_Linet+0xd4>
	}
}
 8001a0c:	4618      	mov	r0, r3
 8001a0e:	370c      	adds	r7, #12
 8001a10:	46bd      	mov	sp, r7
 8001a12:	f85d 7b04 	ldr.w	r7, [sp], #4
 8001a16:	4770      	bx	lr

08001a18 <_Z15EXTI_PortSourceP12GPIO_TypeDef>:

uint8_t EXTI_PortSource(GPIO_TypeDef* GPIOx){
 8001a18:	b480      	push	{r7}
 8001a1a:	b083      	sub	sp, #12
 8001a1c:	af00      	add	r7, sp, #0
 8001a1e:	6078      	str	r0, [r7, #4]
	if(!IS_GPIO_ALL_PERIPH(GPIOx)){
 8001a20:	687b      	ldr	r3, [r7, #4]
 8001a22:	4a30      	ldr	r2, [pc, #192]	; (8001ae4 <_Z15EXTI_PortSourceP12GPIO_TypeDef+0xcc>)
 8001a24:	4293      	cmp	r3, r2
 8001a26:	d021      	beq.n	8001a6c <_Z15EXTI_PortSourceP12GPIO_TypeDef+0x54>
 8001a28:	687b      	ldr	r3, [r7, #4]
 8001a2a:	4a2f      	ldr	r2, [pc, #188]	; (8001ae8 <_Z15EXTI_PortSourceP12GPIO_TypeDef+0xd0>)
 8001a2c:	4293      	cmp	r3, r2
 8001a2e:	d01d      	beq.n	8001a6c <_Z15EXTI_PortSourceP12GPIO_TypeDef+0x54>
 8001a30:	687b      	ldr	r3, [r7, #4]
 8001a32:	4a2e      	ldr	r2, [pc, #184]	; (8001aec <_Z15EXTI_PortSourceP12GPIO_TypeDef+0xd4>)
 8001a34:	4293      	cmp	r3, r2
 8001a36:	d019      	beq.n	8001a6c <_Z15EXTI_PortSourceP12GPIO_TypeDef+0x54>
 8001a38:	687b      	ldr	r3, [r7, #4]
 8001a3a:	4a2d      	ldr	r2, [pc, #180]	; (8001af0 <_Z15EXTI_PortSourceP12GPIO_TypeDef+0xd8>)
 8001a3c:	4293      	cmp	r3, r2
 8001a3e:	d015      	beq.n	8001a6c <_Z15EXTI_PortSourceP12GPIO_TypeDef+0x54>
 8001a40:	687b      	ldr	r3, [r7, #4]
 8001a42:	4a2c      	ldr	r2, [pc, #176]	; (8001af4 <_Z15EXTI_PortSourceP12GPIO_TypeDef+0xdc>)
 8001a44:	4293      	cmp	r3, r2
 8001a46:	d011      	beq.n	8001a6c <_Z15EXTI_PortSourceP12GPIO_TypeDef+0x54>
 8001a48:	687b      	ldr	r3, [r7, #4]
 8001a4a:	4a2b      	ldr	r2, [pc, #172]	; (8001af8 <_Z15EXTI_PortSourceP12GPIO_TypeDef+0xe0>)
 8001a4c:	4293      	cmp	r3, r2
 8001a4e:	d00d      	beq.n	8001a6c <_Z15EXTI_PortSourceP12GPIO_TypeDef+0x54>
 8001a50:	687b      	ldr	r3, [r7, #4]
 8001a52:	4a2a      	ldr	r2, [pc, #168]	; (8001afc <_Z15EXTI_PortSourceP12GPIO_TypeDef+0xe4>)
 8001a54:	4293      	cmp	r3, r2
 8001a56:	d009      	beq.n	8001a6c <_Z15EXTI_PortSourceP12GPIO_TypeDef+0x54>
 8001a58:	687b      	ldr	r3, [r7, #4]
 8001a5a:	4a29      	ldr	r2, [pc, #164]	; (8001b00 <_Z15EXTI_PortSourceP12GPIO_TypeDef+0xe8>)
 8001a5c:	4293      	cmp	r3, r2
 8001a5e:	d005      	beq.n	8001a6c <_Z15EXTI_PortSourceP12GPIO_TypeDef+0x54>
 8001a60:	687b      	ldr	r3, [r7, #4]
 8001a62:	4a28      	ldr	r2, [pc, #160]	; (8001b04 <_Z15EXTI_PortSourceP12GPIO_TypeDef+0xec>)
 8001a64:	4293      	cmp	r3, r2
 8001a66:	d001      	beq.n	8001a6c <_Z15EXTI_PortSourceP12GPIO_TypeDef+0x54>
		return 0xff;
 8001a68:	23ff      	movs	r3, #255	; 0xff
 8001a6a:	e035      	b.n	8001ad8 <_Z15EXTI_PortSourceP12GPIO_TypeDef+0xc0>
	}

	if(GPIOx == GPIOA){
 8001a6c:	687b      	ldr	r3, [r7, #4]
 8001a6e:	4a1d      	ldr	r2, [pc, #116]	; (8001ae4 <_Z15EXTI_PortSourceP12GPIO_TypeDef+0xcc>)
 8001a70:	4293      	cmp	r3, r2
 8001a72:	d101      	bne.n	8001a78 <_Z15EXTI_PortSourceP12GPIO_TypeDef+0x60>
		return EXTI_PortSourceGPIOA;
 8001a74:	2300      	movs	r3, #0
 8001a76:	e02f      	b.n	8001ad8 <_Z15EXTI_PortSourceP12GPIO_TypeDef+0xc0>
	}else if(GPIOx == GPIOB){
 8001a78:	687b      	ldr	r3, [r7, #4]
 8001a7a:	4a1b      	ldr	r2, [pc, #108]	; (8001ae8 <_Z15EXTI_PortSourceP12GPIO_TypeDef+0xd0>)
 8001a7c:	4293      	cmp	r3, r2
 8001a7e:	d101      	bne.n	8001a84 <_Z15EXTI_PortSourceP12GPIO_TypeDef+0x6c>
		return EXTI_PortSourceGPIOB;
 8001a80:	2301      	movs	r3, #1
 8001a82:	e029      	b.n	8001ad8 <_Z15EXTI_PortSourceP12GPIO_TypeDef+0xc0>
	}else if(GPIOx == GPIOC){
 8001a84:	687b      	ldr	r3, [r7, #4]
 8001a86:	4a19      	ldr	r2, [pc, #100]	; (8001aec <_Z15EXTI_PortSourceP12GPIO_TypeDef+0xd4>)
 8001a88:	4293      	cmp	r3, r2
 8001a8a:	d101      	bne.n	8001a90 <_Z15EXTI_PortSourceP12GPIO_TypeDef+0x78>
		return EXTI_PortSourceGPIOC;
 8001a8c:	2302      	movs	r3, #2
 8001a8e:	e023      	b.n	8001ad8 <_Z15EXTI_PortSourceP12GPIO_TypeDef+0xc0>
	}else if(GPIOx == GPIOD){
 8001a90:	687b      	ldr	r3, [r7, #4]
 8001a92:	4a17      	ldr	r2, [pc, #92]	; (8001af0 <_Z15EXTI_PortSourceP12GPIO_TypeDef+0xd8>)
 8001a94:	4293      	cmp	r3, r2
 8001a96:	d101      	bne.n	8001a9c <_Z15EXTI_PortSourceP12GPIO_TypeDef+0x84>
		return EXTI_PortSourceGPIOD;
 8001a98:	2303      	movs	r3, #3
 8001a9a:	e01d      	b.n	8001ad8 <_Z15EXTI_PortSourceP12GPIO_TypeDef+0xc0>
	}else if(GPIOx == GPIOE){
 8001a9c:	687b      	ldr	r3, [r7, #4]
 8001a9e:	4a15      	ldr	r2, [pc, #84]	; (8001af4 <_Z15EXTI_PortSourceP12GPIO_TypeDef+0xdc>)
 8001aa0:	4293      	cmp	r3, r2
 8001aa2:	d101      	bne.n	8001aa8 <_Z15EXTI_PortSourceP12GPIO_TypeDef+0x90>
		return EXTI_PortSourceGPIOE;
 8001aa4:	2304      	movs	r3, #4
 8001aa6:	e017      	b.n	8001ad8 <_Z15EXTI_PortSourceP12GPIO_TypeDef+0xc0>
	}else if(GPIOx == GPIOF){
 8001aa8:	687b      	ldr	r3, [r7, #4]
 8001aaa:	4a13      	ldr	r2, [pc, #76]	; (8001af8 <_Z15EXTI_PortSourceP12GPIO_TypeDef+0xe0>)
 8001aac:	4293      	cmp	r3, r2
 8001aae:	d101      	bne.n	8001ab4 <_Z15EXTI_PortSourceP12GPIO_TypeDef+0x9c>
		return EXTI_PortSourceGPIOF;
 8001ab0:	2305      	movs	r3, #5
 8001ab2:	e011      	b.n	8001ad8 <_Z15EXTI_PortSourceP12GPIO_TypeDef+0xc0>
	}else if(GPIOx == GPIOG){
 8001ab4:	687b      	ldr	r3, [r7, #4]
 8001ab6:	4a11      	ldr	r2, [pc, #68]	; (8001afc <_Z15EXTI_PortSourceP12GPIO_TypeDef+0xe4>)
 8001ab8:	4293      	cmp	r3, r2
 8001aba:	d101      	bne.n	8001ac0 <_Z15EXTI_PortSourceP12GPIO_TypeDef+0xa8>
		return EXTI_PortSourceGPIOG;
 8001abc:	2306      	movs	r3, #6
 8001abe:	e00b      	b.n	8001ad8 <_Z15EXTI_PortSourceP12GPIO_TypeDef+0xc0>
	}else if(GPIOx == GPIOH){
 8001ac0:	687b      	ldr	r3, [r7, #4]
 8001ac2:	4a0f      	ldr	r2, [pc, #60]	; (8001b00 <_Z15EXTI_PortSourceP12GPIO_TypeDef+0xe8>)
 8001ac4:	4293      	cmp	r3, r2
 8001ac6:	d101      	bne.n	8001acc <_Z15EXTI_PortSourceP12GPIO_TypeDef+0xb4>
		return EXTI_PortSourceGPIOH;
 8001ac8:	2307      	movs	r3, #7
 8001aca:	e005      	b.n	8001ad8 <_Z15EXTI_PortSourceP12GPIO_TypeDef+0xc0>
	}else if(GPIOx == GPIOI){
 8001acc:	687b      	ldr	r3, [r7, #4]
 8001ace:	4a0d      	ldr	r2, [pc, #52]	; (8001b04 <_Z15EXTI_PortSourceP12GPIO_TypeDef+0xec>)
 8001ad0:	4293      	cmp	r3, r2
 8001ad2:	d101      	bne.n	8001ad8 <_Z15EXTI_PortSourceP12GPIO_TypeDef+0xc0>
		return EXTI_PortSourceGPIOI;
 8001ad4:	2308      	movs	r3, #8
 8001ad6:	e7ff      	b.n	8001ad8 <_Z15EXTI_PortSourceP12GPIO_TypeDef+0xc0>
	}
}
 8001ad8:	4618      	mov	r0, r3
 8001ada:	370c      	adds	r7, #12
 8001adc:	46bd      	mov	sp, r7
 8001ade:	f85d 7b04 	ldr.w	r7, [sp], #4
 8001ae2:	4770      	bx	lr
 8001ae4:	40020000 	.word	0x40020000
 8001ae8:	40020400 	.word	0x40020400
 8001aec:	40020800 	.word	0x40020800
 8001af0:	40020c00 	.word	0x40020c00
 8001af4:	40021000 	.word	0x40021000
 8001af8:	40021400 	.word	0x40021400
 8001afc:	40021800 	.word	0x40021800
 8001b00:	40021c00 	.word	0x40021c00
 8001b04:	40022000 	.word	0x40022000

08001b08 <_Z14EXTI_PinSourcet>:

uint8_t EXTI_PinSource(uint16_t GPIO_Pin){
 8001b08:	b480      	push	{r7}
 8001b0a:	b083      	sub	sp, #12
 8001b0c:	af00      	add	r7, sp, #0
 8001b0e:	4603      	mov	r3, r0
 8001b10:	80fb      	strh	r3, [r7, #6]
	if(!IS_GPIO_PIN(GPIO_Pin)){
 8001b12:	88fb      	ldrh	r3, [r7, #6]
 8001b14:	2b00      	cmp	r3, #0
 8001b16:	d101      	bne.n	8001b1c <_Z14EXTI_PinSourcet+0x14>
		return 0xff;
 8001b18:	23ff      	movs	r3, #255	; 0xff
 8001b1a:	e057      	b.n	8001bcc <_Z14EXTI_PinSourcet+0xc4>
	}

	if(GPIO_Pin == GPIO_Pin_0){
 8001b1c:	88fb      	ldrh	r3, [r7, #6]
 8001b1e:	2b01      	cmp	r3, #1
 8001b20:	d101      	bne.n	8001b26 <_Z14EXTI_PinSourcet+0x1e>
		return EXTI_PinSource0;
 8001b22:	2300      	movs	r3, #0
 8001b24:	e052      	b.n	8001bcc <_Z14EXTI_PinSourcet+0xc4>
	}else if(GPIO_Pin == GPIO_Pin_1){
 8001b26:	88fb      	ldrh	r3, [r7, #6]
 8001b28:	2b02      	cmp	r3, #2
 8001b2a:	d101      	bne.n	8001b30 <_Z14EXTI_PinSourcet+0x28>
		return EXTI_PinSource1;
 8001b2c:	2301      	movs	r3, #1
 8001b2e:	e04d      	b.n	8001bcc <_Z14EXTI_PinSourcet+0xc4>
	}else if(GPIO_Pin == GPIO_Pin_2){
 8001b30:	88fb      	ldrh	r3, [r7, #6]
 8001b32:	2b04      	cmp	r3, #4
 8001b34:	d101      	bne.n	8001b3a <_Z14EXTI_PinSourcet+0x32>
		return EXTI_PinSource2;
 8001b36:	2302      	movs	r3, #2
 8001b38:	e048      	b.n	8001bcc <_Z14EXTI_PinSourcet+0xc4>
	}else if(GPIO_Pin == GPIO_Pin_3){
 8001b3a:	88fb      	ldrh	r3, [r7, #6]
 8001b3c:	2b08      	cmp	r3, #8
 8001b3e:	d101      	bne.n	8001b44 <_Z14EXTI_PinSourcet+0x3c>
		return EXTI_PinSource3;
 8001b40:	2303      	movs	r3, #3
 8001b42:	e043      	b.n	8001bcc <_Z14EXTI_PinSourcet+0xc4>
	}else if(GPIO_Pin == GPIO_Pin_4){
 8001b44:	88fb      	ldrh	r3, [r7, #6]
 8001b46:	2b10      	cmp	r3, #16
 8001b48:	d101      	bne.n	8001b4e <_Z14EXTI_PinSourcet+0x46>
		return EXTI_PinSource4;
 8001b4a:	2304      	movs	r3, #4
 8001b4c:	e03e      	b.n	8001bcc <_Z14EXTI_PinSourcet+0xc4>
	}else if(GPIO_Pin == GPIO_Pin_5){
 8001b4e:	88fb      	ldrh	r3, [r7, #6]
 8001b50:	2b20      	cmp	r3, #32
 8001b52:	d101      	bne.n	8001b58 <_Z14EXTI_PinSourcet+0x50>
		return EXTI_PinSource5;
 8001b54:	2305      	movs	r3, #5
 8001b56:	e039      	b.n	8001bcc <_Z14EXTI_PinSourcet+0xc4>
	}else if(GPIO_Pin == GPIO_Pin_6){
 8001b58:	88fb      	ldrh	r3, [r7, #6]
 8001b5a:	2b40      	cmp	r3, #64	; 0x40
 8001b5c:	d101      	bne.n	8001b62 <_Z14EXTI_PinSourcet+0x5a>
		return EXTI_PinSource6;
 8001b5e:	2306      	movs	r3, #6
 8001b60:	e034      	b.n	8001bcc <_Z14EXTI_PinSourcet+0xc4>
	}else if(GPIO_Pin == GPIO_Pin_7){
 8001b62:	88fb      	ldrh	r3, [r7, #6]
 8001b64:	2b80      	cmp	r3, #128	; 0x80
 8001b66:	d101      	bne.n	8001b6c <_Z14EXTI_PinSourcet+0x64>
		return EXTI_PinSource7;
 8001b68:	2307      	movs	r3, #7
 8001b6a:	e02f      	b.n	8001bcc <_Z14EXTI_PinSourcet+0xc4>
	}else if(GPIO_Pin == GPIO_Pin_8){
 8001b6c:	88fb      	ldrh	r3, [r7, #6]
 8001b6e:	f5b3 7f80 	cmp.w	r3, #256	; 0x100
 8001b72:	d101      	bne.n	8001b78 <_Z14EXTI_PinSourcet+0x70>
		return EXTI_PinSource8;
 8001b74:	2308      	movs	r3, #8
 8001b76:	e029      	b.n	8001bcc <_Z14EXTI_PinSourcet+0xc4>
	}else if(GPIO_Pin == GPIO_Pin_9){
 8001b78:	88fb      	ldrh	r3, [r7, #6]
 8001b7a:	f5b3 7f00 	cmp.w	r3, #512	; 0x200
 8001b7e:	d101      	bne.n	8001b84 <_Z14EXTI_PinSourcet+0x7c>
		return EXTI_PinSource9;
 8001b80:	2309      	movs	r3, #9
 8001b82:	e023      	b.n	8001bcc <_Z14EXTI_PinSourcet+0xc4>
	}else if(GPIO_Pin == GPIO_Pin_10){
 8001b84:	88fb      	ldrh	r3, [r7, #6]
 8001b86:	f5b3 6f80 	cmp.w	r3, #1024	; 0x400
 8001b8a:	d101      	bne.n	8001b90 <_Z14EXTI_PinSourcet+0x88>
		return EXTI_PinSource10;
 8001b8c:	230a      	movs	r3, #10
 8001b8e:	e01d      	b.n	8001bcc <_Z14EXTI_PinSourcet+0xc4>
	}else if(GPIO_Pin == GPIO_Pin_11){
 8001b90:	88fb      	ldrh	r3, [r7, #6]
 8001b92:	f5b3 6f00 	cmp.w	r3, #2048	; 0x800
 8001b96:	d101      	bne.n	8001b9c <_Z14EXTI_PinSourcet+0x94>
		return EXTI_PinSource11;
 8001b98:	230b      	movs	r3, #11
 8001b9a:	e017      	b.n	8001bcc <_Z14EXTI_PinSourcet+0xc4>
	}else if(GPIO_Pin == GPIO_Pin_12){
 8001b9c:	88fb      	ldrh	r3, [r7, #6]
 8001b9e:	f5b3 5f80 	cmp.w	r3, #4096	; 0x1000
 8001ba2:	d101      	bne.n	8001ba8 <_Z14EXTI_PinSourcet+0xa0>
		return EXTI_PinSource12;
 8001ba4:	230c      	movs	r3, #12
 8001ba6:	e011      	b.n	8001bcc <_Z14EXTI_PinSourcet+0xc4>
	}else if(GPIO_Pin == GPIO_Pin_13){
 8001ba8:	88fb      	ldrh	r3, [r7, #6]
 8001baa:	f5b3 5f00 	cmp.w	r3, #8192	; 0x2000
 8001bae:	d101      	bne.n	8001bb4 <_Z14EXTI_PinSourcet+0xac>
		return EXTI_PinSource13;
 8001bb0:	230d      	movs	r3, #13
 8001bb2:	e00b      	b.n	8001bcc <_Z14EXTI_PinSourcet+0xc4>
	}else if(GPIO_Pin == GPIO_Pin_14){
 8001bb4:	88fb      	ldrh	r3, [r7, #6]
 8001bb6:	f5b3 4f80 	cmp.w	r3, #16384	; 0x4000
 8001bba:	d101      	bne.n	8001bc0 <_Z14EXTI_PinSourcet+0xb8>
		return EXTI_PinSource14;
 8001bbc:	230e      	movs	r3, #14
 8001bbe:	e005      	b.n	8001bcc <_Z14EXTI_PinSourcet+0xc4>
	}else if(GPIO_Pin == GPIO_Pin_15){
 8001bc0:	88fb      	ldrh	r3, [r7, #6]
 8001bc2:	f5b3 4f00 	cmp.w	r3, #32768	; 0x8000
 8001bc6:	d101      	bne.n	8001bcc <_Z14EXTI_PinSourcet+0xc4>
		return EXTI_PinSource15;
 8001bc8:	230f      	movs	r3, #15
 8001bca:	e7ff      	b.n	8001bcc <_Z14EXTI_PinSourcet+0xc4>
	}
}
 8001bcc:	4618      	mov	r0, r3
 8001bce:	370c      	adds	r7, #12
 8001bd0:	46bd      	mov	sp, r7
 8001bd2:	f85d 7b04 	ldr.w	r7, [sp], #4
 8001bd6:	4770      	bx	lr

08001bd8 <NVIC_SetPriority>:

    \param [in]      IRQn  Interrupt number.
    \param [in]  priority  Priority to set.
 */
__STATIC_INLINE void NVIC_SetPriority(IRQn_Type IRQn, uint32_t priority)
{
 8001bd8:	b480      	push	{r7}
 8001bda:	b083      	sub	sp, #12
 8001bdc:	af00      	add	r7, sp, #0
 8001bde:	4603      	mov	r3, r0
 8001be0:	6039      	str	r1, [r7, #0]
 8001be2:	71fb      	strb	r3, [r7, #7]
  if(IRQn < 0) {
 8001be4:	f997 3007 	ldrsb.w	r3, [r7, #7]
 8001be8:	2b00      	cmp	r3, #0
 8001bea:	da0b      	bge.n	8001c04 <NVIC_SetPriority+0x2c>
    SCB->SHP[((uint32_t)(IRQn) & 0xF)-4] = ((priority << (8 - __NVIC_PRIO_BITS)) & 0xff); } /* set Priority for Cortex-M  System Interrupts */
 8001bec:	490d      	ldr	r1, [pc, #52]	; (8001c24 <NVIC_SetPriority+0x4c>)
 8001bee:	79fb      	ldrb	r3, [r7, #7]
 8001bf0:	f003 030f 	and.w	r3, r3, #15
 8001bf4:	3b04      	subs	r3, #4
 8001bf6:	683a      	ldr	r2, [r7, #0]
 8001bf8:	b2d2      	uxtb	r2, r2
 8001bfa:	0112      	lsls	r2, r2, #4
 8001bfc:	b2d2      	uxtb	r2, r2
 8001bfe:	440b      	add	r3, r1
 8001c00:	761a      	strb	r2, [r3, #24]
  else {
    NVIC->IP[(uint32_t)(IRQn)] = ((priority << (8 - __NVIC_PRIO_BITS)) & 0xff);    }        /* set Priority for device specific Interrupts  */
}
 8001c02:	e009      	b.n	8001c18 <NVIC_SetPriority+0x40>
__STATIC_INLINE void NVIC_SetPriority(IRQn_Type IRQn, uint32_t priority)
{
  if(IRQn < 0) {
    SCB->SHP[((uint32_t)(IRQn) & 0xF)-4] = ((priority << (8 - __NVIC_PRIO_BITS)) & 0xff); } /* set Priority for Cortex-M  System Interrupts */
  else {
    NVIC->IP[(uint32_t)(IRQn)] = ((priority << (8 - __NVIC_PRIO_BITS)) & 0xff);    }        /* set Priority for device specific Interrupts  */
 8001c04:	4908      	ldr	r1, [pc, #32]	; (8001c28 <NVIC_SetPriority+0x50>)
 8001c06:	f997 3007 	ldrsb.w	r3, [r7, #7]
 8001c0a:	683a      	ldr	r2, [r7, #0]
 8001c0c:	b2d2      	uxtb	r2, r2
 8001c0e:	0112      	lsls	r2, r2, #4
 8001c10:	b2d2      	uxtb	r2, r2
 8001c12:	440b      	add	r3, r1
 8001c14:	f883 2300 	strb.w	r2, [r3, #768]	; 0x300
}
 8001c18:	bf00      	nop
 8001c1a:	370c      	adds	r7, #12
 8001c1c:	46bd      	mov	sp, r7
 8001c1e:	f85d 7b04 	ldr.w	r7, [sp], #4
 8001c22:	4770      	bx	lr
 8001c24:	e000ed00 	.word	0xe000ed00
 8001c28:	e000e100 	.word	0xe000e100

08001c2c <SysTick_Config>:
    function <b>SysTick_Config</b> is not included. In this case, the file <b><i>device</i>.h</b>
    must contain a vendor-specific implementation of this function.

 */
__STATIC_INLINE uint32_t SysTick_Config(uint32_t ticks)
{
 8001c2c:	b580      	push	{r7, lr}
 8001c2e:	b082      	sub	sp, #8
 8001c30:	af00      	add	r7, sp, #0
 8001c32:	6078      	str	r0, [r7, #4]
  if (ticks > SysTick_LOAD_RELOAD_Msk)  return (1);            /* Reload value impossible */
 8001c34:	687b      	ldr	r3, [r7, #4]
 8001c36:	f1b3 7f80 	cmp.w	r3, #16777216	; 0x1000000
 8001c3a:	d301      	bcc.n	8001c40 <SysTick_Config+0x14>
 8001c3c:	2301      	movs	r3, #1
 8001c3e:	e011      	b.n	8001c64 <SysTick_Config+0x38>

  SysTick->LOAD  = (ticks & SysTick_LOAD_RELOAD_Msk) - 1;      /* set reload register */
 8001c40:	4a0a      	ldr	r2, [pc, #40]	; (8001c6c <SysTick_Config+0x40>)
 8001c42:	687b      	ldr	r3, [r7, #4]
 8001c44:	f023 437f 	bic.w	r3, r3, #4278190080	; 0xff000000
 8001c48:	3b01      	subs	r3, #1
 8001c4a:	6053      	str	r3, [r2, #4]
  NVIC_SetPriority (SysTick_IRQn, (1<<__NVIC_PRIO_BITS) - 1);  /* set Priority for Systick Interrupt */
 8001c4c:	210f      	movs	r1, #15
 8001c4e:	f04f 30ff 	mov.w	r0, #4294967295
 8001c52:	f7ff ffc1 	bl	8001bd8 <NVIC_SetPriority>
  SysTick->VAL   = 0;                                          /* Load the SysTick Counter Value */
 8001c56:	4b05      	ldr	r3, [pc, #20]	; (8001c6c <SysTick_Config+0x40>)
 8001c58:	2200      	movs	r2, #0
 8001c5a:	609a      	str	r2, [r3, #8]
  SysTick->CTRL  = SysTick_CTRL_CLKSOURCE_Msk |
 8001c5c:	4b03      	ldr	r3, [pc, #12]	; (8001c6c <SysTick_Config+0x40>)
                   SysTick_CTRL_TICKINT_Msk   |
                   SysTick_CTRL_ENABLE_Msk;                    /* Enable SysTick IRQ and SysTick Timer */
 8001c5e:	2207      	movs	r2, #7
 8001c60:	601a      	str	r2, [r3, #0]
  return (0);                                                  /* Function successful */
 8001c62:	2300      	movs	r3, #0
}
 8001c64:	4618      	mov	r0, r3
 8001c66:	3708      	adds	r7, #8
 8001c68:	46bd      	mov	sp, r7
 8001c6a:	bd80      	pop	{r7, pc}
 8001c6c:	e000e010 	.word	0xe000e010

08001c70 <_ZN3NRF7IRQ_PinEv>:
		GPIO_TypeDef* CS_GPIO 	= GPIOA,uint16_t CS_Pin  = GPIO_Pin_4,
		GPIO_TypeDef* SCK_GPIO 	= GPIOA,uint16_t SCK_Pin = GPIO_Pin_5,
		GPIO_TypeDef* MISO_GPIO = GPIOA,uint16_t MISO_Pin=GPIO_Pin_6,
		GPIO_TypeDef* MOSI_GPIO = GPIOA,uint16_t MOSI_Pin=GPIO_Pin_7);
	void begin();
	uint16_t IRQ_Pin(){return NRF_IRQ_Pin;};
 8001c70:	b480      	push	{r7}
 8001c72:	b083      	sub	sp, #12
 8001c74:	af00      	add	r7, sp, #0
 8001c76:	6078      	str	r0, [r7, #4]
 8001c78:	687b      	ldr	r3, [r7, #4]
 8001c7a:	f8b3 30d4 	ldrh.w	r3, [r3, #212]	; 0xd4
 8001c7e:	4618      	mov	r0, r3
 8001c80:	370c      	adds	r7, #12
 8001c82:	46bd      	mov	sp, r7
 8001c84:	f85d 7b04 	ldr.w	r7, [sp], #4
 8001c88:	4770      	bx	lr
 8001c8a:	bf00      	nop

08001c8c <main>:
uint8_t USB_receive_and_put(NRF* radio_ptr);

NRF* radio_ptr;

int main(void)
{
 8001c8c:	b580      	push	{r7, lr}
 8001c8e:	b0c0      	sub	sp, #256	; 0x100
 8001c90:	af0a      	add	r7, sp, #40	; 0x28
  SysTick_Config(SystemCoreClock/1000);
 8001c92:	4b2b      	ldr	r3, [pc, #172]	; (8001d40 <main+0xb4>)
 8001c94:	681b      	ldr	r3, [r3, #0]
 8001c96:	4a2b      	ldr	r2, [pc, #172]	; (8001d44 <main+0xb8>)
 8001c98:	fba2 2303 	umull	r2, r3, r2, r3
 8001c9c:	099b      	lsrs	r3, r3, #6
 8001c9e:	4618      	mov	r0, r3
 8001ca0:	f7ff ffc4 	bl	8001c2c <SysTick_Config>
  *  See also the <system_*.c> file and how the SystemInit() function updates 
  *  SCB->VTOR register.  
  *  E.g.  SCB->VTOR = 0x20000000;  
  */

  STM_EVAL_LEDInit(LED3);
 8001ca4:	2001      	movs	r0, #1
 8001ca6:	f000 f9f5 	bl	8002094 <STM_EVAL_LEDInit>
  STM_EVAL_LEDInit(LED4);
 8001caa:	2000      	movs	r0, #0
 8001cac:	f000 f9f2 	bl	8002094 <STM_EVAL_LEDInit>
  STM_EVAL_LEDInit(LED5);
 8001cb0:	2002      	movs	r0, #2
 8001cb2:	f000 f9ef 	bl	8002094 <STM_EVAL_LEDInit>
  STM_EVAL_LEDInit(LED6);
 8001cb6:	2003      	movs	r0, #3
 8001cb8:	f000 f9ec 	bl	8002094 <STM_EVAL_LEDInit>

  NRF radio;//inicializa o NRF com os pinos default, deixa em POWER_UP
 8001cbc:	4638      	mov	r0, r7
 8001cbe:	2380      	movs	r3, #128	; 0x80
 8001cc0:	9309      	str	r3, [sp, #36]	; 0x24
 8001cc2:	4b21      	ldr	r3, [pc, #132]	; (8001d48 <main+0xbc>)
 8001cc4:	9308      	str	r3, [sp, #32]
 8001cc6:	2340      	movs	r3, #64	; 0x40
 8001cc8:	9307      	str	r3, [sp, #28]
 8001cca:	4b1f      	ldr	r3, [pc, #124]	; (8001d48 <main+0xbc>)
 8001ccc:	9306      	str	r3, [sp, #24]
 8001cce:	2320      	movs	r3, #32
 8001cd0:	9305      	str	r3, [sp, #20]
 8001cd2:	4b1d      	ldr	r3, [pc, #116]	; (8001d48 <main+0xbc>)
 8001cd4:	9304      	str	r3, [sp, #16]
 8001cd6:	2310      	movs	r3, #16
 8001cd8:	9303      	str	r3, [sp, #12]
 8001cda:	4b1b      	ldr	r3, [pc, #108]	; (8001d48 <main+0xbc>)
 8001cdc:	9302      	str	r3, [sp, #8]
 8001cde:	4b1b      	ldr	r3, [pc, #108]	; (8001d4c <main+0xc0>)
 8001ce0:	9301      	str	r3, [sp, #4]
 8001ce2:	2320      	movs	r3, #32
 8001ce4:	9300      	str	r3, [sp, #0]
 8001ce6:	4b1a      	ldr	r3, [pc, #104]	; (8001d50 <main+0xc4>)
 8001ce8:	2208      	movs	r2, #8
 8001cea:	4917      	ldr	r1, [pc, #92]	; (8001d48 <main+0xbc>)
 8001cec:	f7fe ff02 	bl	8000af4 <_ZN3NRFC1EP12GPIO_TypeDeftS1_tP11SPI_TypeDefS1_tS1_tS1_tS1_t>
  radio_ptr=&radio;
 8001cf0:	4a18      	ldr	r2, [pc, #96]	; (8001d54 <main+0xc8>)
 8001cf2:	463b      	mov	r3, r7
 8001cf4:	6013      	str	r3, [r2, #0]
  radio.RX_configure();
 8001cf6:	463b      	mov	r3, r7
 8001cf8:	4618      	mov	r0, r3
 8001cfa:	f7ff fb13 	bl	8001324 <_ZN3NRF12RX_configureEv>
  radio.start_listen();
 8001cfe:	463b      	mov	r3, r7
 8001d00:	4618      	mov	r0, r3
 8001d02:	f7ff fa59 	bl	80011b8 <_ZN3NRF12start_listenEv>

  //inicialização do USB
  USBD_Init(&USB_OTG_dev, USB_OTG_FS_CORE_ID, &USR_desc, &USBD_CDC_cb, &USR_cb);
 8001d06:	4b14      	ldr	r3, [pc, #80]	; (8001d58 <main+0xcc>)
 8001d08:	9300      	str	r3, [sp, #0]
 8001d0a:	4b14      	ldr	r3, [pc, #80]	; (8001d5c <main+0xd0>)
 8001d0c:	4a14      	ldr	r2, [pc, #80]	; (8001d60 <main+0xd4>)
 8001d0e:	2101      	movs	r1, #1
 8001d10:	4814      	ldr	r0, [pc, #80]	; (8001d64 <main+0xd8>)
 8001d12:	f003 f84d 	bl	8004db0 <USBD_Init>

  /* Infinite loop */
  while (1)
  {
	  if(!GPIO_ReadInputDataBit(GPIOC, GPIO_Pin_5))
 8001d16:	2120      	movs	r1, #32
 8001d18:	480d      	ldr	r0, [pc, #52]	; (8001d50 <main+0xc4>)
 8001d1a:	f004 f941 	bl	8005fa0 <GPIO_ReadInputDataBit>
 8001d1e:	4603      	mov	r3, r0
 8001d20:	2b00      	cmp	r3, #0
 8001d22:	bf0c      	ite	eq
 8001d24:	2301      	moveq	r3, #1
 8001d26:	2300      	movne	r3, #0
 8001d28:	b2db      	uxtb	r3, r3
 8001d2a:	2b00      	cmp	r3, #0
 8001d2c:	d003      	beq.n	8001d36 <main+0xaa>
		  STM_EVAL_LEDOn(LED3);
 8001d2e:	2001      	movs	r0, #1
 8001d30:	f000 f9de 	bl	80020f0 <STM_EVAL_LEDOn>
 8001d34:	e7ef      	b.n	8001d16 <main+0x8a>
	  else
		  STM_EVAL_LEDOff(LED3);
 8001d36:	2001      	movs	r0, #1
 8001d38:	f000 f9f2 	bl	8002120 <STM_EVAL_LEDOff>

  //inicialização do USB
  USBD_Init(&USB_OTG_dev, USB_OTG_FS_CORE_ID, &USR_desc, &USBD_CDC_cb, &USR_cb);

  /* Infinite loop */
  while (1)
 8001d3c:	e7eb      	b.n	8001d16 <main+0x8a>
 8001d3e:	bf00      	nop
 8001d40:	20000000 	.word	0x20000000
 8001d44:	10624dd3 	.word	0x10624dd3
 8001d48:	40020000 	.word	0x40020000
 8001d4c:	40013000 	.word	0x40013000
 8001d50:	40020800 	.word	0x40020800
 8001d54:	200007ac 	.word	0x200007ac
 8001d58:	200000e4 	.word	0x200000e4
 8001d5c:	200000b8 	.word	0x200000b8
 8001d60:	20000100 	.word	0x20000100
 8001d64:	200001bc 	.word	0x200001bc

08001d68 <_Z19USB_receive_and_putP3NRF>:
	  else
		  STM_EVAL_LEDOff(LED3);
  }
}

uint8_t USB_receive_and_put(NRF* radio_ptr){
 8001d68:	b580      	push	{r7, lr}
 8001d6a:	b082      	sub	sp, #8
 8001d6c:	af00      	add	r7, sp, #0
 8001d6e:	6078      	str	r0, [r7, #4]
	static uint8_t data[]={0,0,0,0,0};
	//passa por aqui

	if(radio_ptr->RECEIVE(data)){
 8001d70:	490b      	ldr	r1, [pc, #44]	; (8001da0 <_Z19USB_receive_and_putP3NRF+0x38>)
 8001d72:	6878      	ldr	r0, [r7, #4]
 8001d74:	f7ff fa38 	bl	80011e8 <_ZN3NRF7RECEIVEEPh>
 8001d78:	4603      	mov	r3, r0
 8001d7a:	2b00      	cmp	r3, #0
 8001d7c:	bf14      	ite	ne
 8001d7e:	2301      	movne	r3, #1
 8001d80:	2300      	moveq	r3, #0
 8001d82:	b2db      	uxtb	r3, r3
 8001d84:	2b00      	cmp	r3, #0
 8001d86:	d005      	beq.n	8001d94 <_Z19USB_receive_and_putP3NRF+0x2c>
		VCP_send_buffer(data,5);
 8001d88:	2105      	movs	r1, #5
 8001d8a:	4805      	ldr	r0, [pc, #20]	; (8001da0 <_Z19USB_receive_and_putP3NRF+0x38>)
 8001d8c:	f003 faa6 	bl	80052dc <VCP_send_buffer>
		return 1;
 8001d90:	2301      	movs	r3, #1
 8001d92:	e000      	b.n	8001d96 <_Z19USB_receive_and_putP3NRF+0x2e>
	}
	else{
		return 0;
 8001d94:	2300      	movs	r3, #0
	}
}
 8001d96:	4618      	mov	r0, r3
 8001d98:	3708      	adds	r7, #8
 8001d9a:	46bd      	mov	sp, r7
 8001d9c:	bd80      	pop	{r7, pc}
 8001d9e:	bf00      	nop
 8001da0:	200007b0 	.word	0x200007b0

08001da4 <EXTI0_IRQHandler>:

void EXTI0_IRQHandler(){
 8001da4:	b580      	push	{r7, lr}
 8001da6:	af00      	add	r7, sp, #0
	USB_receive_and_put(radio_ptr);
 8001da8:	4b06      	ldr	r3, [pc, #24]	; (8001dc4 <EXTI0_IRQHandler+0x20>)
 8001daa:	681b      	ldr	r3, [r3, #0]
 8001dac:	4618      	mov	r0, r3
 8001dae:	f7ff ffdb 	bl	8001d68 <_Z19USB_receive_and_putP3NRF>
	EXTI_ClearITPendingBit(EXTI_Line0);
 8001db2:	2001      	movs	r0, #1
 8001db4:	f004 f9ea 	bl	800618c <EXTI_ClearITPendingBit>
	STM_EVAL_LEDToggle(LED6);//indicador de sucesso
 8001db8:	2003      	movs	r0, #3
 8001dba:	f000 f9c9 	bl	8002150 <STM_EVAL_LEDToggle>
	return;
 8001dbe:	bf00      	nop
}
 8001dc0:	bd80      	pop	{r7, pc}
 8001dc2:	bf00      	nop
 8001dc4:	200007ac 	.word	0x200007ac

08001dc8 <EXTI1_IRQHandler>:

void EXTI1_IRQHandler(){
 8001dc8:	b580      	push	{r7, lr}
 8001dca:	af00      	add	r7, sp, #0
	USB_receive_and_put(radio_ptr);
 8001dcc:	4b06      	ldr	r3, [pc, #24]	; (8001de8 <EXTI1_IRQHandler+0x20>)
 8001dce:	681b      	ldr	r3, [r3, #0]
 8001dd0:	4618      	mov	r0, r3
 8001dd2:	f7ff ffc9 	bl	8001d68 <_Z19USB_receive_and_putP3NRF>
	EXTI_ClearITPendingBit(EXTI_Line1);
 8001dd6:	2002      	movs	r0, #2
 8001dd8:	f004 f9d8 	bl	800618c <EXTI_ClearITPendingBit>
	STM_EVAL_LEDToggle(LED6);//indicador de sucesso
 8001ddc:	2003      	movs	r0, #3
 8001dde:	f000 f9b7 	bl	8002150 <STM_EVAL_LEDToggle>
	return;
 8001de2:	bf00      	nop
}
 8001de4:	bd80      	pop	{r7, pc}
 8001de6:	bf00      	nop
 8001de8:	200007ac 	.word	0x200007ac

08001dec <EXTI2_IRQHandler>:

void EXTI2_IRQHandler(){
 8001dec:	b580      	push	{r7, lr}
 8001dee:	af00      	add	r7, sp, #0
	USB_receive_and_put(radio_ptr);
 8001df0:	4b06      	ldr	r3, [pc, #24]	; (8001e0c <EXTI2_IRQHandler+0x20>)
 8001df2:	681b      	ldr	r3, [r3, #0]
 8001df4:	4618      	mov	r0, r3
 8001df6:	f7ff ffb7 	bl	8001d68 <_Z19USB_receive_and_putP3NRF>
	EXTI_ClearITPendingBit(EXTI_Line2);
 8001dfa:	2004      	movs	r0, #4
 8001dfc:	f004 f9c6 	bl	800618c <EXTI_ClearITPendingBit>
	STM_EVAL_LEDToggle(LED6);//indicador de sucesso
 8001e00:	2003      	movs	r0, #3
 8001e02:	f000 f9a5 	bl	8002150 <STM_EVAL_LEDToggle>
	return;
 8001e06:	bf00      	nop
}
 8001e08:	bd80      	pop	{r7, pc}
 8001e0a:	bf00      	nop
 8001e0c:	200007ac 	.word	0x200007ac

08001e10 <EXTI3_IRQHandler>:

void EXTI3_IRQHandler(){
 8001e10:	b580      	push	{r7, lr}
 8001e12:	af00      	add	r7, sp, #0
	USB_receive_and_put(radio_ptr);
 8001e14:	4b06      	ldr	r3, [pc, #24]	; (8001e30 <EXTI3_IRQHandler+0x20>)
 8001e16:	681b      	ldr	r3, [r3, #0]
 8001e18:	4618      	mov	r0, r3
 8001e1a:	f7ff ffa5 	bl	8001d68 <_Z19USB_receive_and_putP3NRF>
	EXTI_ClearITPendingBit(EXTI_Line3);
 8001e1e:	2008      	movs	r0, #8
 8001e20:	f004 f9b4 	bl	800618c <EXTI_ClearITPendingBit>
	STM_EVAL_LEDToggle(LED6);//indicador de sucesso
 8001e24:	2003      	movs	r0, #3
 8001e26:	f000 f993 	bl	8002150 <STM_EVAL_LEDToggle>
	return;
 8001e2a:	bf00      	nop
}
 8001e2c:	bd80      	pop	{r7, pc}
 8001e2e:	bf00      	nop
 8001e30:	200007ac 	.word	0x200007ac

08001e34 <EXTI4_IRQHandler>:

void EXTI4_IRQHandler(){
 8001e34:	b580      	push	{r7, lr}
 8001e36:	af00      	add	r7, sp, #0
	USB_receive_and_put(radio_ptr);
 8001e38:	4b06      	ldr	r3, [pc, #24]	; (8001e54 <EXTI4_IRQHandler+0x20>)
 8001e3a:	681b      	ldr	r3, [r3, #0]
 8001e3c:	4618      	mov	r0, r3
 8001e3e:	f7ff ff93 	bl	8001d68 <_Z19USB_receive_and_putP3NRF>
	EXTI_ClearITPendingBit(EXTI_Line4);
 8001e42:	2010      	movs	r0, #16
 8001e44:	f004 f9a2 	bl	800618c <EXTI_ClearITPendingBit>
	STM_EVAL_LEDToggle(LED6);//indicador de sucesso
 8001e48:	2003      	movs	r0, #3
 8001e4a:	f000 f981 	bl	8002150 <STM_EVAL_LEDToggle>
	return;
 8001e4e:	bf00      	nop
}
 8001e50:	bd80      	pop	{r7, pc}
 8001e52:	bf00      	nop
 8001e54:	200007ac 	.word	0x200007ac

08001e58 <EXTI9_5_IRQHandler>:

void EXTI9_5_IRQHandler(){
 8001e58:	b580      	push	{r7, lr}
 8001e5a:	af00      	add	r7, sp, #0
	//passa por aqui
	USB_receive_and_put(radio_ptr);
 8001e5c:	4b0b      	ldr	r3, [pc, #44]	; (8001e8c <EXTI9_5_IRQHandler+0x34>)
 8001e5e:	681b      	ldr	r3, [r3, #0]
 8001e60:	4618      	mov	r0, r3
 8001e62:	f7ff ff81 	bl	8001d68 <_Z19USB_receive_and_putP3NRF>
	//NÃO passa por aqui
	//contém 1 na posição correspondente às linhas que têm IT para tratar
	EXTI_ClearITPendingBit(EXTI_Line(radio_ptr->IRQ_Pin()));
 8001e66:	4b09      	ldr	r3, [pc, #36]	; (8001e8c <EXTI9_5_IRQHandler+0x34>)
 8001e68:	681b      	ldr	r3, [r3, #0]
 8001e6a:	4618      	mov	r0, r3
 8001e6c:	f7ff ff00 	bl	8001c70 <_ZN3NRF7IRQ_PinEv>
 8001e70:	4603      	mov	r3, r0
 8001e72:	4618      	mov	r0, r3
 8001e74:	f7ff fd60 	bl	8001938 <_Z9EXTI_Linet>
 8001e78:	4603      	mov	r3, r0
 8001e7a:	4618      	mov	r0, r3
 8001e7c:	f004 f986 	bl	800618c <EXTI_ClearITPendingBit>
	STM_EVAL_LEDToggle(LED6);//indicador de sucesso
 8001e80:	2003      	movs	r0, #3
 8001e82:	f000 f965 	bl	8002150 <STM_EVAL_LEDToggle>
//	STM_EVAL_LEDToggle(LED5);
	return;
 8001e86:	bf00      	nop
}
 8001e88:	bd80      	pop	{r7, pc}
 8001e8a:	bf00      	nop
 8001e8c:	200007ac 	.word	0x200007ac

08001e90 <EXTI15_10_IRQHandler>:

void EXTI15_10_IRQHandler(){
 8001e90:	b580      	push	{r7, lr}
 8001e92:	af00      	add	r7, sp, #0
	USB_receive_and_put(radio_ptr);
 8001e94:	4b0b      	ldr	r3, [pc, #44]	; (8001ec4 <EXTI15_10_IRQHandler+0x34>)
 8001e96:	681b      	ldr	r3, [r3, #0]
 8001e98:	4618      	mov	r0, r3
 8001e9a:	f7ff ff65 	bl	8001d68 <_Z19USB_receive_and_putP3NRF>
	//contém 1 na posição correspondente às linhas que têm IT para tratar
	EXTI_ClearITPendingBit(EXTI_Line(radio_ptr->IRQ_Pin()));
 8001e9e:	4b09      	ldr	r3, [pc, #36]	; (8001ec4 <EXTI15_10_IRQHandler+0x34>)
 8001ea0:	681b      	ldr	r3, [r3, #0]
 8001ea2:	4618      	mov	r0, r3
 8001ea4:	f7ff fee4 	bl	8001c70 <_ZN3NRF7IRQ_PinEv>
 8001ea8:	4603      	mov	r3, r0
 8001eaa:	4618      	mov	r0, r3
 8001eac:	f7ff fd44 	bl	8001938 <_Z9EXTI_Linet>
 8001eb0:	4603      	mov	r3, r0
 8001eb2:	4618      	mov	r0, r3
 8001eb4:	f004 f96a 	bl	800618c <EXTI_ClearITPendingBit>
	STM_EVAL_LEDToggle(LED6);//indicador de sucesso
 8001eb8:	2003      	movs	r0, #3
 8001eba:	f000 f949 	bl	8002150 <STM_EVAL_LEDToggle>
	return;
 8001ebe:	bf00      	nop
}
 8001ec0:	bd80      	pop	{r7, pc}
 8001ec2:	bf00      	nop
 8001ec4:	200007ac 	.word	0x200007ac

08001ec8 <OTG_FS_IRQHandler>:
}
}
*/

void OTG_FS_IRQHandler(void)
{
 8001ec8:	b580      	push	{r7, lr}
 8001eca:	af00      	add	r7, sp, #0
  USBD_OTG_ISR_Handler (&USB_OTG_dev);
 8001ecc:	4802      	ldr	r0, [pc, #8]	; (8001ed8 <OTG_FS_IRQHandler+0x10>)
 8001ece:	f000 f95d 	bl	800218c <USBD_OTG_ISR_Handler>
}
 8001ed2:	bf00      	nop
 8001ed4:	bd80      	pop	{r7, pc}
 8001ed6:	bf00      	nop
 8001ed8:	200001bc 	.word	0x200001bc

08001edc <OTG_FS_WKUP_IRQHandler>:

void OTG_FS_WKUP_IRQHandler(void)
{
 8001edc:	b580      	push	{r7, lr}
 8001ede:	af00      	add	r7, sp, #0
  if(USB_OTG_dev.cfg.low_power)
 8001ee0:	4b0a      	ldr	r3, [pc, #40]	; (8001f0c <OTG_FS_WKUP_IRQHandler+0x30>)
 8001ee2:	7a9b      	ldrb	r3, [r3, #10]
 8001ee4:	2b00      	cmp	r3, #0
 8001ee6:	d00a      	beq.n	8001efe <OTG_FS_WKUP_IRQHandler+0x22>
  {
    *(uint32_t *)(0xE000ED10) &= 0xFFFFFFF9 ;
 8001ee8:	4a09      	ldr	r2, [pc, #36]	; (8001f10 <OTG_FS_WKUP_IRQHandler+0x34>)
 8001eea:	4b09      	ldr	r3, [pc, #36]	; (8001f10 <OTG_FS_WKUP_IRQHandler+0x34>)
 8001eec:	681b      	ldr	r3, [r3, #0]
 8001eee:	f023 0306 	bic.w	r3, r3, #6
 8001ef2:	6013      	str	r3, [r2, #0]
    SystemInit();
 8001ef4:	f7fe f968 	bl	80001c8 <SystemInit>
    USB_OTG_UngateClock(&USB_OTG_dev);
 8001ef8:	4804      	ldr	r0, [pc, #16]	; (8001f0c <OTG_FS_WKUP_IRQHandler+0x30>)
 8001efa:	f002 f9fd 	bl	80042f8 <USB_OTG_UngateClock>
  }
  EXTI_ClearITPendingBit(EXTI_Line18);
 8001efe:	f44f 2080 	mov.w	r0, #262144	; 0x40000
 8001f02:	f004 f943 	bl	800618c <EXTI_ClearITPendingBit>
}
 8001f06:	bf00      	nop
 8001f08:	bd80      	pop	{r7, pc}
 8001f0a:	bf00      	nop
 8001f0c:	200001bc 	.word	0x200001bc
 8001f10:	e000ed10 	.word	0xe000ed10

08001f14 <EVAL_AUDIO_TransferComplete_CallBack>:

/*
 * Callback used by stm32f4_discovery_audio_codec.c.
 * Refer to stm32f4_discovery_audio_codec.h for more info.
 */
extern "C" void EVAL_AUDIO_TransferComplete_CallBack(uint32_t pBuffer, uint32_t Size){
 8001f14:	b480      	push	{r7}
 8001f16:	b083      	sub	sp, #12
 8001f18:	af00      	add	r7, sp, #0
 8001f1a:	6078      	str	r0, [r7, #4]
 8001f1c:	6039      	str	r1, [r7, #0]
  /* TODO, implement your code here */
  return;
 8001f1e:	bf00      	nop
}
 8001f20:	370c      	adds	r7, #12
 8001f22:	46bd      	mov	sp, r7
 8001f24:	f85d 7b04 	ldr.w	r7, [sp], #4
 8001f28:	4770      	bx	lr
 8001f2a:	bf00      	nop

08001f2c <EVAL_AUDIO_GetSampleCallBack>:

/*
 * Callback used by stm324xg_eval_audio_codec.c.
 * Refer to stm324xg_eval_audio_codec.h for more info.
 */
extern "C" uint16_t EVAL_AUDIO_GetSampleCallBack(void){
 8001f2c:	b480      	push	{r7}
 8001f2e:	af00      	add	r7, sp, #0
  /* TODO, implement your code here */
  return -1;
 8001f30:	f64f 73ff 	movw	r3, #65535	; 0xffff
}
 8001f34:	4618      	mov	r0, r3
 8001f36:	46bd      	mov	sp, r7
 8001f38:	f85d 7b04 	ldr.w	r7, [sp], #4
 8001f3c:	4770      	bx	lr
 8001f3e:	bf00      	nop

08001f40 <Audio_MAL_IRQHandler>:
  * @brief  This function handles main Media layer interrupt. 
  * @param  None
  * @retval 0 if correct communication, else wrong communication
  */
static void Audio_MAL_IRQHandler(void)
{    
 8001f40:	b580      	push	{r7, lr}
 8001f42:	af00      	add	r7, sp, #0
  uint32_t Size = AudioRemSize;
#endif /* AUDIO_MAL_MODE_NORMAL */
  
#ifdef AUDIO_MAL_DMA_IT_TC_EN
  /* Transfer complete interrupt */
  if (DMA_GetFlagStatus(AUDIO_MAL_DMA_STREAM, AUDIO_MAL_DMA_FLAG_TC) != RESET)
 8001f44:	4b37      	ldr	r3, [pc, #220]	; (8002024 <Audio_MAL_IRQHandler+0xe4>)
 8001f46:	681a      	ldr	r2, [r3, #0]
 8001f48:	4b37      	ldr	r3, [pc, #220]	; (8002028 <Audio_MAL_IRQHandler+0xe8>)
 8001f4a:	681b      	ldr	r3, [r3, #0]
 8001f4c:	4619      	mov	r1, r3
 8001f4e:	4610      	mov	r0, r2
 8001f50:	f004 f9b8 	bl	80062c4 <DMA_GetFlagStatus>
 8001f54:	4603      	mov	r3, r0
 8001f56:	2b00      	cmp	r3, #0
 8001f58:	d062      	beq.n	8002020 <Audio_MAL_IRQHandler+0xe0>
  {         
 #ifdef AUDIO_MAL_MODE_NORMAL
    /* Check if the end of file has been reached */
    if (AudioRemSize > 0)
 8001f5a:	4b34      	ldr	r3, [pc, #208]	; (800202c <Audio_MAL_IRQHandler+0xec>)
 8001f5c:	681b      	ldr	r3, [r3, #0]
 8001f5e:	2b00      	cmp	r3, #0
 8001f60:	d04a      	beq.n	8001ff8 <Audio_MAL_IRQHandler+0xb8>
    {      
      /* Wait the DMA Stream to be effectively disabled */
      while (DMA_GetCmdStatus(AUDIO_MAL_DMA_STREAM) != DISABLE)
 8001f62:	bf00      	nop
 8001f64:	4b2f      	ldr	r3, [pc, #188]	; (8002024 <Audio_MAL_IRQHandler+0xe4>)
 8001f66:	681b      	ldr	r3, [r3, #0]
 8001f68:	4618      	mov	r0, r3
 8001f6a:	f004 f993 	bl	8006294 <DMA_GetCmdStatus>
 8001f6e:	4603      	mov	r3, r0
 8001f70:	2b00      	cmp	r3, #0
 8001f72:	d1f7      	bne.n	8001f64 <Audio_MAL_IRQHandler+0x24>
      {}
      
      /* Clear the Interrupt flag */
      DMA_ClearFlag(AUDIO_MAL_DMA_STREAM, AUDIO_MAL_DMA_FLAG_TC); 
 8001f74:	4b2b      	ldr	r3, [pc, #172]	; (8002024 <Audio_MAL_IRQHandler+0xe4>)
 8001f76:	681a      	ldr	r2, [r3, #0]
 8001f78:	4b2b      	ldr	r3, [pc, #172]	; (8002028 <Audio_MAL_IRQHandler+0xe8>)
 8001f7a:	681b      	ldr	r3, [r3, #0]
 8001f7c:	4619      	mov	r1, r3
 8001f7e:	4610      	mov	r0, r2
 8001f80:	f004 f9dc 	bl	800633c <DMA_ClearFlag>
           
      /* Re-Configure the buffer address and size */
      DMA_InitStructure.DMA_Memory0BaseAddr = (uint32_t) CurrentPos;
 8001f84:	4b2a      	ldr	r3, [pc, #168]	; (8002030 <Audio_MAL_IRQHandler+0xf0>)
 8001f86:	681b      	ldr	r3, [r3, #0]
 8001f88:	461a      	mov	r2, r3
 8001f8a:	4b2a      	ldr	r3, [pc, #168]	; (8002034 <Audio_MAL_IRQHandler+0xf4>)
 8001f8c:	609a      	str	r2, [r3, #8]
      DMA_InitStructure.DMA_BufferSize = (uint32_t) (DMA_MAX(AudioRemSize));
 8001f8e:	4b27      	ldr	r3, [pc, #156]	; (800202c <Audio_MAL_IRQHandler+0xec>)
 8001f90:	681b      	ldr	r3, [r3, #0]
 8001f92:	f64f 72ff 	movw	r2, #65535	; 0xffff
 8001f96:	4293      	cmp	r3, r2
 8001f98:	bf28      	it	cs
 8001f9a:	4613      	movcs	r3, r2
 8001f9c:	4a25      	ldr	r2, [pc, #148]	; (8002034 <Audio_MAL_IRQHandler+0xf4>)
 8001f9e:	6113      	str	r3, [r2, #16]
            
      /* Configure the DMA Stream with the new parameters */
      DMA_Init(AUDIO_MAL_DMA_STREAM, &DMA_InitStructure);
 8001fa0:	4b20      	ldr	r3, [pc, #128]	; (8002024 <Audio_MAL_IRQHandler+0xe4>)
 8001fa2:	681b      	ldr	r3, [r3, #0]
 8001fa4:	4923      	ldr	r1, [pc, #140]	; (8002034 <Audio_MAL_IRQHandler+0xf4>)
 8001fa6:	4618      	mov	r0, r3
 8001fa8:	f004 f900 	bl	80061ac <DMA_Init>
      
      /* Enable the I2S DMA Stream*/
      DMA_Cmd(AUDIO_MAL_DMA_STREAM, ENABLE);    
 8001fac:	4b1d      	ldr	r3, [pc, #116]	; (8002024 <Audio_MAL_IRQHandler+0xe4>)
 8001fae:	681b      	ldr	r3, [r3, #0]
 8001fb0:	2101      	movs	r1, #1
 8001fb2:	4618      	mov	r0, r3
 8001fb4:	f004 f952 	bl	800625c <DMA_Cmd>
      
      /* Update the current pointer position */
      CurrentPos += DMA_MAX(AudioRemSize);        
 8001fb8:	4b1d      	ldr	r3, [pc, #116]	; (8002030 <Audio_MAL_IRQHandler+0xf0>)
 8001fba:	681a      	ldr	r2, [r3, #0]
 8001fbc:	4b1b      	ldr	r3, [pc, #108]	; (800202c <Audio_MAL_IRQHandler+0xec>)
 8001fbe:	681b      	ldr	r3, [r3, #0]
 8001fc0:	f64f 71ff 	movw	r1, #65535	; 0xffff
 8001fc4:	428b      	cmp	r3, r1
 8001fc6:	bf28      	it	cs
 8001fc8:	460b      	movcs	r3, r1
 8001fca:	005b      	lsls	r3, r3, #1
 8001fcc:	4413      	add	r3, r2
 8001fce:	4a18      	ldr	r2, [pc, #96]	; (8002030 <Audio_MAL_IRQHandler+0xf0>)
 8001fd0:	6013      	str	r3, [r2, #0]
      
      /* Update the remaining number of data to be played */
      AudioRemSize -= DMA_MAX(AudioRemSize);   
 8001fd2:	4b16      	ldr	r3, [pc, #88]	; (800202c <Audio_MAL_IRQHandler+0xec>)
 8001fd4:	681a      	ldr	r2, [r3, #0]
 8001fd6:	4b15      	ldr	r3, [pc, #84]	; (800202c <Audio_MAL_IRQHandler+0xec>)
 8001fd8:	681b      	ldr	r3, [r3, #0]
 8001fda:	f64f 71ff 	movw	r1, #65535	; 0xffff
 8001fde:	428b      	cmp	r3, r1
 8001fe0:	bf28      	it	cs
 8001fe2:	460b      	movcs	r3, r1
 8001fe4:	1ad3      	subs	r3, r2, r3
 8001fe6:	4a11      	ldr	r2, [pc, #68]	; (800202c <Audio_MAL_IRQHandler+0xec>)
 8001fe8:	6013      	str	r3, [r2, #0]
        /* Enable the I2S DMA Stream*/
      DMA_Cmd(AUDIO_MAL_DMA_STREAM, ENABLE); 
 8001fea:	4b0e      	ldr	r3, [pc, #56]	; (8002024 <Audio_MAL_IRQHandler+0xe4>)
 8001fec:	681b      	ldr	r3, [r3, #0]
 8001fee:	2101      	movs	r1, #1
 8001ff0:	4618      	mov	r0, r3
 8001ff2:	f004 f933 	bl	800625c <DMA_Cmd>
    /* Clear the Interrupt flag */
    DMA_ClearFlag(AUDIO_MAL_DMA_STREAM, AUDIO_MAL_DMA_FLAG_TE | AUDIO_MAL_DMA_FLAG_FE | \
                                        AUDIO_MAL_DMA_FLAG_DME);
  }  
#endif /* AUDIO_MAL_DMA_IT_TE_EN */
}
 8001ff6:	e013      	b.n	8002020 <Audio_MAL_IRQHandler+0xe0>
      DMA_Cmd(AUDIO_MAL_DMA_STREAM, ENABLE); 
    }
    else
    {
      /* Disable the I2S DMA Stream*/
      DMA_Cmd(AUDIO_MAL_DMA_STREAM, DISABLE);   
 8001ff8:	4b0a      	ldr	r3, [pc, #40]	; (8002024 <Audio_MAL_IRQHandler+0xe4>)
 8001ffa:	681b      	ldr	r3, [r3, #0]
 8001ffc:	2100      	movs	r1, #0
 8001ffe:	4618      	mov	r0, r3
 8002000:	f004 f92c 	bl	800625c <DMA_Cmd>
      
      /* Clear the Interrupt flag */
      DMA_ClearFlag(AUDIO_MAL_DMA_STREAM, AUDIO_MAL_DMA_FLAG_TC);       
 8002004:	4b07      	ldr	r3, [pc, #28]	; (8002024 <Audio_MAL_IRQHandler+0xe4>)
 8002006:	681a      	ldr	r2, [r3, #0]
 8002008:	4b07      	ldr	r3, [pc, #28]	; (8002028 <Audio_MAL_IRQHandler+0xe8>)
 800200a:	681b      	ldr	r3, [r3, #0]
 800200c:	4619      	mov	r1, r3
 800200e:	4610      	mov	r0, r2
 8002010:	f004 f994 	bl	800633c <DMA_ClearFlag>
      
      /* Manage the remaining file size and new address offset: This function 
      should be coded by user (its prototype is already declared in stm32f4_discovery_audio_codec.h) */  
      EVAL_AUDIO_TransferComplete_CallBack((uint32_t)CurrentPos, 0);       
 8002014:	4b06      	ldr	r3, [pc, #24]	; (8002030 <Audio_MAL_IRQHandler+0xf0>)
 8002016:	681b      	ldr	r3, [r3, #0]
 8002018:	2100      	movs	r1, #0
 800201a:	4618      	mov	r0, r3
 800201c:	f7ff ff7a 	bl	8001f14 <EVAL_AUDIO_TransferComplete_CallBack>
    /* Clear the Interrupt flag */
    DMA_ClearFlag(AUDIO_MAL_DMA_STREAM, AUDIO_MAL_DMA_FLAG_TE | AUDIO_MAL_DMA_FLAG_FE | \
                                        AUDIO_MAL_DMA_FLAG_DME);
  }  
#endif /* AUDIO_MAL_DMA_IT_TE_EN */
}
 8002020:	bf00      	nop
 8002022:	bd80      	pop	{r7, pc}
 8002024:	2000000c 	.word	0x2000000c
 8002028:	20000010 	.word	0x20000010
 800202c:	20000004 	.word	0x20000004
 8002030:	200007e4 	.word	0x200007e4
 8002034:	20000824 	.word	0x20000824

08002038 <DMA1_Stream7_IRQHandler>:
  * @brief  This function handles main I2S interrupt. 
  * @param  None
  * @retval 0 if correct communication, else wrong communication
  */
void Audio_MAL_I2S_IRQHandler(void)
{ 
 8002038:	b580      	push	{r7, lr}
 800203a:	af00      	add	r7, sp, #0
  Audio_MAL_IRQHandler();
 800203c:	f7ff ff80 	bl	8001f40 <Audio_MAL_IRQHandler>
}
 8002040:	bf00      	nop
 8002042:	bd80      	pop	{r7, pc}

08002044 <DMA1_Stream0_IRQHandler>:
  * @brief  This function handles main DAC interrupt. 
  * @param  None
  * @retval 0 if correct communication, else wrong communication
  */
void Audio_MAL_DAC_IRQHandler(void)
{ 
 8002044:	b580      	push	{r7, lr}
 8002046:	af00      	add	r7, sp, #0
  Audio_MAL_IRQHandler();
 8002048:	f7ff ff7a 	bl	8001f40 <Audio_MAL_IRQHandler>
}
 800204c:	bf00      	nop
 800204e:	bd80      	pop	{r7, pc}

08002050 <SPI3_IRQHandler>:
  * @brief  I2S interrupt management
  * @param  None
  * @retval None
  */
void Audio_I2S_IRQHandler(void)
{
 8002050:	b580      	push	{r7, lr}
 8002052:	af00      	add	r7, sp, #0
  /* Check on the I2S TXE flag */  
  if (SPI_I2S_GetFlagStatus(SPI3, SPI_I2S_FLAG_TXE) != RESET)
 8002054:	2102      	movs	r1, #2
 8002056:	480d      	ldr	r0, [pc, #52]	; (800208c <SPI3_IRQHandler+0x3c>)
 8002058:	f003 fe58 	bl	8005d0c <SPI_I2S_GetFlagStatus>
 800205c:	4603      	mov	r3, r0
 800205e:	2b00      	cmp	r3, #0
 8002060:	d011      	beq.n	8002086 <SPI3_IRQHandler+0x36>
  { 
    if (CurrAudioInterface == AUDIO_INTERFACE_DAC)
 8002062:	4b0b      	ldr	r3, [pc, #44]	; (8002090 <SPI3_IRQHandler+0x40>)
 8002064:	681b      	ldr	r3, [r3, #0]
 8002066:	2b02      	cmp	r3, #2
 8002068:	d106      	bne.n	8002078 <SPI3_IRQHandler+0x28>
    {
      /* Wirte data to the DAC interface */
      DAC_SetChannel1Data(DAC_Align_12b_L, EVAL_AUDIO_GetSampleCallBack()); 
 800206a:	f7ff ff5f 	bl	8001f2c <EVAL_AUDIO_GetSampleCallBack>
 800206e:	4603      	mov	r3, r0
 8002070:	4619      	mov	r1, r3
 8002072:	2004      	movs	r0, #4
 8002074:	f004 f990 	bl	8006398 <DAC_SetChannel1Data>
    }
    
    /* Send dummy data on I2S to avoid the underrun condition */
    SPI_I2S_SendData(CODEC_I2S, EVAL_AUDIO_GetSampleCallBack()); 
 8002078:	f7ff ff58 	bl	8001f2c <EVAL_AUDIO_GetSampleCallBack>
 800207c:	4603      	mov	r3, r0
 800207e:	4619      	mov	r1, r3
 8002080:	4802      	ldr	r0, [pc, #8]	; (800208c <SPI3_IRQHandler+0x3c>)
 8002082:	f003 fe33 	bl	8005cec <SPI_I2S_SendData>
  }
}
 8002086:	bf00      	nop
 8002088:	bd80      	pop	{r7, pc}
 800208a:	bf00      	nop
 800208c:	40003c00 	.word	0x40003c00
 8002090:	20000008 	.word	0x20000008

08002094 <STM_EVAL_LEDInit>:
  *     @arg LED5
  *     @arg LED6
  * @retval None
  */
void STM_EVAL_LEDInit(Led_TypeDef Led)
{
 8002094:	b580      	push	{r7, lr}
 8002096:	b084      	sub	sp, #16
 8002098:	af00      	add	r7, sp, #0
 800209a:	4603      	mov	r3, r0
 800209c:	71fb      	strb	r3, [r7, #7]
  GPIO_InitTypeDef  GPIO_InitStructure;
  
  /* Enable the GPIO_LED Clock */
  RCC_AHB1PeriphClockCmd(GPIO_CLK[Led], ENABLE);
 800209e:	79fb      	ldrb	r3, [r7, #7]
 80020a0:	4a10      	ldr	r2, [pc, #64]	; (80020e4 <STM_EVAL_LEDInit+0x50>)
 80020a2:	f852 3023 	ldr.w	r3, [r2, r3, lsl #2]
 80020a6:	2101      	movs	r1, #1
 80020a8:	4618      	mov	r0, r3
 80020aa:	f003 fe4b 	bl	8005d44 <RCC_AHB1PeriphClockCmd>

  /* Configure the GPIO_LED pin */
  GPIO_InitStructure.GPIO_Pin = GPIO_PIN[Led];
 80020ae:	79fb      	ldrb	r3, [r7, #7]
 80020b0:	4a0d      	ldr	r2, [pc, #52]	; (80020e8 <STM_EVAL_LEDInit+0x54>)
 80020b2:	f832 3013 	ldrh.w	r3, [r2, r3, lsl #1]
 80020b6:	60bb      	str	r3, [r7, #8]
  GPIO_InitStructure.GPIO_Mode = GPIO_Mode_OUT;
 80020b8:	2301      	movs	r3, #1
 80020ba:	733b      	strb	r3, [r7, #12]
  GPIO_InitStructure.GPIO_OType = GPIO_OType_PP;
 80020bc:	2300      	movs	r3, #0
 80020be:	73bb      	strb	r3, [r7, #14]
  GPIO_InitStructure.GPIO_PuPd = GPIO_PuPd_UP;
 80020c0:	2301      	movs	r3, #1
 80020c2:	73fb      	strb	r3, [r7, #15]
  GPIO_InitStructure.GPIO_Speed = GPIO_Speed_50MHz;
 80020c4:	2302      	movs	r3, #2
 80020c6:	737b      	strb	r3, [r7, #13]
  GPIO_Init(GPIO_PORT[Led], &GPIO_InitStructure);
 80020c8:	79fb      	ldrb	r3, [r7, #7]
 80020ca:	4a08      	ldr	r2, [pc, #32]	; (80020ec <STM_EVAL_LEDInit+0x58>)
 80020cc:	f852 3023 	ldr.w	r3, [r2, r3, lsl #2]
 80020d0:	f107 0208 	add.w	r2, r7, #8
 80020d4:	4611      	mov	r1, r2
 80020d6:	4618      	mov	r0, r3
 80020d8:	f003 fed4 	bl	8005e84 <GPIO_Init>
}
 80020dc:	bf00      	nop
 80020de:	3710      	adds	r7, #16
 80020e0:	46bd      	mov	sp, r7
 80020e2:	bd80      	pop	{r7, pc}
 80020e4:	080066d0 	.word	0x080066d0
 80020e8:	080066c8 	.word	0x080066c8
 80020ec:	20000014 	.word	0x20000014

080020f0 <STM_EVAL_LEDOn>:
  *     @arg LED5
  *     @arg LED6  
  * @retval None
  */
void STM_EVAL_LEDOn(Led_TypeDef Led)
{
 80020f0:	b480      	push	{r7}
 80020f2:	b083      	sub	sp, #12
 80020f4:	af00      	add	r7, sp, #0
 80020f6:	4603      	mov	r3, r0
 80020f8:	71fb      	strb	r3, [r7, #7]
  GPIO_PORT[Led]->BSRRL = GPIO_PIN[Led];
 80020fa:	79fb      	ldrb	r3, [r7, #7]
 80020fc:	4a06      	ldr	r2, [pc, #24]	; (8002118 <STM_EVAL_LEDOn+0x28>)
 80020fe:	f852 3023 	ldr.w	r3, [r2, r3, lsl #2]
 8002102:	79fa      	ldrb	r2, [r7, #7]
 8002104:	4905      	ldr	r1, [pc, #20]	; (800211c <STM_EVAL_LEDOn+0x2c>)
 8002106:	f831 2012 	ldrh.w	r2, [r1, r2, lsl #1]
 800210a:	831a      	strh	r2, [r3, #24]
}
 800210c:	bf00      	nop
 800210e:	370c      	adds	r7, #12
 8002110:	46bd      	mov	sp, r7
 8002112:	f85d 7b04 	ldr.w	r7, [sp], #4
 8002116:	4770      	bx	lr
 8002118:	20000014 	.word	0x20000014
 800211c:	080066c8 	.word	0x080066c8

08002120 <STM_EVAL_LEDOff>:
  *     @arg LED5
  *     @arg LED6 
  * @retval None
  */
void STM_EVAL_LEDOff(Led_TypeDef Led)
{
 8002120:	b480      	push	{r7}
 8002122:	b083      	sub	sp, #12
 8002124:	af00      	add	r7, sp, #0
 8002126:	4603      	mov	r3, r0
 8002128:	71fb      	strb	r3, [r7, #7]
  GPIO_PORT[Led]->BSRRH = GPIO_PIN[Led];  
 800212a:	79fb      	ldrb	r3, [r7, #7]
 800212c:	4a06      	ldr	r2, [pc, #24]	; (8002148 <STM_EVAL_LEDOff+0x28>)
 800212e:	f852 3023 	ldr.w	r3, [r2, r3, lsl #2]
 8002132:	79fa      	ldrb	r2, [r7, #7]
 8002134:	4905      	ldr	r1, [pc, #20]	; (800214c <STM_EVAL_LEDOff+0x2c>)
 8002136:	f831 2012 	ldrh.w	r2, [r1, r2, lsl #1]
 800213a:	835a      	strh	r2, [r3, #26]
}
 800213c:	bf00      	nop
 800213e:	370c      	adds	r7, #12
 8002140:	46bd      	mov	sp, r7
 8002142:	f85d 7b04 	ldr.w	r7, [sp], #4
 8002146:	4770      	bx	lr
 8002148:	20000014 	.word	0x20000014
 800214c:	080066c8 	.word	0x080066c8

08002150 <STM_EVAL_LEDToggle>:
  *     @arg LED5
  *     @arg LED6  
  * @retval None
  */
void STM_EVAL_LEDToggle(Led_TypeDef Led)
{
 8002150:	b480      	push	{r7}
 8002152:	b083      	sub	sp, #12
 8002154:	af00      	add	r7, sp, #0
 8002156:	4603      	mov	r3, r0
 8002158:	71fb      	strb	r3, [r7, #7]
  GPIO_PORT[Led]->ODR ^= GPIO_PIN[Led];
 800215a:	79fb      	ldrb	r3, [r7, #7]
 800215c:	4a09      	ldr	r2, [pc, #36]	; (8002184 <STM_EVAL_LEDToggle+0x34>)
 800215e:	f852 3023 	ldr.w	r3, [r2, r3, lsl #2]
 8002162:	79fa      	ldrb	r2, [r7, #7]
 8002164:	4907      	ldr	r1, [pc, #28]	; (8002184 <STM_EVAL_LEDToggle+0x34>)
 8002166:	f851 2022 	ldr.w	r2, [r1, r2, lsl #2]
 800216a:	6952      	ldr	r2, [r2, #20]
 800216c:	79f9      	ldrb	r1, [r7, #7]
 800216e:	4806      	ldr	r0, [pc, #24]	; (8002188 <STM_EVAL_LEDToggle+0x38>)
 8002170:	f830 1011 	ldrh.w	r1, [r0, r1, lsl #1]
 8002174:	404a      	eors	r2, r1
 8002176:	615a      	str	r2, [r3, #20]
}
 8002178:	bf00      	nop
 800217a:	370c      	adds	r7, #12
 800217c:	46bd      	mov	sp, r7
 800217e:	f85d 7b04 	ldr.w	r7, [sp], #4
 8002182:	4770      	bx	lr
 8002184:	20000014 	.word	0x20000014
 8002188:	080066c8 	.word	0x080066c8

0800218c <USBD_OTG_ISR_Handler>:
*         handles all USB Interrupts
* @param  pdev: device instance
* @retval status
*/
uint32_t USBD_OTG_ISR_Handler (USB_OTG_CORE_HANDLE *pdev)
{
 800218c:	b580      	push	{r7, lr}
 800218e:	b086      	sub	sp, #24
 8002190:	af00      	add	r7, sp, #0
 8002192:	6078      	str	r0, [r7, #4]
  USB_OTG_GINTSTS_TypeDef  gintr_status;
  uint32_t retval = 0;
 8002194:	2300      	movs	r3, #0
 8002196:	617b      	str	r3, [r7, #20]
  
  if (USB_OTG_IsDeviceMode(pdev)) /* ensure that we are in device mode */
 8002198:	6878      	ldr	r0, [r7, #4]
 800219a:	f001 faa9 	bl	80036f0 <USB_OTG_IsDeviceMode>
 800219e:	4603      	mov	r3, r0
 80021a0:	2b00      	cmp	r3, #0
 80021a2:	f000 809c 	beq.w	80022de <USBD_OTG_ISR_Handler+0x152>
  {
    gintr_status.d32 = USB_OTG_ReadCoreItr(pdev);
 80021a6:	6878      	ldr	r0, [r7, #4]
 80021a8:	f001 fab4 	bl	8003714 <USB_OTG_ReadCoreItr>
 80021ac:	4603      	mov	r3, r0
 80021ae:	613b      	str	r3, [r7, #16]
    if (!gintr_status.d32) /* avoid spurious interrupt */
 80021b0:	693b      	ldr	r3, [r7, #16]
 80021b2:	2b00      	cmp	r3, #0
 80021b4:	d101      	bne.n	80021ba <USBD_OTG_ISR_Handler+0x2e>
    {
      return 0;
 80021b6:	2300      	movs	r3, #0
 80021b8:	e092      	b.n	80022e0 <USBD_OTG_ISR_Handler+0x154>
    }
    
    if (gintr_status.b.outepintr)
 80021ba:	7cbb      	ldrb	r3, [r7, #18]
 80021bc:	f003 0308 	and.w	r3, r3, #8
 80021c0:	b2db      	uxtb	r3, r3
 80021c2:	2b00      	cmp	r3, #0
 80021c4:	d006      	beq.n	80021d4 <USBD_OTG_ISR_Handler+0x48>
    {
      retval |= DCD_HandleOutEP_ISR(pdev);
 80021c6:	6878      	ldr	r0, [r7, #4]
 80021c8:	f000 fa12 	bl	80025f0 <DCD_HandleOutEP_ISR>
 80021cc:	4602      	mov	r2, r0
 80021ce:	697b      	ldr	r3, [r7, #20]
 80021d0:	4313      	orrs	r3, r2
 80021d2:	617b      	str	r3, [r7, #20]
    }    
    
    if (gintr_status.b.inepint)
 80021d4:	7cbb      	ldrb	r3, [r7, #18]
 80021d6:	f003 0304 	and.w	r3, r3, #4
 80021da:	b2db      	uxtb	r3, r3
 80021dc:	2b00      	cmp	r3, #0
 80021de:	d006      	beq.n	80021ee <USBD_OTG_ISR_Handler+0x62>
    {
      retval |= DCD_HandleInEP_ISR(pdev);
 80021e0:	6878      	ldr	r0, [r7, #4]
 80021e2:	f000 f90f 	bl	8002404 <DCD_HandleInEP_ISR>
 80021e6:	4602      	mov	r2, r0
 80021e8:	697b      	ldr	r3, [r7, #20]
 80021ea:	4313      	orrs	r3, r2
 80021ec:	617b      	str	r3, [r7, #20]
    }
    
    if (gintr_status.b.modemismatch)
 80021ee:	7c3b      	ldrb	r3, [r7, #16]
 80021f0:	f003 0302 	and.w	r3, r3, #2
 80021f4:	b2db      	uxtb	r3, r3
 80021f6:	2b00      	cmp	r3, #0
 80021f8:	d009      	beq.n	800220e <USBD_OTG_ISR_Handler+0x82>
    {
      USB_OTG_GINTSTS_TypeDef  gintsts;
      
      /* Clear interrupt */
      gintsts.d32 = 0;
 80021fa:	2300      	movs	r3, #0
 80021fc:	60fb      	str	r3, [r7, #12]
      gintsts.b.modemismatch = 1;
 80021fe:	7b3b      	ldrb	r3, [r7, #12]
 8002200:	f043 0302 	orr.w	r3, r3, #2
 8002204:	733b      	strb	r3, [r7, #12]
      USB_OTG_WRITE_REG32(&pdev->regs.GREGS->GINTSTS, gintsts.d32);
 8002206:	687b      	ldr	r3, [r7, #4]
 8002208:	68db      	ldr	r3, [r3, #12]
 800220a:	68fa      	ldr	r2, [r7, #12]
 800220c:	615a      	str	r2, [r3, #20]
    }
    
    if (gintr_status.b.wkupintr)
 800220e:	7cfb      	ldrb	r3, [r7, #19]
 8002210:	f023 037f 	bic.w	r3, r3, #127	; 0x7f
 8002214:	b2db      	uxtb	r3, r3
 8002216:	2b00      	cmp	r3, #0
 8002218:	d006      	beq.n	8002228 <USBD_OTG_ISR_Handler+0x9c>
    {
      retval |= DCD_HandleResume_ISR(pdev);
 800221a:	6878      	ldr	r0, [r7, #4]
 800221c:	f000 f864 	bl	80022e8 <DCD_HandleResume_ISR>
 8002220:	4602      	mov	r2, r0
 8002222:	697b      	ldr	r3, [r7, #20]
 8002224:	4313      	orrs	r3, r2
 8002226:	617b      	str	r3, [r7, #20]
    }
    
    if (gintr_status.b.usbsuspend)
 8002228:	7c7b      	ldrb	r3, [r7, #17]
 800222a:	f003 0308 	and.w	r3, r3, #8
 800222e:	b2db      	uxtb	r3, r3
 8002230:	2b00      	cmp	r3, #0
 8002232:	d006      	beq.n	8002242 <USBD_OTG_ISR_Handler+0xb6>
    {
      retval |= DCD_HandleUSBSuspend_ISR(pdev);
 8002234:	6878      	ldr	r0, [r7, #4]
 8002236:	f000 f897 	bl	8002368 <DCD_HandleUSBSuspend_ISR>
 800223a:	4602      	mov	r2, r0
 800223c:	697b      	ldr	r3, [r7, #20]
 800223e:	4313      	orrs	r3, r2
 8002240:	617b      	str	r3, [r7, #20]
    }
    if (gintr_status.b.sofintr)
 8002242:	7c3b      	ldrb	r3, [r7, #16]
 8002244:	f003 0308 	and.w	r3, r3, #8
 8002248:	b2db      	uxtb	r3, r3
 800224a:	2b00      	cmp	r3, #0
 800224c:	d006      	beq.n	800225c <USBD_OTG_ISR_Handler+0xd0>
    {
      retval |= DCD_HandleSof_ISR(pdev);
 800224e:	6878      	ldr	r0, [r7, #4]
 8002250:	f000 fa8a 	bl	8002768 <DCD_HandleSof_ISR>
 8002254:	4602      	mov	r2, r0
 8002256:	697b      	ldr	r3, [r7, #20]
 8002258:	4313      	orrs	r3, r2
 800225a:	617b      	str	r3, [r7, #20]
      
    }
    
    if (gintr_status.b.rxstsqlvl)
 800225c:	7c3b      	ldrb	r3, [r7, #16]
 800225e:	f003 0310 	and.w	r3, r3, #16
 8002262:	b2db      	uxtb	r3, r3
 8002264:	2b00      	cmp	r3, #0
 8002266:	d006      	beq.n	8002276 <USBD_OTG_ISR_Handler+0xea>
    {
      retval |= DCD_HandleRxStatusQueueLevel_ISR(pdev);
 8002268:	6878      	ldr	r0, [r7, #4]
 800226a:	f000 fa97 	bl	800279c <DCD_HandleRxStatusQueueLevel_ISR>
 800226e:	4602      	mov	r2, r0
 8002270:	697b      	ldr	r3, [r7, #20]
 8002272:	4313      	orrs	r3, r2
 8002274:	617b      	str	r3, [r7, #20]
      
    }
    
    if (gintr_status.b.usbreset)
 8002276:	7c7b      	ldrb	r3, [r7, #17]
 8002278:	f003 0310 	and.w	r3, r3, #16
 800227c:	b2db      	uxtb	r3, r3
 800227e:	2b00      	cmp	r3, #0
 8002280:	d006      	beq.n	8002290 <USBD_OTG_ISR_Handler+0x104>
    {
      retval |= DCD_HandleUsbReset_ISR(pdev);
 8002282:	6878      	ldr	r0, [r7, #4]
 8002284:	f000 fb7e 	bl	8002984 <DCD_HandleUsbReset_ISR>
 8002288:	4602      	mov	r2, r0
 800228a:	697b      	ldr	r3, [r7, #20]
 800228c:	4313      	orrs	r3, r2
 800228e:	617b      	str	r3, [r7, #20]
      
    }
    if (gintr_status.b.enumdone)
 8002290:	7c7b      	ldrb	r3, [r7, #17]
 8002292:	f003 0320 	and.w	r3, r3, #32
 8002296:	b2db      	uxtb	r3, r3
 8002298:	2b00      	cmp	r3, #0
 800229a:	d006      	beq.n	80022aa <USBD_OTG_ISR_Handler+0x11e>
    {
      retval |= DCD_HandleEnumDone_ISR(pdev);
 800229c:	6878      	ldr	r0, [r7, #4]
 800229e:	f000 fc0d 	bl	8002abc <DCD_HandleEnumDone_ISR>
 80022a2:	4602      	mov	r2, r0
 80022a4:	697b      	ldr	r3, [r7, #20]
 80022a6:	4313      	orrs	r3, r2
 80022a8:	617b      	str	r3, [r7, #20]
    }
    
    if (gintr_status.b.incomplisoin)
 80022aa:	7cbb      	ldrb	r3, [r7, #18]
 80022ac:	f003 0310 	and.w	r3, r3, #16
 80022b0:	b2db      	uxtb	r3, r3
 80022b2:	2b00      	cmp	r3, #0
 80022b4:	d006      	beq.n	80022c4 <USBD_OTG_ISR_Handler+0x138>
    {
      retval |= DCD_IsoINIncomplete_ISR(pdev);
 80022b6:	6878      	ldr	r0, [r7, #4]
 80022b8:	f000 fc3c 	bl	8002b34 <DCD_IsoINIncomplete_ISR>
 80022bc:	4602      	mov	r2, r0
 80022be:	697b      	ldr	r3, [r7, #20]
 80022c0:	4313      	orrs	r3, r2
 80022c2:	617b      	str	r3, [r7, #20]
    }

    if (gintr_status.b.incomplisoout)
 80022c4:	7cbb      	ldrb	r3, [r7, #18]
 80022c6:	f003 0320 	and.w	r3, r3, #32
 80022ca:	b2db      	uxtb	r3, r3
 80022cc:	2b00      	cmp	r3, #0
 80022ce:	d006      	beq.n	80022de <USBD_OTG_ISR_Handler+0x152>
    {
      retval |= DCD_IsoOUTIncomplete_ISR(pdev);
 80022d0:	6878      	ldr	r0, [r7, #4]
 80022d2:	f000 fc49 	bl	8002b68 <DCD_IsoOUTIncomplete_ISR>
 80022d6:	4602      	mov	r2, r0
 80022d8:	697b      	ldr	r3, [r7, #20]
 80022da:	4313      	orrs	r3, r2
 80022dc:	617b      	str	r3, [r7, #20]
    {
      retval |= DCD_OTG_ISR(pdev);
    }   
#endif    
  }
  return retval;
 80022de:	697b      	ldr	r3, [r7, #20]
}
 80022e0:	4618      	mov	r0, r3
 80022e2:	3718      	adds	r7, #24
 80022e4:	46bd      	mov	sp, r7
 80022e6:	bd80      	pop	{r7, pc}

080022e8 <DCD_HandleResume_ISR>:
*                 remote Wake-up sequence
* @param  pdev: device instance
* @retval status
*/
static uint32_t DCD_HandleResume_ISR(USB_OTG_CORE_HANDLE *pdev)
{
 80022e8:	b580      	push	{r7, lr}
 80022ea:	b086      	sub	sp, #24
 80022ec:	af00      	add	r7, sp, #0
 80022ee:	6078      	str	r0, [r7, #4]
  USB_OTG_GINTSTS_TypeDef  gintsts;
  USB_OTG_DCTL_TypeDef     devctl;
  USB_OTG_PCGCCTL_TypeDef  power;
  
  if(pdev->cfg.low_power)
 80022f0:	687b      	ldr	r3, [r7, #4]
 80022f2:	7a9b      	ldrb	r3, [r3, #10]
 80022f4:	2b00      	cmp	r3, #0
 80022f6:	d011      	beq.n	800231c <DCD_HandleResume_ISR+0x34>
  {
    /* un-gate USB Core clock */
    power.d32 = USB_OTG_READ_REG32(&pdev->regs.PCGCCTL);
 80022f8:	687b      	ldr	r3, [r7, #4]
 80022fa:	f503 7386 	add.w	r3, r3, #268	; 0x10c
 80022fe:	681b      	ldr	r3, [r3, #0]
 8002300:	60fb      	str	r3, [r7, #12]
    power.b.gatehclk = 0;
 8002302:	7b3b      	ldrb	r3, [r7, #12]
 8002304:	f36f 0341 	bfc	r3, #1, #1
 8002308:	733b      	strb	r3, [r7, #12]
    power.b.stoppclk = 0;
 800230a:	7b3b      	ldrb	r3, [r7, #12]
 800230c:	f36f 0300 	bfc	r3, #0, #1
 8002310:	733b      	strb	r3, [r7, #12]
    USB_OTG_WRITE_REG32(pdev->regs.PCGCCTL, power.d32);
 8002312:	687b      	ldr	r3, [r7, #4]
 8002314:	f8d3 310c 	ldr.w	r3, [r3, #268]	; 0x10c
 8002318:	68fa      	ldr	r2, [r7, #12]
 800231a:	601a      	str	r2, [r3, #0]
  }
  
  /* Clear the Remote Wake-up Signaling */
  devctl.d32 = 0;
 800231c:	2300      	movs	r3, #0
 800231e:	613b      	str	r3, [r7, #16]
  devctl.b.rmtwkupsig = 1;
 8002320:	7c3b      	ldrb	r3, [r7, #16]
 8002322:	f043 0301 	orr.w	r3, r3, #1
 8002326:	743b      	strb	r3, [r7, #16]
  USB_OTG_MODIFY_REG32(&pdev->regs.DREGS->DCTL, devctl.d32, 0);
 8002328:	687b      	ldr	r3, [r7, #4]
 800232a:	691b      	ldr	r3, [r3, #16]
 800232c:	687a      	ldr	r2, [r7, #4]
 800232e:	6912      	ldr	r2, [r2, #16]
 8002330:	6851      	ldr	r1, [r2, #4]
 8002332:	693a      	ldr	r2, [r7, #16]
 8002334:	43d2      	mvns	r2, r2
 8002336:	400a      	ands	r2, r1
 8002338:	605a      	str	r2, [r3, #4]
  
  /* Inform upper layer by the Resume Event */
  USBD_DCD_INT_fops->Resume (pdev);
 800233a:	4b0a      	ldr	r3, [pc, #40]	; (8002364 <DCD_HandleResume_ISR+0x7c>)
 800233c:	681b      	ldr	r3, [r3, #0]
 800233e:	699b      	ldr	r3, [r3, #24]
 8002340:	6878      	ldr	r0, [r7, #4]
 8002342:	4798      	blx	r3
  
  /* Clear interrupt */
  gintsts.d32 = 0;
 8002344:	2300      	movs	r3, #0
 8002346:	617b      	str	r3, [r7, #20]
  gintsts.b.wkupintr = 1;
 8002348:	7dfb      	ldrb	r3, [r7, #23]
 800234a:	f043 0380 	orr.w	r3, r3, #128	; 0x80
 800234e:	75fb      	strb	r3, [r7, #23]
  USB_OTG_WRITE_REG32 (&pdev->regs.GREGS->GINTSTS, gintsts.d32);
 8002350:	687b      	ldr	r3, [r7, #4]
 8002352:	68db      	ldr	r3, [r3, #12]
 8002354:	697a      	ldr	r2, [r7, #20]
 8002356:	615a      	str	r2, [r3, #20]
  return 1;
 8002358:	2301      	movs	r3, #1
}
 800235a:	4618      	mov	r0, r3
 800235c:	3718      	adds	r7, #24
 800235e:	46bd      	mov	sp, r7
 8002360:	bd80      	pop	{r7, pc}
 8002362:	bf00      	nop
 8002364:	20000050 	.word	0x20000050

08002368 <DCD_HandleUSBSuspend_ISR>:
*         Indicates that SUSPEND state has been detected on the USB
* @param  pdev: device instance
* @retval status
*/
static uint32_t DCD_HandleUSBSuspend_ISR(USB_OTG_CORE_HANDLE *pdev)
{
 8002368:	b580      	push	{r7, lr}
 800236a:	b086      	sub	sp, #24
 800236c:	af00      	add	r7, sp, #0
 800236e:	6078      	str	r0, [r7, #4]
  USB_OTG_GINTSTS_TypeDef  gintsts;
  USB_OTG_PCGCCTL_TypeDef  power;
  USB_OTG_DSTS_TypeDef     dsts;
  
  USBD_DCD_INT_fops->Suspend (pdev);      
 8002370:	4b22      	ldr	r3, [pc, #136]	; (80023fc <DCD_HandleUSBSuspend_ISR+0x94>)
 8002372:	681b      	ldr	r3, [r3, #0]
 8002374:	695b      	ldr	r3, [r3, #20]
 8002376:	6878      	ldr	r0, [r7, #4]
 8002378:	4798      	blx	r3
  
  dsts.d32 = USB_OTG_READ_REG32(&pdev->regs.DREGS->DSTS);
 800237a:	687b      	ldr	r3, [r7, #4]
 800237c:	691b      	ldr	r3, [r3, #16]
 800237e:	689b      	ldr	r3, [r3, #8]
 8002380:	60fb      	str	r3, [r7, #12]
    
  /* Clear interrupt */
  gintsts.d32 = 0;
 8002382:	2300      	movs	r3, #0
 8002384:	617b      	str	r3, [r7, #20]
  gintsts.b.usbsuspend = 1;
 8002386:	7d7b      	ldrb	r3, [r7, #21]
 8002388:	f043 0308 	orr.w	r3, r3, #8
 800238c:	757b      	strb	r3, [r7, #21]
  USB_OTG_WRITE_REG32(&pdev->regs.GREGS->GINTSTS, gintsts.d32);
 800238e:	687b      	ldr	r3, [r7, #4]
 8002390:	68db      	ldr	r3, [r3, #12]
 8002392:	697a      	ldr	r2, [r7, #20]
 8002394:	615a      	str	r2, [r3, #20]
  
  if((pdev->cfg.low_power) && (dsts.b.suspsts == 1))
 8002396:	687b      	ldr	r3, [r7, #4]
 8002398:	7a9b      	ldrb	r3, [r3, #10]
 800239a:	2b00      	cmp	r3, #0
 800239c:	d029      	beq.n	80023f2 <DCD_HandleUSBSuspend_ISR+0x8a>
 800239e:	7b3b      	ldrb	r3, [r7, #12]
 80023a0:	f003 0301 	and.w	r3, r3, #1
 80023a4:	b2db      	uxtb	r3, r3
 80023a6:	2b00      	cmp	r3, #0
 80023a8:	d023      	beq.n	80023f2 <DCD_HandleUSBSuspend_ISR+0x8a>
  {
	/*  switch-off the clocks */
    power.d32 = 0;
 80023aa:	2300      	movs	r3, #0
 80023ac:	613b      	str	r3, [r7, #16]
    power.b.stoppclk = 1;
 80023ae:	7c3b      	ldrb	r3, [r7, #16]
 80023b0:	f043 0301 	orr.w	r3, r3, #1
 80023b4:	743b      	strb	r3, [r7, #16]
    USB_OTG_MODIFY_REG32(pdev->regs.PCGCCTL, 0, power.d32);  
 80023b6:	687b      	ldr	r3, [r7, #4]
 80023b8:	f8d3 310c 	ldr.w	r3, [r3, #268]	; 0x10c
 80023bc:	687a      	ldr	r2, [r7, #4]
 80023be:	f8d2 210c 	ldr.w	r2, [r2, #268]	; 0x10c
 80023c2:	6811      	ldr	r1, [r2, #0]
 80023c4:	693a      	ldr	r2, [r7, #16]
 80023c6:	430a      	orrs	r2, r1
 80023c8:	601a      	str	r2, [r3, #0]
    
    power.b.gatehclk = 1;
 80023ca:	7c3b      	ldrb	r3, [r7, #16]
 80023cc:	f043 0302 	orr.w	r3, r3, #2
 80023d0:	743b      	strb	r3, [r7, #16]
    USB_OTG_MODIFY_REG32(pdev->regs.PCGCCTL, 0, power.d32);
 80023d2:	687b      	ldr	r3, [r7, #4]
 80023d4:	f8d3 310c 	ldr.w	r3, [r3, #268]	; 0x10c
 80023d8:	687a      	ldr	r2, [r7, #4]
 80023da:	f8d2 210c 	ldr.w	r2, [r2, #268]	; 0x10c
 80023de:	6811      	ldr	r1, [r2, #0]
 80023e0:	693a      	ldr	r2, [r7, #16]
 80023e2:	430a      	orrs	r2, r1
 80023e4:	601a      	str	r2, [r3, #0]
    
    /* Request to enter Sleep mode after exit from current ISR */
    SCB->SCR |= (SCB_SCR_SLEEPDEEP_Msk | SCB_SCR_SLEEPONEXIT_Msk);
 80023e6:	4a06      	ldr	r2, [pc, #24]	; (8002400 <DCD_HandleUSBSuspend_ISR+0x98>)
 80023e8:	4b05      	ldr	r3, [pc, #20]	; (8002400 <DCD_HandleUSBSuspend_ISR+0x98>)
 80023ea:	691b      	ldr	r3, [r3, #16]
 80023ec:	f043 0306 	orr.w	r3, r3, #6
 80023f0:	6113      	str	r3, [r2, #16]
  }
  return 1;
 80023f2:	2301      	movs	r3, #1
}
 80023f4:	4618      	mov	r0, r3
 80023f6:	3718      	adds	r7, #24
 80023f8:	46bd      	mov	sp, r7
 80023fa:	bd80      	pop	{r7, pc}
 80023fc:	20000050 	.word	0x20000050
 8002400:	e000ed00 	.word	0xe000ed00

08002404 <DCD_HandleInEP_ISR>:
*         Indicates that an IN EP has a pending Interrupt
* @param  pdev: device instance
* @retval status
*/
static uint32_t DCD_HandleInEP_ISR(USB_OTG_CORE_HANDLE *pdev)
{
 8002404:	b580      	push	{r7, lr}
 8002406:	b086      	sub	sp, #24
 8002408:	af00      	add	r7, sp, #0
 800240a:	6078      	str	r0, [r7, #4]
  USB_OTG_DIEPINTn_TypeDef  diepint;
  
  uint32_t ep_intr;
  uint32_t epnum = 0;
 800240c:	2300      	movs	r3, #0
 800240e:	613b      	str	r3, [r7, #16]
  uint32_t fifoemptymsk;
  diepint.d32 = 0;
 8002410:	2300      	movs	r3, #0
 8002412:	60bb      	str	r3, [r7, #8]
  ep_intr = USB_OTG_ReadDevAllInEPItr(pdev);
 8002414:	6878      	ldr	r0, [r7, #4]
 8002416:	f001 ff1f 	bl	8004258 <USB_OTG_ReadDevAllInEPItr>
 800241a:	6178      	str	r0, [r7, #20]
  
  while ( ep_intr )
 800241c:	e0dc      	b.n	80025d8 <DCD_HandleInEP_ISR+0x1d4>
  {
    if (ep_intr&0x1) /* In ITR */
 800241e:	697b      	ldr	r3, [r7, #20]
 8002420:	f003 0301 	and.w	r3, r3, #1
 8002424:	2b00      	cmp	r3, #0
 8002426:	f000 80d1 	beq.w	80025cc <DCD_HandleInEP_ISR+0x1c8>
    {
      diepint.d32 = DCD_ReadDevInEP(pdev , epnum); /* Get In ITR status */
 800242a:	693b      	ldr	r3, [r7, #16]
 800242c:	b2db      	uxtb	r3, r3
 800242e:	4619      	mov	r1, r3
 8002430:	6878      	ldr	r0, [r7, #4]
 8002432:	f000 fbb3 	bl	8002b9c <DCD_ReadDevInEP>
 8002436:	4603      	mov	r3, r0
 8002438:	60bb      	str	r3, [r7, #8]
      if ( diepint.b.xfercompl )
 800243a:	7a3b      	ldrb	r3, [r7, #8]
 800243c:	f003 0301 	and.w	r3, r3, #1
 8002440:	b2db      	uxtb	r3, r3
 8002442:	2b00      	cmp	r3, #0
 8002444:	d032      	beq.n	80024ac <DCD_HandleInEP_ISR+0xa8>
      {
        fifoemptymsk = 0x1 << epnum;
 8002446:	2201      	movs	r2, #1
 8002448:	693b      	ldr	r3, [r7, #16]
 800244a:	fa02 f303 	lsl.w	r3, r2, r3
 800244e:	60fb      	str	r3, [r7, #12]
        USB_OTG_MODIFY_REG32(&pdev->regs.DREGS->DIEPEMPMSK, fifoemptymsk, 0);
 8002450:	687b      	ldr	r3, [r7, #4]
 8002452:	691b      	ldr	r3, [r3, #16]
 8002454:	687a      	ldr	r2, [r7, #4]
 8002456:	6912      	ldr	r2, [r2, #16]
 8002458:	6b51      	ldr	r1, [r2, #52]	; 0x34
 800245a:	68fa      	ldr	r2, [r7, #12]
 800245c:	43d2      	mvns	r2, r2
 800245e:	400a      	ands	r2, r1
 8002460:	635a      	str	r2, [r3, #52]	; 0x34
        CLEAR_IN_EP_INTR(epnum, xfercompl);
 8002462:	2300      	movs	r3, #0
 8002464:	60bb      	str	r3, [r7, #8]
 8002466:	7a3b      	ldrb	r3, [r7, #8]
 8002468:	f043 0301 	orr.w	r3, r3, #1
 800246c:	723b      	strb	r3, [r7, #8]
 800246e:	687a      	ldr	r2, [r7, #4]
 8002470:	693b      	ldr	r3, [r7, #16]
 8002472:	3304      	adds	r3, #4
 8002474:	009b      	lsls	r3, r3, #2
 8002476:	4413      	add	r3, r2
 8002478:	689b      	ldr	r3, [r3, #8]
 800247a:	68ba      	ldr	r2, [r7, #8]
 800247c:	609a      	str	r2, [r3, #8]
        /* TX COMPLETE */
        USBD_DCD_INT_fops->DataInStage(pdev , epnum);
 800247e:	4b5b      	ldr	r3, [pc, #364]	; (80025ec <DCD_HandleInEP_ISR+0x1e8>)
 8002480:	681b      	ldr	r3, [r3, #0]
 8002482:	685b      	ldr	r3, [r3, #4]
 8002484:	693a      	ldr	r2, [r7, #16]
 8002486:	b2d2      	uxtb	r2, r2
 8002488:	4611      	mov	r1, r2
 800248a:	6878      	ldr	r0, [r7, #4]
 800248c:	4798      	blx	r3
        
        if (pdev->cfg.dma_enable == 1)
 800248e:	687b      	ldr	r3, [r7, #4]
 8002490:	78db      	ldrb	r3, [r3, #3]
 8002492:	2b01      	cmp	r3, #1
 8002494:	d10a      	bne.n	80024ac <DCD_HandleInEP_ISR+0xa8>
        {
          if((epnum == 0) && (pdev->dev.device_state == USB_OTG_EP0_STATUS_IN))
 8002496:	693b      	ldr	r3, [r7, #16]
 8002498:	2b00      	cmp	r3, #0
 800249a:	d107      	bne.n	80024ac <DCD_HandleInEP_ISR+0xa8>
 800249c:	687b      	ldr	r3, [r7, #4]
 800249e:	f893 3111 	ldrb.w	r3, [r3, #273]	; 0x111
 80024a2:	2b04      	cmp	r3, #4
 80024a4:	d102      	bne.n	80024ac <DCD_HandleInEP_ISR+0xa8>
          {
            /* prepare to rx more setup packets */
            USB_OTG_EP0_OutStart(pdev);
 80024a6:	6878      	ldr	r0, [r7, #4]
 80024a8:	f001 feec 	bl	8004284 <USB_OTG_EP0_OutStart>
          }
        }           
      }
      if ( diepint.b.ahberr )
 80024ac:	7a3b      	ldrb	r3, [r7, #8]
 80024ae:	f003 0304 	and.w	r3, r3, #4
 80024b2:	b2db      	uxtb	r3, r3
 80024b4:	2b00      	cmp	r3, #0
 80024b6:	d00d      	beq.n	80024d4 <DCD_HandleInEP_ISR+0xd0>
      {
        CLEAR_IN_EP_INTR(epnum, ahberr);
 80024b8:	2300      	movs	r3, #0
 80024ba:	60bb      	str	r3, [r7, #8]
 80024bc:	7a3b      	ldrb	r3, [r7, #8]
 80024be:	f043 0304 	orr.w	r3, r3, #4
 80024c2:	723b      	strb	r3, [r7, #8]
 80024c4:	687a      	ldr	r2, [r7, #4]
 80024c6:	693b      	ldr	r3, [r7, #16]
 80024c8:	3304      	adds	r3, #4
 80024ca:	009b      	lsls	r3, r3, #2
 80024cc:	4413      	add	r3, r2
 80024ce:	689b      	ldr	r3, [r3, #8]
 80024d0:	68ba      	ldr	r2, [r7, #8]
 80024d2:	609a      	str	r2, [r3, #8]
      }
      if ( diepint.b.timeout )
 80024d4:	7a3b      	ldrb	r3, [r7, #8]
 80024d6:	f003 0308 	and.w	r3, r3, #8
 80024da:	b2db      	uxtb	r3, r3
 80024dc:	2b00      	cmp	r3, #0
 80024de:	d00d      	beq.n	80024fc <DCD_HandleInEP_ISR+0xf8>
      {
        CLEAR_IN_EP_INTR(epnum, timeout);
 80024e0:	2300      	movs	r3, #0
 80024e2:	60bb      	str	r3, [r7, #8]
 80024e4:	7a3b      	ldrb	r3, [r7, #8]
 80024e6:	f043 0308 	orr.w	r3, r3, #8
 80024ea:	723b      	strb	r3, [r7, #8]
 80024ec:	687a      	ldr	r2, [r7, #4]
 80024ee:	693b      	ldr	r3, [r7, #16]
 80024f0:	3304      	adds	r3, #4
 80024f2:	009b      	lsls	r3, r3, #2
 80024f4:	4413      	add	r3, r2
 80024f6:	689b      	ldr	r3, [r3, #8]
 80024f8:	68ba      	ldr	r2, [r7, #8]
 80024fa:	609a      	str	r2, [r3, #8]
      }
      if (diepint.b.intktxfemp)
 80024fc:	7a3b      	ldrb	r3, [r7, #8]
 80024fe:	f003 0310 	and.w	r3, r3, #16
 8002502:	b2db      	uxtb	r3, r3
 8002504:	2b00      	cmp	r3, #0
 8002506:	d00d      	beq.n	8002524 <DCD_HandleInEP_ISR+0x120>
      {
        CLEAR_IN_EP_INTR(epnum, intktxfemp);
 8002508:	2300      	movs	r3, #0
 800250a:	60bb      	str	r3, [r7, #8]
 800250c:	7a3b      	ldrb	r3, [r7, #8]
 800250e:	f043 0310 	orr.w	r3, r3, #16
 8002512:	723b      	strb	r3, [r7, #8]
 8002514:	687a      	ldr	r2, [r7, #4]
 8002516:	693b      	ldr	r3, [r7, #16]
 8002518:	3304      	adds	r3, #4
 800251a:	009b      	lsls	r3, r3, #2
 800251c:	4413      	add	r3, r2
 800251e:	689b      	ldr	r3, [r3, #8]
 8002520:	68ba      	ldr	r2, [r7, #8]
 8002522:	609a      	str	r2, [r3, #8]
      }
      if (diepint.b.intknepmis)
 8002524:	7a3b      	ldrb	r3, [r7, #8]
 8002526:	f003 0320 	and.w	r3, r3, #32
 800252a:	b2db      	uxtb	r3, r3
 800252c:	2b00      	cmp	r3, #0
 800252e:	d00d      	beq.n	800254c <DCD_HandleInEP_ISR+0x148>
      {
        CLEAR_IN_EP_INTR(epnum, intknepmis);
 8002530:	2300      	movs	r3, #0
 8002532:	60bb      	str	r3, [r7, #8]
 8002534:	7a3b      	ldrb	r3, [r7, #8]
 8002536:	f043 0320 	orr.w	r3, r3, #32
 800253a:	723b      	strb	r3, [r7, #8]
 800253c:	687a      	ldr	r2, [r7, #4]
 800253e:	693b      	ldr	r3, [r7, #16]
 8002540:	3304      	adds	r3, #4
 8002542:	009b      	lsls	r3, r3, #2
 8002544:	4413      	add	r3, r2
 8002546:	689b      	ldr	r3, [r3, #8]
 8002548:	68ba      	ldr	r2, [r7, #8]
 800254a:	609a      	str	r2, [r3, #8]
      }
      if (diepint.b.inepnakeff)
 800254c:	7a3b      	ldrb	r3, [r7, #8]
 800254e:	f003 0340 	and.w	r3, r3, #64	; 0x40
 8002552:	b2db      	uxtb	r3, r3
 8002554:	2b00      	cmp	r3, #0
 8002556:	d00d      	beq.n	8002574 <DCD_HandleInEP_ISR+0x170>
      {
        CLEAR_IN_EP_INTR(epnum, inepnakeff);
 8002558:	2300      	movs	r3, #0
 800255a:	60bb      	str	r3, [r7, #8]
 800255c:	7a3b      	ldrb	r3, [r7, #8]
 800255e:	f043 0340 	orr.w	r3, r3, #64	; 0x40
 8002562:	723b      	strb	r3, [r7, #8]
 8002564:	687a      	ldr	r2, [r7, #4]
 8002566:	693b      	ldr	r3, [r7, #16]
 8002568:	3304      	adds	r3, #4
 800256a:	009b      	lsls	r3, r3, #2
 800256c:	4413      	add	r3, r2
 800256e:	689b      	ldr	r3, [r3, #8]
 8002570:	68ba      	ldr	r2, [r7, #8]
 8002572:	609a      	str	r2, [r3, #8]
      }
      if ( diepint.b.epdisabled )
 8002574:	7a3b      	ldrb	r3, [r7, #8]
 8002576:	f003 0302 	and.w	r3, r3, #2
 800257a:	b2db      	uxtb	r3, r3
 800257c:	2b00      	cmp	r3, #0
 800257e:	d00d      	beq.n	800259c <DCD_HandleInEP_ISR+0x198>
      {
        CLEAR_IN_EP_INTR(epnum, epdisabled);
 8002580:	2300      	movs	r3, #0
 8002582:	60bb      	str	r3, [r7, #8]
 8002584:	7a3b      	ldrb	r3, [r7, #8]
 8002586:	f043 0302 	orr.w	r3, r3, #2
 800258a:	723b      	strb	r3, [r7, #8]
 800258c:	687a      	ldr	r2, [r7, #4]
 800258e:	693b      	ldr	r3, [r7, #16]
 8002590:	3304      	adds	r3, #4
 8002592:	009b      	lsls	r3, r3, #2
 8002594:	4413      	add	r3, r2
 8002596:	689b      	ldr	r3, [r3, #8]
 8002598:	68ba      	ldr	r2, [r7, #8]
 800259a:	609a      	str	r2, [r3, #8]
      }       
      if (diepint.b.emptyintr)
 800259c:	7a3b      	ldrb	r3, [r7, #8]
 800259e:	f023 037f 	bic.w	r3, r3, #127	; 0x7f
 80025a2:	b2db      	uxtb	r3, r3
 80025a4:	2b00      	cmp	r3, #0
 80025a6:	d011      	beq.n	80025cc <DCD_HandleInEP_ISR+0x1c8>
      {
        
        DCD_WriteEmptyTxFifo(pdev , epnum);
 80025a8:	6939      	ldr	r1, [r7, #16]
 80025aa:	6878      	ldr	r0, [r7, #4]
 80025ac:	f000 f978 	bl	80028a0 <DCD_WriteEmptyTxFifo>
        
        CLEAR_IN_EP_INTR(epnum, emptyintr);
 80025b0:	2300      	movs	r3, #0
 80025b2:	60bb      	str	r3, [r7, #8]
 80025b4:	7a3b      	ldrb	r3, [r7, #8]
 80025b6:	f043 0380 	orr.w	r3, r3, #128	; 0x80
 80025ba:	723b      	strb	r3, [r7, #8]
 80025bc:	687a      	ldr	r2, [r7, #4]
 80025be:	693b      	ldr	r3, [r7, #16]
 80025c0:	3304      	adds	r3, #4
 80025c2:	009b      	lsls	r3, r3, #2
 80025c4:	4413      	add	r3, r2
 80025c6:	689b      	ldr	r3, [r3, #8]
 80025c8:	68ba      	ldr	r2, [r7, #8]
 80025ca:	609a      	str	r2, [r3, #8]
      }
    }
    epnum++;
 80025cc:	693b      	ldr	r3, [r7, #16]
 80025ce:	3301      	adds	r3, #1
 80025d0:	613b      	str	r3, [r7, #16]
    ep_intr >>= 1;
 80025d2:	697b      	ldr	r3, [r7, #20]
 80025d4:	085b      	lsrs	r3, r3, #1
 80025d6:	617b      	str	r3, [r7, #20]
  uint32_t epnum = 0;
  uint32_t fifoemptymsk;
  diepint.d32 = 0;
  ep_intr = USB_OTG_ReadDevAllInEPItr(pdev);
  
  while ( ep_intr )
 80025d8:	697b      	ldr	r3, [r7, #20]
 80025da:	2b00      	cmp	r3, #0
 80025dc:	f47f af1f 	bne.w	800241e <DCD_HandleInEP_ISR+0x1a>
    }
    epnum++;
    ep_intr >>= 1;
  }
  
  return 1;
 80025e0:	2301      	movs	r3, #1
}
 80025e2:	4618      	mov	r0, r3
 80025e4:	3718      	adds	r7, #24
 80025e6:	46bd      	mov	sp, r7
 80025e8:	bd80      	pop	{r7, pc}
 80025ea:	bf00      	nop
 80025ec:	20000050 	.word	0x20000050

080025f0 <DCD_HandleOutEP_ISR>:
*         Indicates that an OUT EP has a pending Interrupt
* @param  pdev: device instance
* @retval status
*/
static uint32_t DCD_HandleOutEP_ISR(USB_OTG_CORE_HANDLE *pdev)
{
 80025f0:	b580      	push	{r7, lr}
 80025f2:	b086      	sub	sp, #24
 80025f4:	af00      	add	r7, sp, #0
 80025f6:	6078      	str	r0, [r7, #4]
  uint32_t ep_intr;
  USB_OTG_DOEPINTn_TypeDef  doepint;
  USB_OTG_DEPXFRSIZ_TypeDef  deptsiz;
  uint32_t epnum = 0;
 80025f8:	2300      	movs	r3, #0
 80025fa:	613b      	str	r3, [r7, #16]
  
  doepint.d32 = 0;
 80025fc:	2300      	movs	r3, #0
 80025fe:	60fb      	str	r3, [r7, #12]
  
  /* Read in the device interrupt bits */
  ep_intr = USB_OTG_ReadDevAllOutEp_itr(pdev);
 8002600:	6878      	ldr	r0, [r7, #4]
 8002602:	f001 fdf7 	bl	80041f4 <USB_OTG_ReadDevAllOutEp_itr>
 8002606:	6178      	str	r0, [r7, #20]
  
  while ( ep_intr )
 8002608:	e0a3      	b.n	8002752 <DCD_HandleOutEP_ISR+0x162>
  {
    if (ep_intr&0x1)
 800260a:	697b      	ldr	r3, [r7, #20]
 800260c:	f003 0301 	and.w	r3, r3, #1
 8002610:	2b00      	cmp	r3, #0
 8002612:	f000 8098 	beq.w	8002746 <DCD_HandleOutEP_ISR+0x156>
    {
      
      doepint.d32 = USB_OTG_ReadDevOutEP_itr(pdev, epnum);
 8002616:	693b      	ldr	r3, [r7, #16]
 8002618:	b2db      	uxtb	r3, r3
 800261a:	4619      	mov	r1, r3
 800261c:	6878      	ldr	r0, [r7, #4]
 800261e:	f001 fdff 	bl	8004220 <USB_OTG_ReadDevOutEP_itr>
 8002622:	4603      	mov	r3, r0
 8002624:	60fb      	str	r3, [r7, #12]
      
      /* Transfer complete */
      if ( doepint.b.xfercompl )
 8002626:	7b3b      	ldrb	r3, [r7, #12]
 8002628:	f003 0301 	and.w	r3, r3, #1
 800262c:	b2db      	uxtb	r3, r3
 800262e:	2b00      	cmp	r3, #0
 8002630:	d048      	beq.n	80026c4 <DCD_HandleOutEP_ISR+0xd4>
      {
        /* Clear the bit in DOEPINTn for this interrupt */
        CLEAR_OUT_EP_INTR(epnum, xfercompl);
 8002632:	2300      	movs	r3, #0
 8002634:	60fb      	str	r3, [r7, #12]
 8002636:	7b3b      	ldrb	r3, [r7, #12]
 8002638:	f043 0301 	orr.w	r3, r3, #1
 800263c:	733b      	strb	r3, [r7, #12]
 800263e:	687a      	ldr	r2, [r7, #4]
 8002640:	693b      	ldr	r3, [r7, #16]
 8002642:	3314      	adds	r3, #20
 8002644:	009b      	lsls	r3, r3, #2
 8002646:	4413      	add	r3, r2
 8002648:	685b      	ldr	r3, [r3, #4]
 800264a:	68fa      	ldr	r2, [r7, #12]
 800264c:	609a      	str	r2, [r3, #8]
        if (pdev->cfg.dma_enable == 1)
 800264e:	687b      	ldr	r3, [r7, #4]
 8002650:	78db      	ldrb	r3, [r3, #3]
 8002652:	2b01      	cmp	r3, #1
 8002654:	d11f      	bne.n	8002696 <DCD_HandleOutEP_ISR+0xa6>
        {
          deptsiz.d32 = USB_OTG_READ_REG32(&(pdev->regs.OUTEP_REGS[epnum]->DOEPTSIZ));
 8002656:	687a      	ldr	r2, [r7, #4]
 8002658:	693b      	ldr	r3, [r7, #16]
 800265a:	3314      	adds	r3, #20
 800265c:	009b      	lsls	r3, r3, #2
 800265e:	4413      	add	r3, r2
 8002660:	685b      	ldr	r3, [r3, #4]
 8002662:	691b      	ldr	r3, [r3, #16]
 8002664:	60bb      	str	r3, [r7, #8]
          /*ToDo : handle more than one single MPS size packet */
          pdev->dev.out_ep[epnum].xfer_count = pdev->dev.out_ep[epnum].maxpacket - \
 8002666:	6879      	ldr	r1, [r7, #4]
 8002668:	693a      	ldr	r2, [r7, #16]
 800266a:	4613      	mov	r3, r2
 800266c:	009b      	lsls	r3, r3, #2
 800266e:	4413      	add	r3, r2
 8002670:	00db      	lsls	r3, r3, #3
 8002672:	440b      	add	r3, r1
 8002674:	f503 735e 	add.w	r3, r3, #888	; 0x378
 8002678:	681b      	ldr	r3, [r3, #0]
            deptsiz.b.xfersize;
 800267a:	68ba      	ldr	r2, [r7, #8]
 800267c:	f3c2 0212 	ubfx	r2, r2, #0, #19
        CLEAR_OUT_EP_INTR(epnum, xfercompl);
        if (pdev->cfg.dma_enable == 1)
        {
          deptsiz.d32 = USB_OTG_READ_REG32(&(pdev->regs.OUTEP_REGS[epnum]->DOEPTSIZ));
          /*ToDo : handle more than one single MPS size packet */
          pdev->dev.out_ep[epnum].xfer_count = pdev->dev.out_ep[epnum].maxpacket - \
 8002680:	1a99      	subs	r1, r3, r2
 8002682:	6878      	ldr	r0, [r7, #4]
 8002684:	693a      	ldr	r2, [r7, #16]
 8002686:	4613      	mov	r3, r2
 8002688:	009b      	lsls	r3, r3, #2
 800268a:	4413      	add	r3, r2
 800268c:	00db      	lsls	r3, r3, #3
 800268e:	4403      	add	r3, r0
 8002690:	f503 7362 	add.w	r3, r3, #904	; 0x388
 8002694:	6019      	str	r1, [r3, #0]
            deptsiz.b.xfersize;
        }
        /* Inform upper layer: data ready */
        /* RX COMPLETE */
        USBD_DCD_INT_fops->DataOutStage(pdev , epnum);
 8002696:	4b33      	ldr	r3, [pc, #204]	; (8002764 <DCD_HandleOutEP_ISR+0x174>)
 8002698:	681b      	ldr	r3, [r3, #0]
 800269a:	681b      	ldr	r3, [r3, #0]
 800269c:	693a      	ldr	r2, [r7, #16]
 800269e:	b2d2      	uxtb	r2, r2
 80026a0:	4611      	mov	r1, r2
 80026a2:	6878      	ldr	r0, [r7, #4]
 80026a4:	4798      	blx	r3
        
        if (pdev->cfg.dma_enable == 1)
 80026a6:	687b      	ldr	r3, [r7, #4]
 80026a8:	78db      	ldrb	r3, [r3, #3]
 80026aa:	2b01      	cmp	r3, #1
 80026ac:	d10a      	bne.n	80026c4 <DCD_HandleOutEP_ISR+0xd4>
        {
          if((epnum == 0) && (pdev->dev.device_state == USB_OTG_EP0_STATUS_OUT))
 80026ae:	693b      	ldr	r3, [r7, #16]
 80026b0:	2b00      	cmp	r3, #0
 80026b2:	d107      	bne.n	80026c4 <DCD_HandleOutEP_ISR+0xd4>
 80026b4:	687b      	ldr	r3, [r7, #4]
 80026b6:	f893 3111 	ldrb.w	r3, [r3, #273]	; 0x111
 80026ba:	2b05      	cmp	r3, #5
 80026bc:	d102      	bne.n	80026c4 <DCD_HandleOutEP_ISR+0xd4>
          {
            /* prepare to rx more setup packets */
            USB_OTG_EP0_OutStart(pdev);
 80026be:	6878      	ldr	r0, [r7, #4]
 80026c0:	f001 fde0 	bl	8004284 <USB_OTG_EP0_OutStart>
          }
        }        
      }
      /* Endpoint disable  */
      if ( doepint.b.epdisabled )
 80026c4:	7b3b      	ldrb	r3, [r7, #12]
 80026c6:	f003 0302 	and.w	r3, r3, #2
 80026ca:	b2db      	uxtb	r3, r3
 80026cc:	2b00      	cmp	r3, #0
 80026ce:	d00d      	beq.n	80026ec <DCD_HandleOutEP_ISR+0xfc>
      {
        /* Clear the bit in DOEPINTn for this interrupt */
        CLEAR_OUT_EP_INTR(epnum, epdisabled);
 80026d0:	2300      	movs	r3, #0
 80026d2:	60fb      	str	r3, [r7, #12]
 80026d4:	7b3b      	ldrb	r3, [r7, #12]
 80026d6:	f043 0302 	orr.w	r3, r3, #2
 80026da:	733b      	strb	r3, [r7, #12]
 80026dc:	687a      	ldr	r2, [r7, #4]
 80026de:	693b      	ldr	r3, [r7, #16]
 80026e0:	3314      	adds	r3, #20
 80026e2:	009b      	lsls	r3, r3, #2
 80026e4:	4413      	add	r3, r2
 80026e6:	685b      	ldr	r3, [r3, #4]
 80026e8:	68fa      	ldr	r2, [r7, #12]
 80026ea:	609a      	str	r2, [r3, #8]
      }
      /* AHB Error */
      if ( doepint.b.ahberr )
 80026ec:	7b3b      	ldrb	r3, [r7, #12]
 80026ee:	f003 0304 	and.w	r3, r3, #4
 80026f2:	b2db      	uxtb	r3, r3
 80026f4:	2b00      	cmp	r3, #0
 80026f6:	d00d      	beq.n	8002714 <DCD_HandleOutEP_ISR+0x124>
      {
        CLEAR_OUT_EP_INTR(epnum, ahberr);
 80026f8:	2300      	movs	r3, #0
 80026fa:	60fb      	str	r3, [r7, #12]
 80026fc:	7b3b      	ldrb	r3, [r7, #12]
 80026fe:	f043 0304 	orr.w	r3, r3, #4
 8002702:	733b      	strb	r3, [r7, #12]
 8002704:	687a      	ldr	r2, [r7, #4]
 8002706:	693b      	ldr	r3, [r7, #16]
 8002708:	3314      	adds	r3, #20
 800270a:	009b      	lsls	r3, r3, #2
 800270c:	4413      	add	r3, r2
 800270e:	685b      	ldr	r3, [r3, #4]
 8002710:	68fa      	ldr	r2, [r7, #12]
 8002712:	609a      	str	r2, [r3, #8]
      }
      /* Setup Phase Done (control EPs) */
      if ( doepint.b.setup )
 8002714:	7b3b      	ldrb	r3, [r7, #12]
 8002716:	f003 0308 	and.w	r3, r3, #8
 800271a:	b2db      	uxtb	r3, r3
 800271c:	2b00      	cmp	r3, #0
 800271e:	d012      	beq.n	8002746 <DCD_HandleOutEP_ISR+0x156>
      {
        
        /* inform the upper layer that a setup packet is available */
        /* SETUP COMPLETE */
        USBD_DCD_INT_fops->SetupStage(pdev);
 8002720:	4b10      	ldr	r3, [pc, #64]	; (8002764 <DCD_HandleOutEP_ISR+0x174>)
 8002722:	681b      	ldr	r3, [r3, #0]
 8002724:	689b      	ldr	r3, [r3, #8]
 8002726:	6878      	ldr	r0, [r7, #4]
 8002728:	4798      	blx	r3
        CLEAR_OUT_EP_INTR(epnum, setup);
 800272a:	2300      	movs	r3, #0
 800272c:	60fb      	str	r3, [r7, #12]
 800272e:	7b3b      	ldrb	r3, [r7, #12]
 8002730:	f043 0308 	orr.w	r3, r3, #8
 8002734:	733b      	strb	r3, [r7, #12]
 8002736:	687a      	ldr	r2, [r7, #4]
 8002738:	693b      	ldr	r3, [r7, #16]
 800273a:	3314      	adds	r3, #20
 800273c:	009b      	lsls	r3, r3, #2
 800273e:	4413      	add	r3, r2
 8002740:	685b      	ldr	r3, [r3, #4]
 8002742:	68fa      	ldr	r2, [r7, #12]
 8002744:	609a      	str	r2, [r3, #8]
      }
    }
    epnum++;
 8002746:	693b      	ldr	r3, [r7, #16]
 8002748:	3301      	adds	r3, #1
 800274a:	613b      	str	r3, [r7, #16]
    ep_intr >>= 1;
 800274c:	697b      	ldr	r3, [r7, #20]
 800274e:	085b      	lsrs	r3, r3, #1
 8002750:	617b      	str	r3, [r7, #20]
  doepint.d32 = 0;
  
  /* Read in the device interrupt bits */
  ep_intr = USB_OTG_ReadDevAllOutEp_itr(pdev);
  
  while ( ep_intr )
 8002752:	697b      	ldr	r3, [r7, #20]
 8002754:	2b00      	cmp	r3, #0
 8002756:	f47f af58 	bne.w	800260a <DCD_HandleOutEP_ISR+0x1a>
      }
    }
    epnum++;
    ep_intr >>= 1;
  }
  return 1;
 800275a:	2301      	movs	r3, #1
}
 800275c:	4618      	mov	r0, r3
 800275e:	3718      	adds	r7, #24
 8002760:	46bd      	mov	sp, r7
 8002762:	bd80      	pop	{r7, pc}
 8002764:	20000050 	.word	0x20000050

08002768 <DCD_HandleSof_ISR>:
*         Handles the SOF Interrupts
* @param  pdev: device instance
* @retval status
*/
static uint32_t DCD_HandleSof_ISR(USB_OTG_CORE_HANDLE *pdev)
{
 8002768:	b580      	push	{r7, lr}
 800276a:	b084      	sub	sp, #16
 800276c:	af00      	add	r7, sp, #0
 800276e:	6078      	str	r0, [r7, #4]
  USB_OTG_GINTSTS_TypeDef  GINTSTS;
  
  
  USBD_DCD_INT_fops->SOF(pdev);
 8002770:	4b09      	ldr	r3, [pc, #36]	; (8002798 <DCD_HandleSof_ISR+0x30>)
 8002772:	681b      	ldr	r3, [r3, #0]
 8002774:	68db      	ldr	r3, [r3, #12]
 8002776:	6878      	ldr	r0, [r7, #4]
 8002778:	4798      	blx	r3
  
  /* Clear interrupt */
  GINTSTS.d32 = 0;
 800277a:	2300      	movs	r3, #0
 800277c:	60fb      	str	r3, [r7, #12]
  GINTSTS.b.sofintr = 1;
 800277e:	7b3b      	ldrb	r3, [r7, #12]
 8002780:	f043 0308 	orr.w	r3, r3, #8
 8002784:	733b      	strb	r3, [r7, #12]
  USB_OTG_WRITE_REG32 (&pdev->regs.GREGS->GINTSTS, GINTSTS.d32);
 8002786:	687b      	ldr	r3, [r7, #4]
 8002788:	68db      	ldr	r3, [r3, #12]
 800278a:	68fa      	ldr	r2, [r7, #12]
 800278c:	615a      	str	r2, [r3, #20]
  
  return 1;
 800278e:	2301      	movs	r3, #1
}
 8002790:	4618      	mov	r0, r3
 8002792:	3710      	adds	r7, #16
 8002794:	46bd      	mov	sp, r7
 8002796:	bd80      	pop	{r7, pc}
 8002798:	20000050 	.word	0x20000050

0800279c <DCD_HandleRxStatusQueueLevel_ISR>:
*         Handles the Rx Status Queue Level Interrupt
* @param  pdev: device instance
* @retval status
*/
static uint32_t DCD_HandleRxStatusQueueLevel_ISR(USB_OTG_CORE_HANDLE *pdev)
{
 800279c:	b580      	push	{r7, lr}
 800279e:	b086      	sub	sp, #24
 80027a0:	af00      	add	r7, sp, #0
 80027a2:	6078      	str	r0, [r7, #4]
  USB_OTG_GINTMSK_TypeDef  int_mask;
  USB_OTG_DRXSTS_TypeDef   status;
  USB_OTG_EP *ep;
  
  /* Disable the Rx Status Queue Level interrupt */
  int_mask.d32 = 0;
 80027a4:	2300      	movs	r3, #0
 80027a6:	613b      	str	r3, [r7, #16]
  int_mask.b.rxstsqlvl = 1;
 80027a8:	7c3b      	ldrb	r3, [r7, #16]
 80027aa:	f043 0310 	orr.w	r3, r3, #16
 80027ae:	743b      	strb	r3, [r7, #16]
  USB_OTG_MODIFY_REG32( &pdev->regs.GREGS->GINTMSK, int_mask.d32, 0);
 80027b0:	687b      	ldr	r3, [r7, #4]
 80027b2:	68db      	ldr	r3, [r3, #12]
 80027b4:	687a      	ldr	r2, [r7, #4]
 80027b6:	68d2      	ldr	r2, [r2, #12]
 80027b8:	6991      	ldr	r1, [r2, #24]
 80027ba:	693a      	ldr	r2, [r7, #16]
 80027bc:	43d2      	mvns	r2, r2
 80027be:	400a      	ands	r2, r1
 80027c0:	619a      	str	r2, [r3, #24]
  
  /* Get the Status from the top of the FIFO */
  status.d32 = USB_OTG_READ_REG32( &pdev->regs.GREGS->GRXSTSP );
 80027c2:	687b      	ldr	r3, [r7, #4]
 80027c4:	68db      	ldr	r3, [r3, #12]
 80027c6:	6a1b      	ldr	r3, [r3, #32]
 80027c8:	60fb      	str	r3, [r7, #12]
  
  ep = &pdev->dev.out_ep[status.b.epnum];
 80027ca:	7b3b      	ldrb	r3, [r7, #12]
 80027cc:	f3c3 0303 	ubfx	r3, r3, #0, #4
 80027d0:	b2db      	uxtb	r3, r3
 80027d2:	461a      	mov	r2, r3
 80027d4:	4613      	mov	r3, r2
 80027d6:	009b      	lsls	r3, r3, #2
 80027d8:	4413      	add	r3, r2
 80027da:	00db      	lsls	r3, r3, #3
 80027dc:	f503 735c 	add.w	r3, r3, #880	; 0x370
 80027e0:	687a      	ldr	r2, [r7, #4]
 80027e2:	4413      	add	r3, r2
 80027e4:	617b      	str	r3, [r7, #20]
  
  switch (status.b.pktsts)
 80027e6:	7bbb      	ldrb	r3, [r7, #14]
 80027e8:	f3c3 0343 	ubfx	r3, r3, #1, #4
 80027ec:	b2db      	uxtb	r3, r3
 80027ee:	3b01      	subs	r3, #1
 80027f0:	2b05      	cmp	r3, #5
 80027f2:	d845      	bhi.n	8002880 <DCD_HandleRxStatusQueueLevel_ISR+0xe4>
 80027f4:	a201      	add	r2, pc, #4	; (adr r2, 80027fc <DCD_HandleRxStatusQueueLevel_ISR+0x60>)
 80027f6:	f852 f023 	ldr.w	pc, [r2, r3, lsl #2]
 80027fa:	bf00      	nop
 80027fc:	08002881 	.word	0x08002881
 8002800:	08002815 	.word	0x08002815
 8002804:	08002881 	.word	0x08002881
 8002808:	08002881 	.word	0x08002881
 800280c:	08002881 	.word	0x08002881
 8002810:	0800285d 	.word	0x0800285d
  {
  case STS_GOUT_NAK:
    break;
  case STS_DATA_UPDT:
    if (status.b.bcnt)
 8002814:	89ba      	ldrh	r2, [r7, #12]
 8002816:	f647 73f0 	movw	r3, #32752	; 0x7ff0
 800281a:	4013      	ands	r3, r2
 800281c:	b29b      	uxth	r3, r3
 800281e:	2b00      	cmp	r3, #0
 8002820:	d030      	beq.n	8002884 <DCD_HandleRxStatusQueueLevel_ISR+0xe8>
    {
      USB_OTG_ReadPacket(pdev,ep->xfer_buff, status.b.bcnt);
 8002822:	697b      	ldr	r3, [r7, #20]
 8002824:	68d9      	ldr	r1, [r3, #12]
 8002826:	89bb      	ldrh	r3, [r7, #12]
 8002828:	f3c3 130a 	ubfx	r3, r3, #4, #11
 800282c:	b29b      	uxth	r3, r3
 800282e:	461a      	mov	r2, r3
 8002830:	6878      	ldr	r0, [r7, #4]
 8002832:	f000 fca7 	bl	8003184 <USB_OTG_ReadPacket>
      ep->xfer_buff += status.b.bcnt;
 8002836:	697b      	ldr	r3, [r7, #20]
 8002838:	68db      	ldr	r3, [r3, #12]
 800283a:	89ba      	ldrh	r2, [r7, #12]
 800283c:	f3c2 120a 	ubfx	r2, r2, #4, #11
 8002840:	b292      	uxth	r2, r2
 8002842:	441a      	add	r2, r3
 8002844:	697b      	ldr	r3, [r7, #20]
 8002846:	60da      	str	r2, [r3, #12]
      ep->xfer_count += status.b.bcnt;
 8002848:	697b      	ldr	r3, [r7, #20]
 800284a:	699b      	ldr	r3, [r3, #24]
 800284c:	89ba      	ldrh	r2, [r7, #12]
 800284e:	f3c2 120a 	ubfx	r2, r2, #4, #11
 8002852:	b292      	uxth	r2, r2
 8002854:	441a      	add	r2, r3
 8002856:	697b      	ldr	r3, [r7, #20]
 8002858:	619a      	str	r2, [r3, #24]
    }
    break;
 800285a:	e013      	b.n	8002884 <DCD_HandleRxStatusQueueLevel_ISR+0xe8>
    break;
  case STS_SETUP_COMP:
    break;
  case STS_SETUP_UPDT:
    /* Copy the setup packet received in FIFO into the setup buffer in RAM */
    USB_OTG_ReadPacket(pdev , pdev->dev.setup_packet, 8);
 800285c:	687b      	ldr	r3, [r7, #4]
 800285e:	f503 63b9 	add.w	r3, r3, #1480	; 0x5c8
 8002862:	2208      	movs	r2, #8
 8002864:	4619      	mov	r1, r3
 8002866:	6878      	ldr	r0, [r7, #4]
 8002868:	f000 fc8c 	bl	8003184 <USB_OTG_ReadPacket>
    ep->xfer_count += status.b.bcnt;
 800286c:	697b      	ldr	r3, [r7, #20]
 800286e:	699b      	ldr	r3, [r3, #24]
 8002870:	89ba      	ldrh	r2, [r7, #12]
 8002872:	f3c2 120a 	ubfx	r2, r2, #4, #11
 8002876:	b292      	uxth	r2, r2
 8002878:	441a      	add	r2, r3
 800287a:	697b      	ldr	r3, [r7, #20]
 800287c:	619a      	str	r2, [r3, #24]
    break;
 800287e:	e002      	b.n	8002886 <DCD_HandleRxStatusQueueLevel_ISR+0xea>
  default:
    break;
 8002880:	bf00      	nop
 8002882:	e000      	b.n	8002886 <DCD_HandleRxStatusQueueLevel_ISR+0xea>
    {
      USB_OTG_ReadPacket(pdev,ep->xfer_buff, status.b.bcnt);
      ep->xfer_buff += status.b.bcnt;
      ep->xfer_count += status.b.bcnt;
    }
    break;
 8002884:	bf00      	nop
  default:
    break;
  }
  
  /* Enable the Rx Status Queue Level interrupt */
  USB_OTG_MODIFY_REG32( &pdev->regs.GREGS->GINTMSK, 0, int_mask.d32);
 8002886:	687b      	ldr	r3, [r7, #4]
 8002888:	68db      	ldr	r3, [r3, #12]
 800288a:	687a      	ldr	r2, [r7, #4]
 800288c:	68d2      	ldr	r2, [r2, #12]
 800288e:	6991      	ldr	r1, [r2, #24]
 8002890:	693a      	ldr	r2, [r7, #16]
 8002892:	430a      	orrs	r2, r1
 8002894:	619a      	str	r2, [r3, #24]
  
  return 1;
 8002896:	2301      	movs	r3, #1
}
 8002898:	4618      	mov	r0, r3
 800289a:	3718      	adds	r7, #24
 800289c:	46bd      	mov	sp, r7
 800289e:	bd80      	pop	{r7, pc}

080028a0 <DCD_WriteEmptyTxFifo>:
*         check FIFO for the next packet to be loaded
* @param  pdev: device instance
* @retval status
*/
static uint32_t DCD_WriteEmptyTxFifo(USB_OTG_CORE_HANDLE *pdev, uint32_t epnum)
{
 80028a0:	b580      	push	{r7, lr}
 80028a2:	b086      	sub	sp, #24
 80028a4:	af00      	add	r7, sp, #0
 80028a6:	6078      	str	r0, [r7, #4]
 80028a8:	6039      	str	r1, [r7, #0]
  USB_OTG_DTXFSTSn_TypeDef  txstatus;
  USB_OTG_EP *ep;
  uint32_t len = 0;
 80028aa:	2300      	movs	r3, #0
 80028ac:	617b      	str	r3, [r7, #20]
  uint32_t len32b;
  txstatus.d32 = 0;
 80028ae:	2300      	movs	r3, #0
 80028b0:	60bb      	str	r3, [r7, #8]
  
  ep = &pdev->dev.in_ep[epnum];    
 80028b2:	683a      	ldr	r2, [r7, #0]
 80028b4:	4613      	mov	r3, r2
 80028b6:	009b      	lsls	r3, r3, #2
 80028b8:	4413      	add	r3, r2
 80028ba:	00db      	lsls	r3, r3, #3
 80028bc:	f503 738c 	add.w	r3, r3, #280	; 0x118
 80028c0:	687a      	ldr	r2, [r7, #4]
 80028c2:	4413      	add	r3, r2
 80028c4:	60fb      	str	r3, [r7, #12]
  
  len = ep->xfer_len - ep->xfer_count;
 80028c6:	68fb      	ldr	r3, [r7, #12]
 80028c8:	695a      	ldr	r2, [r3, #20]
 80028ca:	68fb      	ldr	r3, [r7, #12]
 80028cc:	699b      	ldr	r3, [r3, #24]
 80028ce:	1ad3      	subs	r3, r2, r3
 80028d0:	617b      	str	r3, [r7, #20]
  
  if (len > ep->maxpacket)
 80028d2:	68fb      	ldr	r3, [r7, #12]
 80028d4:	689a      	ldr	r2, [r3, #8]
 80028d6:	697b      	ldr	r3, [r7, #20]
 80028d8:	429a      	cmp	r2, r3
 80028da:	d202      	bcs.n	80028e2 <DCD_WriteEmptyTxFifo+0x42>
  {
    len = ep->maxpacket;
 80028dc:	68fb      	ldr	r3, [r7, #12]
 80028de:	689b      	ldr	r3, [r3, #8]
 80028e0:	617b      	str	r3, [r7, #20]
  }
  
  len32b = (len + 3) / 4;
 80028e2:	697b      	ldr	r3, [r7, #20]
 80028e4:	3303      	adds	r3, #3
 80028e6:	089b      	lsrs	r3, r3, #2
 80028e8:	613b      	str	r3, [r7, #16]
  txstatus.d32 = USB_OTG_READ_REG32( &pdev->regs.INEP_REGS[epnum]->DTXFSTS);
 80028ea:	687a      	ldr	r2, [r7, #4]
 80028ec:	683b      	ldr	r3, [r7, #0]
 80028ee:	3304      	adds	r3, #4
 80028f0:	009b      	lsls	r3, r3, #2
 80028f2:	4413      	add	r3, r2
 80028f4:	689b      	ldr	r3, [r3, #8]
 80028f6:	699b      	ldr	r3, [r3, #24]
 80028f8:	60bb      	str	r3, [r7, #8]
  
  
  
  while  (txstatus.b.txfspcavail > len32b &&
 80028fa:	e02e      	b.n	800295a <DCD_WriteEmptyTxFifo+0xba>
          ep->xfer_count < ep->xfer_len &&
            ep->xfer_len != 0)
  {
    /* Write the FIFO */
    len = ep->xfer_len - ep->xfer_count;
 80028fc:	68fb      	ldr	r3, [r7, #12]
 80028fe:	695a      	ldr	r2, [r3, #20]
 8002900:	68fb      	ldr	r3, [r7, #12]
 8002902:	699b      	ldr	r3, [r3, #24]
 8002904:	1ad3      	subs	r3, r2, r3
 8002906:	617b      	str	r3, [r7, #20]
    
    if (len > ep->maxpacket)
 8002908:	68fb      	ldr	r3, [r7, #12]
 800290a:	689a      	ldr	r2, [r3, #8]
 800290c:	697b      	ldr	r3, [r7, #20]
 800290e:	429a      	cmp	r2, r3
 8002910:	d202      	bcs.n	8002918 <DCD_WriteEmptyTxFifo+0x78>
    {
      len = ep->maxpacket;
 8002912:	68fb      	ldr	r3, [r7, #12]
 8002914:	689b      	ldr	r3, [r3, #8]
 8002916:	617b      	str	r3, [r7, #20]
    }
    len32b = (len + 3) / 4;
 8002918:	697b      	ldr	r3, [r7, #20]
 800291a:	3303      	adds	r3, #3
 800291c:	089b      	lsrs	r3, r3, #2
 800291e:	613b      	str	r3, [r7, #16]
    
    USB_OTG_WritePacket (pdev , ep->xfer_buff, epnum, len);
 8002920:	68fb      	ldr	r3, [r7, #12]
 8002922:	68d9      	ldr	r1, [r3, #12]
 8002924:	683b      	ldr	r3, [r7, #0]
 8002926:	b2da      	uxtb	r2, r3
 8002928:	697b      	ldr	r3, [r7, #20]
 800292a:	b29b      	uxth	r3, r3
 800292c:	6878      	ldr	r0, [r7, #4]
 800292e:	f000 fbed 	bl	800310c <USB_OTG_WritePacket>
    
    ep->xfer_buff  += len;
 8002932:	68fb      	ldr	r3, [r7, #12]
 8002934:	68da      	ldr	r2, [r3, #12]
 8002936:	697b      	ldr	r3, [r7, #20]
 8002938:	441a      	add	r2, r3
 800293a:	68fb      	ldr	r3, [r7, #12]
 800293c:	60da      	str	r2, [r3, #12]
    ep->xfer_count += len;
 800293e:	68fb      	ldr	r3, [r7, #12]
 8002940:	699a      	ldr	r2, [r3, #24]
 8002942:	697b      	ldr	r3, [r7, #20]
 8002944:	441a      	add	r2, r3
 8002946:	68fb      	ldr	r3, [r7, #12]
 8002948:	619a      	str	r2, [r3, #24]
    
    txstatus.d32 = USB_OTG_READ_REG32(&pdev->regs.INEP_REGS[epnum]->DTXFSTS);
 800294a:	687a      	ldr	r2, [r7, #4]
 800294c:	683b      	ldr	r3, [r7, #0]
 800294e:	3304      	adds	r3, #4
 8002950:	009b      	lsls	r3, r3, #2
 8002952:	4413      	add	r3, r2
 8002954:	689b      	ldr	r3, [r3, #8]
 8002956:	699b      	ldr	r3, [r3, #24]
 8002958:	60bb      	str	r3, [r7, #8]
  len32b = (len + 3) / 4;
  txstatus.d32 = USB_OTG_READ_REG32( &pdev->regs.INEP_REGS[epnum]->DTXFSTS);
  
  
  
  while  (txstatus.b.txfspcavail > len32b &&
 800295a:	893b      	ldrh	r3, [r7, #8]
 800295c:	461a      	mov	r2, r3
 800295e:	693b      	ldr	r3, [r7, #16]
 8002960:	429a      	cmp	r2, r3
 8002962:	d909      	bls.n	8002978 <DCD_WriteEmptyTxFifo+0xd8>
          ep->xfer_count < ep->xfer_len &&
 8002964:	68fb      	ldr	r3, [r7, #12]
 8002966:	699a      	ldr	r2, [r3, #24]
 8002968:	68fb      	ldr	r3, [r7, #12]
 800296a:	695b      	ldr	r3, [r3, #20]
  len32b = (len + 3) / 4;
  txstatus.d32 = USB_OTG_READ_REG32( &pdev->regs.INEP_REGS[epnum]->DTXFSTS);
  
  
  
  while  (txstatus.b.txfspcavail > len32b &&
 800296c:	429a      	cmp	r2, r3
 800296e:	d203      	bcs.n	8002978 <DCD_WriteEmptyTxFifo+0xd8>
          ep->xfer_count < ep->xfer_len &&
            ep->xfer_len != 0)
 8002970:	68fb      	ldr	r3, [r7, #12]
 8002972:	695b      	ldr	r3, [r3, #20]
  txstatus.d32 = USB_OTG_READ_REG32( &pdev->regs.INEP_REGS[epnum]->DTXFSTS);
  
  
  
  while  (txstatus.b.txfspcavail > len32b &&
          ep->xfer_count < ep->xfer_len &&
 8002974:	2b00      	cmp	r3, #0
 8002976:	d1c1      	bne.n	80028fc <DCD_WriteEmptyTxFifo+0x5c>
    ep->xfer_count += len;
    
    txstatus.d32 = USB_OTG_READ_REG32(&pdev->regs.INEP_REGS[epnum]->DTXFSTS);
  }
  
  return 1;
 8002978:	2301      	movs	r3, #1
}
 800297a:	4618      	mov	r0, r3
 800297c:	3718      	adds	r7, #24
 800297e:	46bd      	mov	sp, r7
 8002980:	bd80      	pop	{r7, pc}
 8002982:	bf00      	nop

08002984 <DCD_HandleUsbReset_ISR>:
*         This interrupt occurs when a USB Reset is detected
* @param  pdev: device instance
* @retval status
*/
static uint32_t DCD_HandleUsbReset_ISR(USB_OTG_CORE_HANDLE *pdev)
{
 8002984:	b580      	push	{r7, lr}
 8002986:	b08a      	sub	sp, #40	; 0x28
 8002988:	af00      	add	r7, sp, #0
 800298a:	6078      	str	r0, [r7, #4]
  USB_OTG_DCFG_TypeDef     dcfg;
  USB_OTG_DCTL_TypeDef     dctl;
  USB_OTG_GINTSTS_TypeDef  gintsts;
  uint32_t i;
  
  dctl.d32 = 0;
 800298c:	2300      	movs	r3, #0
 800298e:	613b      	str	r3, [r7, #16]
  daintmsk.d32 = 0;
 8002990:	2300      	movs	r3, #0
 8002992:	623b      	str	r3, [r7, #32]
  doepmsk.d32 = 0;
 8002994:	2300      	movs	r3, #0
 8002996:	61fb      	str	r3, [r7, #28]
  diepmsk.d32 = 0;
 8002998:	2300      	movs	r3, #0
 800299a:	61bb      	str	r3, [r7, #24]
  dcfg.d32 = 0;
 800299c:	2300      	movs	r3, #0
 800299e:	617b      	str	r3, [r7, #20]
  gintsts.d32 = 0;
 80029a0:	2300      	movs	r3, #0
 80029a2:	60fb      	str	r3, [r7, #12]
  
  /* Clear the Remote Wake-up Signaling */
  dctl.b.rmtwkupsig = 1;
 80029a4:	7c3b      	ldrb	r3, [r7, #16]
 80029a6:	f043 0301 	orr.w	r3, r3, #1
 80029aa:	743b      	strb	r3, [r7, #16]
  USB_OTG_MODIFY_REG32(&pdev->regs.DREGS->DCTL, dctl.d32, 0 );
 80029ac:	687b      	ldr	r3, [r7, #4]
 80029ae:	691b      	ldr	r3, [r3, #16]
 80029b0:	687a      	ldr	r2, [r7, #4]
 80029b2:	6912      	ldr	r2, [r2, #16]
 80029b4:	6851      	ldr	r1, [r2, #4]
 80029b6:	693a      	ldr	r2, [r7, #16]
 80029b8:	43d2      	mvns	r2, r2
 80029ba:	400a      	ands	r2, r1
 80029bc:	605a      	str	r2, [r3, #4]
  
  /* Flush the Tx FIFO */
  USB_OTG_FlushTxFifo(pdev ,  0 );
 80029be:	2100      	movs	r1, #0
 80029c0:	6878      	ldr	r0, [r7, #4]
 80029c2:	f000 fdeb 	bl	800359c <USB_OTG_FlushTxFifo>
  
  for (i = 0; i < pdev->cfg.dev_endpoints ; i++)
 80029c6:	2300      	movs	r3, #0
 80029c8:	627b      	str	r3, [r7, #36]	; 0x24
 80029ca:	e012      	b.n	80029f2 <DCD_HandleUsbReset_ISR+0x6e>
  {
    USB_OTG_WRITE_REG32( &pdev->regs.INEP_REGS[i]->DIEPINT, 0xFF);
 80029cc:	687a      	ldr	r2, [r7, #4]
 80029ce:	6a7b      	ldr	r3, [r7, #36]	; 0x24
 80029d0:	3304      	adds	r3, #4
 80029d2:	009b      	lsls	r3, r3, #2
 80029d4:	4413      	add	r3, r2
 80029d6:	689b      	ldr	r3, [r3, #8]
 80029d8:	22ff      	movs	r2, #255	; 0xff
 80029da:	609a      	str	r2, [r3, #8]
    USB_OTG_WRITE_REG32( &pdev->regs.OUTEP_REGS[i]->DOEPINT, 0xFF);
 80029dc:	687a      	ldr	r2, [r7, #4]
 80029de:	6a7b      	ldr	r3, [r7, #36]	; 0x24
 80029e0:	3314      	adds	r3, #20
 80029e2:	009b      	lsls	r3, r3, #2
 80029e4:	4413      	add	r3, r2
 80029e6:	685b      	ldr	r3, [r3, #4]
 80029e8:	22ff      	movs	r2, #255	; 0xff
 80029ea:	609a      	str	r2, [r3, #8]
  USB_OTG_MODIFY_REG32(&pdev->regs.DREGS->DCTL, dctl.d32, 0 );
  
  /* Flush the Tx FIFO */
  USB_OTG_FlushTxFifo(pdev ,  0 );
  
  for (i = 0; i < pdev->cfg.dev_endpoints ; i++)
 80029ec:	6a7b      	ldr	r3, [r7, #36]	; 0x24
 80029ee:	3301      	adds	r3, #1
 80029f0:	627b      	str	r3, [r7, #36]	; 0x24
 80029f2:	687b      	ldr	r3, [r7, #4]
 80029f4:	785b      	ldrb	r3, [r3, #1]
 80029f6:	461a      	mov	r2, r3
 80029f8:	6a7b      	ldr	r3, [r7, #36]	; 0x24
 80029fa:	429a      	cmp	r2, r3
 80029fc:	d8e6      	bhi.n	80029cc <DCD_HandleUsbReset_ISR+0x48>
  {
    USB_OTG_WRITE_REG32( &pdev->regs.INEP_REGS[i]->DIEPINT, 0xFF);
    USB_OTG_WRITE_REG32( &pdev->regs.OUTEP_REGS[i]->DOEPINT, 0xFF);
  }
  USB_OTG_WRITE_REG32( &pdev->regs.DREGS->DAINT, 0xFFFFFFFF );
 80029fe:	687b      	ldr	r3, [r7, #4]
 8002a00:	691b      	ldr	r3, [r3, #16]
 8002a02:	f04f 32ff 	mov.w	r2, #4294967295
 8002a06:	619a      	str	r2, [r3, #24]
  
  daintmsk.ep.in = 1;
 8002a08:	2301      	movs	r3, #1
 8002a0a:	843b      	strh	r3, [r7, #32]
  daintmsk.ep.out = 1;
 8002a0c:	2301      	movs	r3, #1
 8002a0e:	847b      	strh	r3, [r7, #34]	; 0x22
  USB_OTG_WRITE_REG32( &pdev->regs.DREGS->DAINTMSK, daintmsk.d32 );
 8002a10:	687b      	ldr	r3, [r7, #4]
 8002a12:	691b      	ldr	r3, [r3, #16]
 8002a14:	6a3a      	ldr	r2, [r7, #32]
 8002a16:	61da      	str	r2, [r3, #28]
  
  doepmsk.b.setup = 1;
 8002a18:	7f3b      	ldrb	r3, [r7, #28]
 8002a1a:	f043 0308 	orr.w	r3, r3, #8
 8002a1e:	773b      	strb	r3, [r7, #28]
  doepmsk.b.xfercompl = 1;
 8002a20:	7f3b      	ldrb	r3, [r7, #28]
 8002a22:	f043 0301 	orr.w	r3, r3, #1
 8002a26:	773b      	strb	r3, [r7, #28]
  doepmsk.b.ahberr = 1;
 8002a28:	7f3b      	ldrb	r3, [r7, #28]
 8002a2a:	f043 0304 	orr.w	r3, r3, #4
 8002a2e:	773b      	strb	r3, [r7, #28]
  doepmsk.b.epdisabled = 1;
 8002a30:	7f3b      	ldrb	r3, [r7, #28]
 8002a32:	f043 0302 	orr.w	r3, r3, #2
 8002a36:	773b      	strb	r3, [r7, #28]
  USB_OTG_WRITE_REG32( &pdev->regs.DREGS->DOEPMSK, doepmsk.d32 );
 8002a38:	687b      	ldr	r3, [r7, #4]
 8002a3a:	691b      	ldr	r3, [r3, #16]
 8002a3c:	69fa      	ldr	r2, [r7, #28]
 8002a3e:	615a      	str	r2, [r3, #20]
#ifdef USB_OTG_HS_DEDICATED_EP1_ENABLED   
  USB_OTG_WRITE_REG32( &pdev->regs.DREGS->DOUTEP1MSK, doepmsk.d32 );
#endif
  diepmsk.b.xfercompl = 1;
 8002a40:	7e3b      	ldrb	r3, [r7, #24]
 8002a42:	f043 0301 	orr.w	r3, r3, #1
 8002a46:	763b      	strb	r3, [r7, #24]
  diepmsk.b.timeout = 1;
 8002a48:	7e3b      	ldrb	r3, [r7, #24]
 8002a4a:	f043 0308 	orr.w	r3, r3, #8
 8002a4e:	763b      	strb	r3, [r7, #24]
  diepmsk.b.epdisabled = 1;
 8002a50:	7e3b      	ldrb	r3, [r7, #24]
 8002a52:	f043 0302 	orr.w	r3, r3, #2
 8002a56:	763b      	strb	r3, [r7, #24]
  diepmsk.b.ahberr = 1;
 8002a58:	7e3b      	ldrb	r3, [r7, #24]
 8002a5a:	f043 0304 	orr.w	r3, r3, #4
 8002a5e:	763b      	strb	r3, [r7, #24]
  diepmsk.b.intknepmis = 1;
 8002a60:	7e3b      	ldrb	r3, [r7, #24]
 8002a62:	f043 0320 	orr.w	r3, r3, #32
 8002a66:	763b      	strb	r3, [r7, #24]
  USB_OTG_WRITE_REG32( &pdev->regs.DREGS->DIEPMSK, diepmsk.d32 );
 8002a68:	687b      	ldr	r3, [r7, #4]
 8002a6a:	691b      	ldr	r3, [r3, #16]
 8002a6c:	69ba      	ldr	r2, [r7, #24]
 8002a6e:	611a      	str	r2, [r3, #16]
#ifdef USB_OTG_HS_DEDICATED_EP1_ENABLED  
  USB_OTG_WRITE_REG32( &pdev->regs.DREGS->DINEP1MSK, diepmsk.d32 );
#endif
  /* Reset Device Address */
  dcfg.d32 = USB_OTG_READ_REG32( &pdev->regs.DREGS->DCFG);
 8002a70:	687b      	ldr	r3, [r7, #4]
 8002a72:	691b      	ldr	r3, [r3, #16]
 8002a74:	681b      	ldr	r3, [r3, #0]
 8002a76:	617b      	str	r3, [r7, #20]
  dcfg.b.devaddr = 0;
 8002a78:	8abb      	ldrh	r3, [r7, #20]
 8002a7a:	f36f 130a 	bfc	r3, #4, #7
 8002a7e:	82bb      	strh	r3, [r7, #20]
  USB_OTG_WRITE_REG32( &pdev->regs.DREGS->DCFG, dcfg.d32);
 8002a80:	687b      	ldr	r3, [r7, #4]
 8002a82:	691b      	ldr	r3, [r3, #16]
 8002a84:	697a      	ldr	r2, [r7, #20]
 8002a86:	601a      	str	r2, [r3, #0]
  
  
  /* setup EP0 to receive SETUP packets */
  USB_OTG_EP0_OutStart(pdev);
 8002a88:	6878      	ldr	r0, [r7, #4]
 8002a8a:	f001 fbfb 	bl	8004284 <USB_OTG_EP0_OutStart>
  
  /* Clear interrupt */
  gintsts.d32 = 0;
 8002a8e:	2300      	movs	r3, #0
 8002a90:	60fb      	str	r3, [r7, #12]
  gintsts.b.usbreset = 1;
 8002a92:	7b7b      	ldrb	r3, [r7, #13]
 8002a94:	f043 0310 	orr.w	r3, r3, #16
 8002a98:	737b      	strb	r3, [r7, #13]
  USB_OTG_WRITE_REG32 (&pdev->regs.GREGS->GINTSTS, gintsts.d32);
 8002a9a:	687b      	ldr	r3, [r7, #4]
 8002a9c:	68db      	ldr	r3, [r3, #12]
 8002a9e:	68fa      	ldr	r2, [r7, #12]
 8002aa0:	615a      	str	r2, [r3, #20]
  
  /*Reset internal state machine */
  USBD_DCD_INT_fops->Reset(pdev);
 8002aa2:	4b05      	ldr	r3, [pc, #20]	; (8002ab8 <DCD_HandleUsbReset_ISR+0x134>)
 8002aa4:	681b      	ldr	r3, [r3, #0]
 8002aa6:	691b      	ldr	r3, [r3, #16]
 8002aa8:	6878      	ldr	r0, [r7, #4]
 8002aaa:	4798      	blx	r3
  return 1;
 8002aac:	2301      	movs	r3, #1
}
 8002aae:	4618      	mov	r0, r3
 8002ab0:	3728      	adds	r7, #40	; 0x28
 8002ab2:	46bd      	mov	sp, r7
 8002ab4:	bd80      	pop	{r7, pc}
 8002ab6:	bf00      	nop
 8002ab8:	20000050 	.word	0x20000050

08002abc <DCD_HandleEnumDone_ISR>:
*         Read the device status register and set the device speed
* @param  pdev: device instance
* @retval status
*/
static uint32_t DCD_HandleEnumDone_ISR(USB_OTG_CORE_HANDLE *pdev)
{
 8002abc:	b580      	push	{r7, lr}
 8002abe:	b084      	sub	sp, #16
 8002ac0:	af00      	add	r7, sp, #0
 8002ac2:	6078      	str	r0, [r7, #4]
  USB_OTG_GINTSTS_TypeDef  gintsts;
  USB_OTG_GUSBCFG_TypeDef  gusbcfg;
  
  USB_OTG_EP0Activate(pdev);
 8002ac4:	6878      	ldr	r0, [r7, #4]
 8002ac6:	f000 fffb 	bl	8003ac0 <USB_OTG_EP0Activate>
  
  /* Set USB turn-around time based on device speed and PHY interface. */
  gusbcfg.d32 = USB_OTG_READ_REG32(&pdev->regs.GREGS->GUSBCFG);
 8002aca:	687b      	ldr	r3, [r7, #4]
 8002acc:	68db      	ldr	r3, [r3, #12]
 8002ace:	68db      	ldr	r3, [r3, #12]
 8002ad0:	60bb      	str	r3, [r7, #8]
  
  /* Full or High speed */
  if ( USB_OTG_GetDeviceSpeed(pdev) == USB_SPEED_HIGH)
 8002ad2:	6878      	ldr	r0, [r7, #4]
 8002ad4:	f000 ffd0 	bl	8003a78 <USB_OTG_GetDeviceSpeed>
 8002ad8:	4603      	mov	r3, r0
 8002ada:	2b03      	cmp	r3, #3
 8002adc:	d10c      	bne.n	8002af8 <DCD_HandleEnumDone_ISR+0x3c>
  {
    pdev->cfg.speed            = USB_OTG_SPEED_HIGH;
 8002ade:	687b      	ldr	r3, [r7, #4]
 8002ae0:	2200      	movs	r2, #0
 8002ae2:	709a      	strb	r2, [r3, #2]
    pdev->cfg.mps              = USB_OTG_HS_MAX_PACKET_SIZE ;    
 8002ae4:	687b      	ldr	r3, [r7, #4]
 8002ae6:	f44f 7200 	mov.w	r2, #512	; 0x200
 8002aea:	809a      	strh	r2, [r3, #4]
    gusbcfg.b.usbtrdtim = 9;
 8002aec:	7a7b      	ldrb	r3, [r7, #9]
 8002aee:	2209      	movs	r2, #9
 8002af0:	f362 0385 	bfi	r3, r2, #2, #4
 8002af4:	727b      	strb	r3, [r7, #9]
 8002af6:	e00a      	b.n	8002b0e <DCD_HandleEnumDone_ISR+0x52>
  }
  else
  {
    pdev->cfg.speed            = USB_OTG_SPEED_FULL;
 8002af8:	687b      	ldr	r3, [r7, #4]
 8002afa:	2201      	movs	r2, #1
 8002afc:	709a      	strb	r2, [r3, #2]
    pdev->cfg.mps              = USB_OTG_FS_MAX_PACKET_SIZE ;  
 8002afe:	687b      	ldr	r3, [r7, #4]
 8002b00:	2240      	movs	r2, #64	; 0x40
 8002b02:	809a      	strh	r2, [r3, #4]
    gusbcfg.b.usbtrdtim = 5;
 8002b04:	7a7b      	ldrb	r3, [r7, #9]
 8002b06:	2205      	movs	r2, #5
 8002b08:	f362 0385 	bfi	r3, r2, #2, #4
 8002b0c:	727b      	strb	r3, [r7, #9]
  }
  
  USB_OTG_WRITE_REG32(&pdev->regs.GREGS->GUSBCFG, gusbcfg.d32);
 8002b0e:	687b      	ldr	r3, [r7, #4]
 8002b10:	68db      	ldr	r3, [r3, #12]
 8002b12:	68ba      	ldr	r2, [r7, #8]
 8002b14:	60da      	str	r2, [r3, #12]
  
  /* Clear interrupt */
  gintsts.d32 = 0;
 8002b16:	2300      	movs	r3, #0
 8002b18:	60fb      	str	r3, [r7, #12]
  gintsts.b.enumdone = 1;
 8002b1a:	7b7b      	ldrb	r3, [r7, #13]
 8002b1c:	f043 0320 	orr.w	r3, r3, #32
 8002b20:	737b      	strb	r3, [r7, #13]
  USB_OTG_WRITE_REG32( &pdev->regs.GREGS->GINTSTS, gintsts.d32 );
 8002b22:	687b      	ldr	r3, [r7, #4]
 8002b24:	68db      	ldr	r3, [r3, #12]
 8002b26:	68fa      	ldr	r2, [r7, #12]
 8002b28:	615a      	str	r2, [r3, #20]
  return 1;
 8002b2a:	2301      	movs	r3, #1
}
 8002b2c:	4618      	mov	r0, r3
 8002b2e:	3710      	adds	r7, #16
 8002b30:	46bd      	mov	sp, r7
 8002b32:	bd80      	pop	{r7, pc}

08002b34 <DCD_IsoINIncomplete_ISR>:
*         handle the ISO IN incomplete interrupt
* @param  pdev: device instance
* @retval status
*/
static uint32_t DCD_IsoINIncomplete_ISR(USB_OTG_CORE_HANDLE *pdev)
{
 8002b34:	b580      	push	{r7, lr}
 8002b36:	b084      	sub	sp, #16
 8002b38:	af00      	add	r7, sp, #0
 8002b3a:	6078      	str	r0, [r7, #4]
  USB_OTG_GINTSTS_TypeDef gintsts;  
  
  gintsts.d32 = 0;
 8002b3c:	2300      	movs	r3, #0
 8002b3e:	60fb      	str	r3, [r7, #12]

  USBD_DCD_INT_fops->IsoINIncomplete (pdev); 
 8002b40:	4b08      	ldr	r3, [pc, #32]	; (8002b64 <DCD_IsoINIncomplete_ISR+0x30>)
 8002b42:	681b      	ldr	r3, [r3, #0]
 8002b44:	69db      	ldr	r3, [r3, #28]
 8002b46:	6878      	ldr	r0, [r7, #4]
 8002b48:	4798      	blx	r3
  
  /* Clear interrupt */
  gintsts.b.incomplisoin = 1;
 8002b4a:	7bbb      	ldrb	r3, [r7, #14]
 8002b4c:	f043 0310 	orr.w	r3, r3, #16
 8002b50:	73bb      	strb	r3, [r7, #14]
  USB_OTG_WRITE_REG32(&pdev->regs.GREGS->GINTSTS, gintsts.d32);
 8002b52:	687b      	ldr	r3, [r7, #4]
 8002b54:	68db      	ldr	r3, [r3, #12]
 8002b56:	68fa      	ldr	r2, [r7, #12]
 8002b58:	615a      	str	r2, [r3, #20]
  
  return 1;
 8002b5a:	2301      	movs	r3, #1
}
 8002b5c:	4618      	mov	r0, r3
 8002b5e:	3710      	adds	r7, #16
 8002b60:	46bd      	mov	sp, r7
 8002b62:	bd80      	pop	{r7, pc}
 8002b64:	20000050 	.word	0x20000050

08002b68 <DCD_IsoOUTIncomplete_ISR>:
*         handle the ISO OUT incomplete interrupt
* @param  pdev: device instance
* @retval status
*/
static uint32_t DCD_IsoOUTIncomplete_ISR(USB_OTG_CORE_HANDLE *pdev)
{
 8002b68:	b580      	push	{r7, lr}
 8002b6a:	b084      	sub	sp, #16
 8002b6c:	af00      	add	r7, sp, #0
 8002b6e:	6078      	str	r0, [r7, #4]
  USB_OTG_GINTSTS_TypeDef gintsts;  
  
  gintsts.d32 = 0;
 8002b70:	2300      	movs	r3, #0
 8002b72:	60fb      	str	r3, [r7, #12]

  USBD_DCD_INT_fops->IsoOUTIncomplete (pdev); 
 8002b74:	4b08      	ldr	r3, [pc, #32]	; (8002b98 <DCD_IsoOUTIncomplete_ISR+0x30>)
 8002b76:	681b      	ldr	r3, [r3, #0]
 8002b78:	6a1b      	ldr	r3, [r3, #32]
 8002b7a:	6878      	ldr	r0, [r7, #4]
 8002b7c:	4798      	blx	r3
  
  /* Clear interrupt */
  gintsts.b.incomplisoout = 1;
 8002b7e:	7bbb      	ldrb	r3, [r7, #14]
 8002b80:	f043 0320 	orr.w	r3, r3, #32
 8002b84:	73bb      	strb	r3, [r7, #14]
  USB_OTG_WRITE_REG32(&pdev->regs.GREGS->GINTSTS, gintsts.d32);
 8002b86:	687b      	ldr	r3, [r7, #4]
 8002b88:	68db      	ldr	r3, [r3, #12]
 8002b8a:	68fa      	ldr	r2, [r7, #12]
 8002b8c:	615a      	str	r2, [r3, #20]
  return 1;
 8002b8e:	2301      	movs	r3, #1
}
 8002b90:	4618      	mov	r0, r3
 8002b92:	3710      	adds	r7, #16
 8002b94:	46bd      	mov	sp, r7
 8002b96:	bd80      	pop	{r7, pc}
 8002b98:	20000050 	.word	0x20000050

08002b9c <DCD_ReadDevInEP>:
*         Reads ep flags
* @param  pdev: device instance
* @retval status
*/
static uint32_t DCD_ReadDevInEP (USB_OTG_CORE_HANDLE *pdev, uint8_t epnum)
{
 8002b9c:	b480      	push	{r7}
 8002b9e:	b087      	sub	sp, #28
 8002ba0:	af00      	add	r7, sp, #0
 8002ba2:	6078      	str	r0, [r7, #4]
 8002ba4:	460b      	mov	r3, r1
 8002ba6:	70fb      	strb	r3, [r7, #3]
  uint32_t v, msk, emp;
  msk = USB_OTG_READ_REG32(&pdev->regs.DREGS->DIEPMSK);
 8002ba8:	687b      	ldr	r3, [r7, #4]
 8002baa:	691b      	ldr	r3, [r3, #16]
 8002bac:	691b      	ldr	r3, [r3, #16]
 8002bae:	617b      	str	r3, [r7, #20]
  emp = USB_OTG_READ_REG32(&pdev->regs.DREGS->DIEPEMPMSK);
 8002bb0:	687b      	ldr	r3, [r7, #4]
 8002bb2:	691b      	ldr	r3, [r3, #16]
 8002bb4:	6b5b      	ldr	r3, [r3, #52]	; 0x34
 8002bb6:	613b      	str	r3, [r7, #16]
  msk |= ((emp >> epnum) & 0x1) << 7;
 8002bb8:	78fb      	ldrb	r3, [r7, #3]
 8002bba:	693a      	ldr	r2, [r7, #16]
 8002bbc:	fa22 f303 	lsr.w	r3, r2, r3
 8002bc0:	01db      	lsls	r3, r3, #7
 8002bc2:	b2db      	uxtb	r3, r3
 8002bc4:	697a      	ldr	r2, [r7, #20]
 8002bc6:	4313      	orrs	r3, r2
 8002bc8:	617b      	str	r3, [r7, #20]
  v = USB_OTG_READ_REG32(&pdev->regs.INEP_REGS[epnum]->DIEPINT) & msk;
 8002bca:	78fb      	ldrb	r3, [r7, #3]
 8002bcc:	687a      	ldr	r2, [r7, #4]
 8002bce:	3304      	adds	r3, #4
 8002bd0:	009b      	lsls	r3, r3, #2
 8002bd2:	4413      	add	r3, r2
 8002bd4:	689b      	ldr	r3, [r3, #8]
 8002bd6:	689a      	ldr	r2, [r3, #8]
 8002bd8:	697b      	ldr	r3, [r7, #20]
 8002bda:	4013      	ands	r3, r2
 8002bdc:	60fb      	str	r3, [r7, #12]
  return v;
 8002bde:	68fb      	ldr	r3, [r7, #12]
}
 8002be0:	4618      	mov	r0, r3
 8002be2:	371c      	adds	r7, #28
 8002be4:	46bd      	mov	sp, r7
 8002be6:	f85d 7b04 	ldr.w	r7, [sp], #4
 8002bea:	4770      	bx	lr

08002bec <DCD_Init>:



void DCD_Init(USB_OTG_CORE_HANDLE *pdev , 
              USB_OTG_CORE_ID_TypeDef coreID)
{
 8002bec:	b580      	push	{r7, lr}
 8002bee:	b084      	sub	sp, #16
 8002bf0:	af00      	add	r7, sp, #0
 8002bf2:	6078      	str	r0, [r7, #4]
 8002bf4:	460b      	mov	r3, r1
 8002bf6:	70fb      	strb	r3, [r7, #3]
  uint32_t i;
  USB_OTG_EP *ep;
  
  USB_OTG_SelectCore (pdev , coreID);
 8002bf8:	78fb      	ldrb	r3, [r7, #3]
 8002bfa:	4619      	mov	r1, r3
 8002bfc:	6878      	ldr	r0, [r7, #4]
 8002bfe:	f000 faed 	bl	80031dc <USB_OTG_SelectCore>
  
  pdev->dev.device_status = USB_OTG_DEFAULT;
 8002c02:	687b      	ldr	r3, [r7, #4]
 8002c04:	2201      	movs	r2, #1
 8002c06:	f883 2112 	strb.w	r2, [r3, #274]	; 0x112
  pdev->dev.device_address = 0;
 8002c0a:	687b      	ldr	r3, [r7, #4]
 8002c0c:	2200      	movs	r2, #0
 8002c0e:	f883 2113 	strb.w	r2, [r3, #275]	; 0x113
  
  /* Init ep structure */
  for (i = 0; i < pdev->cfg.dev_endpoints ; i++)
 8002c12:	2300      	movs	r3, #0
 8002c14:	60fb      	str	r3, [r7, #12]
 8002c16:	e023      	b.n	8002c60 <DCD_Init+0x74>
  {
    ep = &pdev->dev.in_ep[i];
 8002c18:	68fa      	ldr	r2, [r7, #12]
 8002c1a:	4613      	mov	r3, r2
 8002c1c:	009b      	lsls	r3, r3, #2
 8002c1e:	4413      	add	r3, r2
 8002c20:	00db      	lsls	r3, r3, #3
 8002c22:	f503 738c 	add.w	r3, r3, #280	; 0x118
 8002c26:	687a      	ldr	r2, [r7, #4]
 8002c28:	4413      	add	r3, r2
 8002c2a:	60bb      	str	r3, [r7, #8]
    /* Init ep structure */
    ep->is_in = 1;
 8002c2c:	68bb      	ldr	r3, [r7, #8]
 8002c2e:	2201      	movs	r2, #1
 8002c30:	705a      	strb	r2, [r3, #1]
    ep->num = i;
 8002c32:	68fb      	ldr	r3, [r7, #12]
 8002c34:	b2da      	uxtb	r2, r3
 8002c36:	68bb      	ldr	r3, [r7, #8]
 8002c38:	701a      	strb	r2, [r3, #0]
    ep->tx_fifo_num = i;
 8002c3a:	68fb      	ldr	r3, [r7, #12]
 8002c3c:	b29a      	uxth	r2, r3
 8002c3e:	68bb      	ldr	r3, [r7, #8]
 8002c40:	80da      	strh	r2, [r3, #6]
    /* Control until ep is actvated */
    ep->type = EP_TYPE_CTRL;
 8002c42:	68bb      	ldr	r3, [r7, #8]
 8002c44:	2200      	movs	r2, #0
 8002c46:	70da      	strb	r2, [r3, #3]
    ep->maxpacket =  USB_OTG_MAX_EP0_SIZE;
 8002c48:	68bb      	ldr	r3, [r7, #8]
 8002c4a:	2240      	movs	r2, #64	; 0x40
 8002c4c:	609a      	str	r2, [r3, #8]
    ep->xfer_buff = 0;
 8002c4e:	68bb      	ldr	r3, [r7, #8]
 8002c50:	2200      	movs	r2, #0
 8002c52:	60da      	str	r2, [r3, #12]
    ep->xfer_len = 0;
 8002c54:	68bb      	ldr	r3, [r7, #8]
 8002c56:	2200      	movs	r2, #0
 8002c58:	615a      	str	r2, [r3, #20]
  
  pdev->dev.device_status = USB_OTG_DEFAULT;
  pdev->dev.device_address = 0;
  
  /* Init ep structure */
  for (i = 0; i < pdev->cfg.dev_endpoints ; i++)
 8002c5a:	68fb      	ldr	r3, [r7, #12]
 8002c5c:	3301      	adds	r3, #1
 8002c5e:	60fb      	str	r3, [r7, #12]
 8002c60:	687b      	ldr	r3, [r7, #4]
 8002c62:	785b      	ldrb	r3, [r3, #1]
 8002c64:	461a      	mov	r2, r3
 8002c66:	68fb      	ldr	r3, [r7, #12]
 8002c68:	429a      	cmp	r2, r3
 8002c6a:	d8d5      	bhi.n	8002c18 <DCD_Init+0x2c>
    ep->maxpacket =  USB_OTG_MAX_EP0_SIZE;
    ep->xfer_buff = 0;
    ep->xfer_len = 0;
  }
  
  for (i = 0; i < pdev->cfg.dev_endpoints; i++)
 8002c6c:	2300      	movs	r3, #0
 8002c6e:	60fb      	str	r3, [r7, #12]
 8002c70:	e023      	b.n	8002cba <DCD_Init+0xce>
  {
    ep = &pdev->dev.out_ep[i];
 8002c72:	68fa      	ldr	r2, [r7, #12]
 8002c74:	4613      	mov	r3, r2
 8002c76:	009b      	lsls	r3, r3, #2
 8002c78:	4413      	add	r3, r2
 8002c7a:	00db      	lsls	r3, r3, #3
 8002c7c:	f503 735c 	add.w	r3, r3, #880	; 0x370
 8002c80:	687a      	ldr	r2, [r7, #4]
 8002c82:	4413      	add	r3, r2
 8002c84:	60bb      	str	r3, [r7, #8]
    /* Init ep structure */
    ep->is_in = 0;
 8002c86:	68bb      	ldr	r3, [r7, #8]
 8002c88:	2200      	movs	r2, #0
 8002c8a:	705a      	strb	r2, [r3, #1]
    ep->num = i;
 8002c8c:	68fb      	ldr	r3, [r7, #12]
 8002c8e:	b2da      	uxtb	r2, r3
 8002c90:	68bb      	ldr	r3, [r7, #8]
 8002c92:	701a      	strb	r2, [r3, #0]
    ep->tx_fifo_num = i;
 8002c94:	68fb      	ldr	r3, [r7, #12]
 8002c96:	b29a      	uxth	r2, r3
 8002c98:	68bb      	ldr	r3, [r7, #8]
 8002c9a:	80da      	strh	r2, [r3, #6]
    /* Control until ep is activated */
    ep->type = EP_TYPE_CTRL;
 8002c9c:	68bb      	ldr	r3, [r7, #8]
 8002c9e:	2200      	movs	r2, #0
 8002ca0:	70da      	strb	r2, [r3, #3]
    ep->maxpacket = USB_OTG_MAX_EP0_SIZE;
 8002ca2:	68bb      	ldr	r3, [r7, #8]
 8002ca4:	2240      	movs	r2, #64	; 0x40
 8002ca6:	609a      	str	r2, [r3, #8]
    ep->xfer_buff = 0;
 8002ca8:	68bb      	ldr	r3, [r7, #8]
 8002caa:	2200      	movs	r2, #0
 8002cac:	60da      	str	r2, [r3, #12]
    ep->xfer_len = 0;
 8002cae:	68bb      	ldr	r3, [r7, #8]
 8002cb0:	2200      	movs	r2, #0
 8002cb2:	615a      	str	r2, [r3, #20]
    ep->maxpacket =  USB_OTG_MAX_EP0_SIZE;
    ep->xfer_buff = 0;
    ep->xfer_len = 0;
  }
  
  for (i = 0; i < pdev->cfg.dev_endpoints; i++)
 8002cb4:	68fb      	ldr	r3, [r7, #12]
 8002cb6:	3301      	adds	r3, #1
 8002cb8:	60fb      	str	r3, [r7, #12]
 8002cba:	687b      	ldr	r3, [r7, #4]
 8002cbc:	785b      	ldrb	r3, [r3, #1]
 8002cbe:	461a      	mov	r2, r3
 8002cc0:	68fb      	ldr	r3, [r7, #12]
 8002cc2:	429a      	cmp	r2, r3
 8002cc4:	d8d5      	bhi.n	8002c72 <DCD_Init+0x86>
    ep->maxpacket = USB_OTG_MAX_EP0_SIZE;
    ep->xfer_buff = 0;
    ep->xfer_len = 0;
  }
  
  USB_OTG_DisableGlobalInt(pdev);
 8002cc6:	6878      	ldr	r0, [r7, #4]
 8002cc8:	f000 fc4c 	bl	8003564 <USB_OTG_DisableGlobalInt>
  
  /*Init the Core (common init.) */
  USB_OTG_CoreInit(pdev);
 8002ccc:	6878      	ldr	r0, [r7, #4]
 8002cce:	f000 fb3f 	bl	8003350 <USB_OTG_CoreInit>


  /* Force Device Mode*/
  USB_OTG_SetCurrentMode(pdev, DEVICE_MODE);
 8002cd2:	2100      	movs	r1, #0
 8002cd4:	6878      	ldr	r0, [r7, #4]
 8002cd6:	f000 fccb 	bl	8003670 <USB_OTG_SetCurrentMode>
  
  /* Init Device */
  USB_OTG_CoreInitDev(pdev);
 8002cda:	6878      	ldr	r0, [r7, #4]
 8002cdc:	f000 fd4e 	bl	800377c <USB_OTG_CoreInitDev>
  
  
  /* Enable USB Global interrupt */
  USB_OTG_EnableGlobalInt(pdev);
 8002ce0:	6878      	ldr	r0, [r7, #4]
 8002ce2:	f000 fc23 	bl	800352c <USB_OTG_EnableGlobalInt>
}
 8002ce6:	bf00      	nop
 8002ce8:	3710      	adds	r7, #16
 8002cea:	46bd      	mov	sp, r7
 8002cec:	bd80      	pop	{r7, pc}
 8002cee:	bf00      	nop

08002cf0 <DCD_EP_Open>:
*/
uint32_t DCD_EP_Open(USB_OTG_CORE_HANDLE *pdev , 
                     uint8_t ep_addr,
                     uint16_t ep_mps,
                     uint8_t ep_type)
{
 8002cf0:	b580      	push	{r7, lr}
 8002cf2:	b084      	sub	sp, #16
 8002cf4:	af00      	add	r7, sp, #0
 8002cf6:	6078      	str	r0, [r7, #4]
 8002cf8:	4608      	mov	r0, r1
 8002cfa:	4611      	mov	r1, r2
 8002cfc:	461a      	mov	r2, r3
 8002cfe:	4603      	mov	r3, r0
 8002d00:	70fb      	strb	r3, [r7, #3]
 8002d02:	460b      	mov	r3, r1
 8002d04:	803b      	strh	r3, [r7, #0]
 8002d06:	4613      	mov	r3, r2
 8002d08:	70bb      	strb	r3, [r7, #2]
  USB_OTG_EP *ep;
  
  if ((ep_addr & 0x80) == 0x80)
 8002d0a:	f997 3003 	ldrsb.w	r3, [r7, #3]
 8002d0e:	2b00      	cmp	r3, #0
 8002d10:	da0c      	bge.n	8002d2c <DCD_EP_Open+0x3c>
  {
    ep = &pdev->dev.in_ep[ep_addr & 0x7F];
 8002d12:	78fb      	ldrb	r3, [r7, #3]
 8002d14:	f003 027f 	and.w	r2, r3, #127	; 0x7f
 8002d18:	4613      	mov	r3, r2
 8002d1a:	009b      	lsls	r3, r3, #2
 8002d1c:	4413      	add	r3, r2
 8002d1e:	00db      	lsls	r3, r3, #3
 8002d20:	f503 738c 	add.w	r3, r3, #280	; 0x118
 8002d24:	687a      	ldr	r2, [r7, #4]
 8002d26:	4413      	add	r3, r2
 8002d28:	60fb      	str	r3, [r7, #12]
 8002d2a:	e00b      	b.n	8002d44 <DCD_EP_Open+0x54>
  }
  else
  {
    ep = &pdev->dev.out_ep[ep_addr & 0x7F];
 8002d2c:	78fb      	ldrb	r3, [r7, #3]
 8002d2e:	f003 027f 	and.w	r2, r3, #127	; 0x7f
 8002d32:	4613      	mov	r3, r2
 8002d34:	009b      	lsls	r3, r3, #2
 8002d36:	4413      	add	r3, r2
 8002d38:	00db      	lsls	r3, r3, #3
 8002d3a:	f503 735c 	add.w	r3, r3, #880	; 0x370
 8002d3e:	687a      	ldr	r2, [r7, #4]
 8002d40:	4413      	add	r3, r2
 8002d42:	60fb      	str	r3, [r7, #12]
  }
  ep->num   = ep_addr & 0x7F;
 8002d44:	78fb      	ldrb	r3, [r7, #3]
 8002d46:	f003 037f 	and.w	r3, r3, #127	; 0x7f
 8002d4a:	b2da      	uxtb	r2, r3
 8002d4c:	68fb      	ldr	r3, [r7, #12]
 8002d4e:	701a      	strb	r2, [r3, #0]
  
  ep->is_in = (0x80 & ep_addr) != 0;
 8002d50:	f997 3003 	ldrsb.w	r3, [r7, #3]
 8002d54:	b2db      	uxtb	r3, r3
 8002d56:	09db      	lsrs	r3, r3, #7
 8002d58:	b2db      	uxtb	r3, r3
 8002d5a:	461a      	mov	r2, r3
 8002d5c:	68fb      	ldr	r3, [r7, #12]
 8002d5e:	705a      	strb	r2, [r3, #1]
  ep->maxpacket = ep_mps;
 8002d60:	883a      	ldrh	r2, [r7, #0]
 8002d62:	68fb      	ldr	r3, [r7, #12]
 8002d64:	609a      	str	r2, [r3, #8]
  ep->type = ep_type;
 8002d66:	68fb      	ldr	r3, [r7, #12]
 8002d68:	78ba      	ldrb	r2, [r7, #2]
 8002d6a:	70da      	strb	r2, [r3, #3]
  if (ep->is_in)
 8002d6c:	68fb      	ldr	r3, [r7, #12]
 8002d6e:	785b      	ldrb	r3, [r3, #1]
 8002d70:	2b00      	cmp	r3, #0
 8002d72:	d004      	beq.n	8002d7e <DCD_EP_Open+0x8e>
  {
    /* Assign a Tx FIFO */
    ep->tx_fifo_num = ep->num;
 8002d74:	68fb      	ldr	r3, [r7, #12]
 8002d76:	781b      	ldrb	r3, [r3, #0]
 8002d78:	b29a      	uxth	r2, r3
 8002d7a:	68fb      	ldr	r3, [r7, #12]
 8002d7c:	80da      	strh	r2, [r3, #6]
  }
  /* Set initial data PID. */
  if (ep_type == USB_OTG_EP_BULK )
 8002d7e:	78bb      	ldrb	r3, [r7, #2]
 8002d80:	2b02      	cmp	r3, #2
 8002d82:	d102      	bne.n	8002d8a <DCD_EP_Open+0x9a>
  {
    ep->data_pid_start = 0;
 8002d84:	68fb      	ldr	r3, [r7, #12]
 8002d86:	2200      	movs	r2, #0
 8002d88:	711a      	strb	r2, [r3, #4]
  }
  USB_OTG_EPActivate(pdev , ep );
 8002d8a:	68f9      	ldr	r1, [r7, #12]
 8002d8c:	6878      	ldr	r0, [r7, #4]
 8002d8e:	f000 fed3 	bl	8003b38 <USB_OTG_EPActivate>
  return 0;
 8002d92:	2300      	movs	r3, #0
}
 8002d94:	4618      	mov	r0, r3
 8002d96:	3710      	adds	r7, #16
 8002d98:	46bd      	mov	sp, r7
 8002d9a:	bd80      	pop	{r7, pc}

08002d9c <DCD_EP_Close>:
* @param pdev: device instance
* @param ep_addr: endpoint address
* @retval : status
*/
uint32_t DCD_EP_Close(USB_OTG_CORE_HANDLE *pdev , uint8_t  ep_addr)
{
 8002d9c:	b580      	push	{r7, lr}
 8002d9e:	b084      	sub	sp, #16
 8002da0:	af00      	add	r7, sp, #0
 8002da2:	6078      	str	r0, [r7, #4]
 8002da4:	460b      	mov	r3, r1
 8002da6:	70fb      	strb	r3, [r7, #3]
  USB_OTG_EP *ep;
  
  if ((ep_addr&0x80) == 0x80)
 8002da8:	f997 3003 	ldrsb.w	r3, [r7, #3]
 8002dac:	2b00      	cmp	r3, #0
 8002dae:	da0c      	bge.n	8002dca <DCD_EP_Close+0x2e>
  {
    ep = &pdev->dev.in_ep[ep_addr & 0x7F];
 8002db0:	78fb      	ldrb	r3, [r7, #3]
 8002db2:	f003 027f 	and.w	r2, r3, #127	; 0x7f
 8002db6:	4613      	mov	r3, r2
 8002db8:	009b      	lsls	r3, r3, #2
 8002dba:	4413      	add	r3, r2
 8002dbc:	00db      	lsls	r3, r3, #3
 8002dbe:	f503 738c 	add.w	r3, r3, #280	; 0x118
 8002dc2:	687a      	ldr	r2, [r7, #4]
 8002dc4:	4413      	add	r3, r2
 8002dc6:	60fb      	str	r3, [r7, #12]
 8002dc8:	e00b      	b.n	8002de2 <DCD_EP_Close+0x46>
  }
  else
  {
    ep = &pdev->dev.out_ep[ep_addr & 0x7F];
 8002dca:	78fb      	ldrb	r3, [r7, #3]
 8002dcc:	f003 027f 	and.w	r2, r3, #127	; 0x7f
 8002dd0:	4613      	mov	r3, r2
 8002dd2:	009b      	lsls	r3, r3, #2
 8002dd4:	4413      	add	r3, r2
 8002dd6:	00db      	lsls	r3, r3, #3
 8002dd8:	f503 735c 	add.w	r3, r3, #880	; 0x370
 8002ddc:	687a      	ldr	r2, [r7, #4]
 8002dde:	4413      	add	r3, r2
 8002de0:	60fb      	str	r3, [r7, #12]
  }
  ep->num   = ep_addr & 0x7F;
 8002de2:	78fb      	ldrb	r3, [r7, #3]
 8002de4:	f003 037f 	and.w	r3, r3, #127	; 0x7f
 8002de8:	b2da      	uxtb	r2, r3
 8002dea:	68fb      	ldr	r3, [r7, #12]
 8002dec:	701a      	strb	r2, [r3, #0]
  ep->is_in = (0x80 & ep_addr) != 0;
 8002dee:	f997 3003 	ldrsb.w	r3, [r7, #3]
 8002df2:	b2db      	uxtb	r3, r3
 8002df4:	09db      	lsrs	r3, r3, #7
 8002df6:	b2db      	uxtb	r3, r3
 8002df8:	461a      	mov	r2, r3
 8002dfa:	68fb      	ldr	r3, [r7, #12]
 8002dfc:	705a      	strb	r2, [r3, #1]
  USB_OTG_EPDeactivate(pdev , ep );
 8002dfe:	68f9      	ldr	r1, [r7, #12]
 8002e00:	6878      	ldr	r0, [r7, #4]
 8002e02:	f000 ff07 	bl	8003c14 <USB_OTG_EPDeactivate>
  return 0;
 8002e06:	2300      	movs	r3, #0
}
 8002e08:	4618      	mov	r0, r3
 8002e0a:	3710      	adds	r7, #16
 8002e0c:	46bd      	mov	sp, r7
 8002e0e:	bd80      	pop	{r7, pc}

08002e10 <DCD_EP_PrepareRx>:
*/
uint32_t   DCD_EP_PrepareRx( USB_OTG_CORE_HANDLE *pdev,
                            uint8_t   ep_addr,
                            uint8_t *pbuf,                        
                            uint16_t  buf_len)
{
 8002e10:	b580      	push	{r7, lr}
 8002e12:	b086      	sub	sp, #24
 8002e14:	af00      	add	r7, sp, #0
 8002e16:	60f8      	str	r0, [r7, #12]
 8002e18:	607a      	str	r2, [r7, #4]
 8002e1a:	461a      	mov	r2, r3
 8002e1c:	460b      	mov	r3, r1
 8002e1e:	72fb      	strb	r3, [r7, #11]
 8002e20:	4613      	mov	r3, r2
 8002e22:	813b      	strh	r3, [r7, #8]
  USB_OTG_EP *ep;
  
  ep = &pdev->dev.out_ep[ep_addr & 0x7F];
 8002e24:	7afb      	ldrb	r3, [r7, #11]
 8002e26:	f003 027f 	and.w	r2, r3, #127	; 0x7f
 8002e2a:	4613      	mov	r3, r2
 8002e2c:	009b      	lsls	r3, r3, #2
 8002e2e:	4413      	add	r3, r2
 8002e30:	00db      	lsls	r3, r3, #3
 8002e32:	f503 735c 	add.w	r3, r3, #880	; 0x370
 8002e36:	68fa      	ldr	r2, [r7, #12]
 8002e38:	4413      	add	r3, r2
 8002e3a:	617b      	str	r3, [r7, #20]
  
  /*setup and start the Xfer */
  ep->xfer_buff = pbuf;  
 8002e3c:	697b      	ldr	r3, [r7, #20]
 8002e3e:	687a      	ldr	r2, [r7, #4]
 8002e40:	60da      	str	r2, [r3, #12]
  ep->xfer_len = buf_len;
 8002e42:	893a      	ldrh	r2, [r7, #8]
 8002e44:	697b      	ldr	r3, [r7, #20]
 8002e46:	615a      	str	r2, [r3, #20]
  ep->xfer_count = 0;
 8002e48:	697b      	ldr	r3, [r7, #20]
 8002e4a:	2200      	movs	r2, #0
 8002e4c:	619a      	str	r2, [r3, #24]
  ep->is_in = 0;
 8002e4e:	697b      	ldr	r3, [r7, #20]
 8002e50:	2200      	movs	r2, #0
 8002e52:	705a      	strb	r2, [r3, #1]
  ep->num = ep_addr & 0x7F;
 8002e54:	7afb      	ldrb	r3, [r7, #11]
 8002e56:	f003 037f 	and.w	r3, r3, #127	; 0x7f
 8002e5a:	b2da      	uxtb	r2, r3
 8002e5c:	697b      	ldr	r3, [r7, #20]
 8002e5e:	701a      	strb	r2, [r3, #0]
  
  if (pdev->cfg.dma_enable == 1)
 8002e60:	68fb      	ldr	r3, [r7, #12]
 8002e62:	78db      	ldrb	r3, [r3, #3]
 8002e64:	2b01      	cmp	r3, #1
 8002e66:	d102      	bne.n	8002e6e <DCD_EP_PrepareRx+0x5e>
  {
    ep->dma_addr = (uint32_t)pbuf;  
 8002e68:	687a      	ldr	r2, [r7, #4]
 8002e6a:	697b      	ldr	r3, [r7, #20]
 8002e6c:	611a      	str	r2, [r3, #16]
  }
  
  if ( ep->num == 0 )
 8002e6e:	697b      	ldr	r3, [r7, #20]
 8002e70:	781b      	ldrb	r3, [r3, #0]
 8002e72:	2b00      	cmp	r3, #0
 8002e74:	d104      	bne.n	8002e80 <DCD_EP_PrepareRx+0x70>
  {
    USB_OTG_EP0StartXfer(pdev , ep);
 8002e76:	6979      	ldr	r1, [r7, #20]
 8002e78:	68f8      	ldr	r0, [r7, #12]
 8002e7a:	f001 f851 	bl	8003f20 <USB_OTG_EP0StartXfer>
 8002e7e:	e003      	b.n	8002e88 <DCD_EP_PrepareRx+0x78>
  }
  else
  {
    USB_OTG_EPStartXfer(pdev, ep );
 8002e80:	6979      	ldr	r1, [r7, #20]
 8002e82:	68f8      	ldr	r0, [r7, #12]
 8002e84:	f000 ff0c 	bl	8003ca0 <USB_OTG_EPStartXfer>
  }
  return 0;
 8002e88:	2300      	movs	r3, #0
}
 8002e8a:	4618      	mov	r0, r3
 8002e8c:	3718      	adds	r7, #24
 8002e8e:	46bd      	mov	sp, r7
 8002e90:	bd80      	pop	{r7, pc}
 8002e92:	bf00      	nop

08002e94 <DCD_EP_Tx>:
*/
uint32_t  DCD_EP_Tx ( USB_OTG_CORE_HANDLE *pdev,
                     uint8_t   ep_addr,
                     uint8_t   *pbuf,
                     uint32_t   buf_len)
{
 8002e94:	b580      	push	{r7, lr}
 8002e96:	b086      	sub	sp, #24
 8002e98:	af00      	add	r7, sp, #0
 8002e9a:	60f8      	str	r0, [r7, #12]
 8002e9c:	607a      	str	r2, [r7, #4]
 8002e9e:	603b      	str	r3, [r7, #0]
 8002ea0:	460b      	mov	r3, r1
 8002ea2:	72fb      	strb	r3, [r7, #11]
  USB_OTG_EP *ep;
  
  ep = &pdev->dev.in_ep[ep_addr & 0x7F];
 8002ea4:	7afb      	ldrb	r3, [r7, #11]
 8002ea6:	f003 027f 	and.w	r2, r3, #127	; 0x7f
 8002eaa:	4613      	mov	r3, r2
 8002eac:	009b      	lsls	r3, r3, #2
 8002eae:	4413      	add	r3, r2
 8002eb0:	00db      	lsls	r3, r3, #3
 8002eb2:	f503 738c 	add.w	r3, r3, #280	; 0x118
 8002eb6:	68fa      	ldr	r2, [r7, #12]
 8002eb8:	4413      	add	r3, r2
 8002eba:	617b      	str	r3, [r7, #20]
  
  /* Setup and start the Transfer */
  ep->is_in = 1;
 8002ebc:	697b      	ldr	r3, [r7, #20]
 8002ebe:	2201      	movs	r2, #1
 8002ec0:	705a      	strb	r2, [r3, #1]
  ep->num = ep_addr & 0x7F;  
 8002ec2:	7afb      	ldrb	r3, [r7, #11]
 8002ec4:	f003 037f 	and.w	r3, r3, #127	; 0x7f
 8002ec8:	b2da      	uxtb	r2, r3
 8002eca:	697b      	ldr	r3, [r7, #20]
 8002ecc:	701a      	strb	r2, [r3, #0]
  ep->xfer_buff = pbuf;
 8002ece:	697b      	ldr	r3, [r7, #20]
 8002ed0:	687a      	ldr	r2, [r7, #4]
 8002ed2:	60da      	str	r2, [r3, #12]
  ep->dma_addr = (uint32_t)pbuf;  
 8002ed4:	687a      	ldr	r2, [r7, #4]
 8002ed6:	697b      	ldr	r3, [r7, #20]
 8002ed8:	611a      	str	r2, [r3, #16]
  ep->xfer_count = 0;
 8002eda:	697b      	ldr	r3, [r7, #20]
 8002edc:	2200      	movs	r2, #0
 8002ede:	619a      	str	r2, [r3, #24]
  ep->xfer_len  = buf_len;
 8002ee0:	697b      	ldr	r3, [r7, #20]
 8002ee2:	683a      	ldr	r2, [r7, #0]
 8002ee4:	615a      	str	r2, [r3, #20]
  
  if ( ep->num == 0 )
 8002ee6:	697b      	ldr	r3, [r7, #20]
 8002ee8:	781b      	ldrb	r3, [r3, #0]
 8002eea:	2b00      	cmp	r3, #0
 8002eec:	d104      	bne.n	8002ef8 <DCD_EP_Tx+0x64>
  {
    USB_OTG_EP0StartXfer(pdev , ep);
 8002eee:	6979      	ldr	r1, [r7, #20]
 8002ef0:	68f8      	ldr	r0, [r7, #12]
 8002ef2:	f001 f815 	bl	8003f20 <USB_OTG_EP0StartXfer>
 8002ef6:	e003      	b.n	8002f00 <DCD_EP_Tx+0x6c>
  }
  else
  {
    USB_OTG_EPStartXfer(pdev, ep );
 8002ef8:	6979      	ldr	r1, [r7, #20]
 8002efa:	68f8      	ldr	r0, [r7, #12]
 8002efc:	f000 fed0 	bl	8003ca0 <USB_OTG_EPStartXfer>
  }
  return 0;
 8002f00:	2300      	movs	r3, #0
}
 8002f02:	4618      	mov	r0, r3
 8002f04:	3718      	adds	r7, #24
 8002f06:	46bd      	mov	sp, r7
 8002f08:	bd80      	pop	{r7, pc}
 8002f0a:	bf00      	nop

08002f0c <DCD_EP_Stall>:
* @param pdev: device instance
* @param epnum: endpoint address
* @retval : status
*/
uint32_t  DCD_EP_Stall (USB_OTG_CORE_HANDLE *pdev, uint8_t   epnum)
{
 8002f0c:	b580      	push	{r7, lr}
 8002f0e:	b084      	sub	sp, #16
 8002f10:	af00      	add	r7, sp, #0
 8002f12:	6078      	str	r0, [r7, #4]
 8002f14:	460b      	mov	r3, r1
 8002f16:	70fb      	strb	r3, [r7, #3]
  USB_OTG_EP *ep;
  if ((0x80 & epnum) == 0x80)
 8002f18:	f997 3003 	ldrsb.w	r3, [r7, #3]
 8002f1c:	2b00      	cmp	r3, #0
 8002f1e:	da0c      	bge.n	8002f3a <DCD_EP_Stall+0x2e>
  {
    ep = &pdev->dev.in_ep[epnum & 0x7F];
 8002f20:	78fb      	ldrb	r3, [r7, #3]
 8002f22:	f003 027f 	and.w	r2, r3, #127	; 0x7f
 8002f26:	4613      	mov	r3, r2
 8002f28:	009b      	lsls	r3, r3, #2
 8002f2a:	4413      	add	r3, r2
 8002f2c:	00db      	lsls	r3, r3, #3
 8002f2e:	f503 738c 	add.w	r3, r3, #280	; 0x118
 8002f32:	687a      	ldr	r2, [r7, #4]
 8002f34:	4413      	add	r3, r2
 8002f36:	60fb      	str	r3, [r7, #12]
 8002f38:	e009      	b.n	8002f4e <DCD_EP_Stall+0x42>
  }
  else
  {
    ep = &pdev->dev.out_ep[epnum];
 8002f3a:	78fa      	ldrb	r2, [r7, #3]
 8002f3c:	4613      	mov	r3, r2
 8002f3e:	009b      	lsls	r3, r3, #2
 8002f40:	4413      	add	r3, r2
 8002f42:	00db      	lsls	r3, r3, #3
 8002f44:	f503 735c 	add.w	r3, r3, #880	; 0x370
 8002f48:	687a      	ldr	r2, [r7, #4]
 8002f4a:	4413      	add	r3, r2
 8002f4c:	60fb      	str	r3, [r7, #12]
  }

  ep->is_stall = 1;
 8002f4e:	68fb      	ldr	r3, [r7, #12]
 8002f50:	2201      	movs	r2, #1
 8002f52:	709a      	strb	r2, [r3, #2]
  ep->num   = epnum & 0x7F;
 8002f54:	78fb      	ldrb	r3, [r7, #3]
 8002f56:	f003 037f 	and.w	r3, r3, #127	; 0x7f
 8002f5a:	b2da      	uxtb	r2, r3
 8002f5c:	68fb      	ldr	r3, [r7, #12]
 8002f5e:	701a      	strb	r2, [r3, #0]
  ep->is_in = ((epnum & 0x80) == 0x80);
 8002f60:	f997 3003 	ldrsb.w	r3, [r7, #3]
 8002f64:	b2db      	uxtb	r3, r3
 8002f66:	09db      	lsrs	r3, r3, #7
 8002f68:	b2db      	uxtb	r3, r3
 8002f6a:	461a      	mov	r2, r3
 8002f6c:	68fb      	ldr	r3, [r7, #12]
 8002f6e:	705a      	strb	r2, [r3, #1]
  
  USB_OTG_EPSetStall(pdev , ep);
 8002f70:	68f9      	ldr	r1, [r7, #12]
 8002f72:	6878      	ldr	r0, [r7, #4]
 8002f74:	f001 f8be 	bl	80040f4 <USB_OTG_EPSetStall>
  return (0);
 8002f78:	2300      	movs	r3, #0
}
 8002f7a:	4618      	mov	r0, r3
 8002f7c:	3710      	adds	r7, #16
 8002f7e:	46bd      	mov	sp, r7
 8002f80:	bd80      	pop	{r7, pc}
 8002f82:	bf00      	nop

08002f84 <DCD_EP_ClrStall>:
* @param pdev: device instance
* @param epnum: endpoint address
* @retval : status
*/
uint32_t  DCD_EP_ClrStall (USB_OTG_CORE_HANDLE *pdev, uint8_t epnum)
{
 8002f84:	b580      	push	{r7, lr}
 8002f86:	b084      	sub	sp, #16
 8002f88:	af00      	add	r7, sp, #0
 8002f8a:	6078      	str	r0, [r7, #4]
 8002f8c:	460b      	mov	r3, r1
 8002f8e:	70fb      	strb	r3, [r7, #3]
  USB_OTG_EP *ep;
  if ((0x80 & epnum) == 0x80)
 8002f90:	f997 3003 	ldrsb.w	r3, [r7, #3]
 8002f94:	2b00      	cmp	r3, #0
 8002f96:	da0c      	bge.n	8002fb2 <DCD_EP_ClrStall+0x2e>
  {
    ep = &pdev->dev.in_ep[epnum & 0x7F];    
 8002f98:	78fb      	ldrb	r3, [r7, #3]
 8002f9a:	f003 027f 	and.w	r2, r3, #127	; 0x7f
 8002f9e:	4613      	mov	r3, r2
 8002fa0:	009b      	lsls	r3, r3, #2
 8002fa2:	4413      	add	r3, r2
 8002fa4:	00db      	lsls	r3, r3, #3
 8002fa6:	f503 738c 	add.w	r3, r3, #280	; 0x118
 8002faa:	687a      	ldr	r2, [r7, #4]
 8002fac:	4413      	add	r3, r2
 8002fae:	60fb      	str	r3, [r7, #12]
 8002fb0:	e009      	b.n	8002fc6 <DCD_EP_ClrStall+0x42>
  }
  else
  {
    ep = &pdev->dev.out_ep[epnum];
 8002fb2:	78fa      	ldrb	r2, [r7, #3]
 8002fb4:	4613      	mov	r3, r2
 8002fb6:	009b      	lsls	r3, r3, #2
 8002fb8:	4413      	add	r3, r2
 8002fba:	00db      	lsls	r3, r3, #3
 8002fbc:	f503 735c 	add.w	r3, r3, #880	; 0x370
 8002fc0:	687a      	ldr	r2, [r7, #4]
 8002fc2:	4413      	add	r3, r2
 8002fc4:	60fb      	str	r3, [r7, #12]
  }
  
  ep->is_stall = 0;  
 8002fc6:	68fb      	ldr	r3, [r7, #12]
 8002fc8:	2200      	movs	r2, #0
 8002fca:	709a      	strb	r2, [r3, #2]
  ep->num   = epnum & 0x7F;
 8002fcc:	78fb      	ldrb	r3, [r7, #3]
 8002fce:	f003 037f 	and.w	r3, r3, #127	; 0x7f
 8002fd2:	b2da      	uxtb	r2, r3
 8002fd4:	68fb      	ldr	r3, [r7, #12]
 8002fd6:	701a      	strb	r2, [r3, #0]
  ep->is_in = ((epnum & 0x80) == 0x80);
 8002fd8:	f997 3003 	ldrsb.w	r3, [r7, #3]
 8002fdc:	b2db      	uxtb	r3, r3
 8002fde:	09db      	lsrs	r3, r3, #7
 8002fe0:	b2db      	uxtb	r3, r3
 8002fe2:	461a      	mov	r2, r3
 8002fe4:	68fb      	ldr	r3, [r7, #12]
 8002fe6:	705a      	strb	r2, [r3, #1]
  
  USB_OTG_EPClearStall(pdev , ep);
 8002fe8:	68f9      	ldr	r1, [r7, #12]
 8002fea:	6878      	ldr	r0, [r7, #4]
 8002fec:	f001 f8c6 	bl	800417c <USB_OTG_EPClearStall>
  return (0);
 8002ff0:	2300      	movs	r3, #0
}
 8002ff2:	4618      	mov	r0, r3
 8002ff4:	3710      	adds	r7, #16
 8002ff6:	46bd      	mov	sp, r7
 8002ff8:	bd80      	pop	{r7, pc}
 8002ffa:	bf00      	nop

08002ffc <DCD_EP_SetAddress>:
* @param pdev: device instance
* @param address: new device address
* @retval : status
*/
void  DCD_EP_SetAddress (USB_OTG_CORE_HANDLE *pdev, uint8_t address)
{
 8002ffc:	b480      	push	{r7}
 8002ffe:	b085      	sub	sp, #20
 8003000:	af00      	add	r7, sp, #0
 8003002:	6078      	str	r0, [r7, #4]
 8003004:	460b      	mov	r3, r1
 8003006:	70fb      	strb	r3, [r7, #3]
  USB_OTG_DCFG_TypeDef  dcfg;
  dcfg.d32 = 0;
 8003008:	2300      	movs	r3, #0
 800300a:	60fb      	str	r3, [r7, #12]
  dcfg.b.devaddr = address;
 800300c:	78fb      	ldrb	r3, [r7, #3]
 800300e:	f003 037f 	and.w	r3, r3, #127	; 0x7f
 8003012:	b2da      	uxtb	r2, r3
 8003014:	89bb      	ldrh	r3, [r7, #12]
 8003016:	f362 130a 	bfi	r3, r2, #4, #7
 800301a:	81bb      	strh	r3, [r7, #12]
  USB_OTG_MODIFY_REG32( &pdev->regs.DREGS->DCFG, 0, dcfg.d32);
 800301c:	687b      	ldr	r3, [r7, #4]
 800301e:	691b      	ldr	r3, [r3, #16]
 8003020:	687a      	ldr	r2, [r7, #4]
 8003022:	6912      	ldr	r2, [r2, #16]
 8003024:	6811      	ldr	r1, [r2, #0]
 8003026:	68fa      	ldr	r2, [r7, #12]
 8003028:	430a      	orrs	r2, r1
 800302a:	601a      	str	r2, [r3, #0]
}
 800302c:	bf00      	nop
 800302e:	3714      	adds	r7, #20
 8003030:	46bd      	mov	sp, r7
 8003032:	f85d 7b04 	ldr.w	r7, [sp], #4
 8003036:	4770      	bx	lr

08003038 <USB_OTG_EnableCommonInt>:
*         Initializes the commmon interrupts, used in both device and modes
* @param  pdev : Selected device
* @retval None
*/
static void USB_OTG_EnableCommonInt(USB_OTG_CORE_HANDLE *pdev)
{
 8003038:	b480      	push	{r7}
 800303a:	b085      	sub	sp, #20
 800303c:	af00      	add	r7, sp, #0
 800303e:	6078      	str	r0, [r7, #4]
  USB_OTG_GINTMSK_TypeDef  int_mask;
  
  int_mask.d32 = 0;
 8003040:	2300      	movs	r3, #0
 8003042:	60fb      	str	r3, [r7, #12]
  /* Clear any pending USB_OTG Interrupts */
#ifndef USE_OTG_MODE
  USB_OTG_WRITE_REG32( &pdev->regs.GREGS->GOTGINT, 0xFFFFFFFF);
 8003044:	687b      	ldr	r3, [r7, #4]
 8003046:	68db      	ldr	r3, [r3, #12]
 8003048:	f04f 32ff 	mov.w	r2, #4294967295
 800304c:	605a      	str	r2, [r3, #4]
#endif
  /* Clear any pending interrupts */
  USB_OTG_WRITE_REG32( &pdev->regs.GREGS->GINTSTS, 0xFFFFFFFF);
 800304e:	687b      	ldr	r3, [r7, #4]
 8003050:	68db      	ldr	r3, [r3, #12]
 8003052:	f04f 32ff 	mov.w	r2, #4294967295
 8003056:	615a      	str	r2, [r3, #20]
  /* Enable the interrupts in the INTMSK */
  int_mask.b.wkupintr = 1;
 8003058:	7bfb      	ldrb	r3, [r7, #15]
 800305a:	f043 0380 	orr.w	r3, r3, #128	; 0x80
 800305e:	73fb      	strb	r3, [r7, #15]
  int_mask.b.usbsuspend = 1; 
 8003060:	7b7b      	ldrb	r3, [r7, #13]
 8003062:	f043 0308 	orr.w	r3, r3, #8
 8003066:	737b      	strb	r3, [r7, #13]
#ifdef USE_OTG_MODE
  int_mask.b.otgintr = 1;
  int_mask.b.sessreqintr = 1;
  int_mask.b.conidstschng = 1;
#endif
  USB_OTG_WRITE_REG32( &pdev->regs.GREGS->GINTMSK, int_mask.d32);
 8003068:	687b      	ldr	r3, [r7, #4]
 800306a:	68db      	ldr	r3, [r3, #12]
 800306c:	68fa      	ldr	r2, [r7, #12]
 800306e:	619a      	str	r2, [r3, #24]
}
 8003070:	bf00      	nop
 8003072:	3714      	adds	r7, #20
 8003074:	46bd      	mov	sp, r7
 8003076:	f85d 7b04 	ldr.w	r7, [sp], #4
 800307a:	4770      	bx	lr

0800307c <USB_OTG_CoreReset>:
* @brief  USB_OTG_CoreReset : Soft reset of the core
* @param  pdev : Selected device
* @retval USB_OTG_STS : status
*/
static USB_OTG_STS USB_OTG_CoreReset(USB_OTG_CORE_HANDLE *pdev)
{
 800307c:	b580      	push	{r7, lr}
 800307e:	b086      	sub	sp, #24
 8003080:	af00      	add	r7, sp, #0
 8003082:	6078      	str	r0, [r7, #4]
  USB_OTG_STS status = USB_OTG_OK;
 8003084:	2300      	movs	r3, #0
 8003086:	74fb      	strb	r3, [r7, #19]
  __IO USB_OTG_GRSTCTL_TypeDef  greset;
  uint32_t count = 0;
 8003088:	2300      	movs	r3, #0
 800308a:	617b      	str	r3, [r7, #20]
  
  greset.d32 = 0;
 800308c:	2300      	movs	r3, #0
 800308e:	60fb      	str	r3, [r7, #12]
  /* Wait for AHB master IDLE state. */
  do
  {
    USB_OTG_BSP_uDelay(3);
 8003090:	2003      	movs	r0, #3
 8003092:	f002 fd43 	bl	8005b1c <USB_OTG_BSP_uDelay>
    greset.d32 = USB_OTG_READ_REG32(&pdev->regs.GREGS->GRSTCTL);
 8003096:	687b      	ldr	r3, [r7, #4]
 8003098:	68db      	ldr	r3, [r3, #12]
 800309a:	691b      	ldr	r3, [r3, #16]
 800309c:	60fb      	str	r3, [r7, #12]
    if (++count > 200000)
 800309e:	697b      	ldr	r3, [r7, #20]
 80030a0:	3301      	adds	r3, #1
 80030a2:	617b      	str	r3, [r7, #20]
 80030a4:	697b      	ldr	r3, [r7, #20]
 80030a6:	4a18      	ldr	r2, [pc, #96]	; (8003108 <USB_OTG_CoreReset+0x8c>)
 80030a8:	4293      	cmp	r3, r2
 80030aa:	d901      	bls.n	80030b0 <USB_OTG_CoreReset+0x34>
    {
      return USB_OTG_OK;
 80030ac:	2300      	movs	r3, #0
 80030ae:	e026      	b.n	80030fe <USB_OTG_CoreReset+0x82>
    }
  }
  while (greset.b.ahbidle == 0);
 80030b0:	68fb      	ldr	r3, [r7, #12]
 80030b2:	f3c3 73c0 	ubfx	r3, r3, #31, #1
 80030b6:	b2db      	uxtb	r3, r3
 80030b8:	2b00      	cmp	r3, #0
 80030ba:	d0e9      	beq.n	8003090 <USB_OTG_CoreReset+0x14>
  /* Core Soft Reset */
  count = 0;
 80030bc:	2300      	movs	r3, #0
 80030be:	617b      	str	r3, [r7, #20]
  greset.b.csftrst = 1;
 80030c0:	68fb      	ldr	r3, [r7, #12]
 80030c2:	f043 0301 	orr.w	r3, r3, #1
 80030c6:	60fb      	str	r3, [r7, #12]
  USB_OTG_WRITE_REG32(&pdev->regs.GREGS->GRSTCTL, greset.d32 );
 80030c8:	687b      	ldr	r3, [r7, #4]
 80030ca:	68db      	ldr	r3, [r3, #12]
 80030cc:	68fa      	ldr	r2, [r7, #12]
 80030ce:	611a      	str	r2, [r3, #16]
  do
  {
    greset.d32 = USB_OTG_READ_REG32(&pdev->regs.GREGS->GRSTCTL);
 80030d0:	687b      	ldr	r3, [r7, #4]
 80030d2:	68db      	ldr	r3, [r3, #12]
 80030d4:	691b      	ldr	r3, [r3, #16]
 80030d6:	60fb      	str	r3, [r7, #12]
    if (++count > 200000)
 80030d8:	697b      	ldr	r3, [r7, #20]
 80030da:	3301      	adds	r3, #1
 80030dc:	617b      	str	r3, [r7, #20]
 80030de:	697b      	ldr	r3, [r7, #20]
 80030e0:	4a09      	ldr	r2, [pc, #36]	; (8003108 <USB_OTG_CoreReset+0x8c>)
 80030e2:	4293      	cmp	r3, r2
 80030e4:	d806      	bhi.n	80030f4 <USB_OTG_CoreReset+0x78>
    {
      break;
    }
  }
  while (greset.b.csftrst == 1);
 80030e6:	68fb      	ldr	r3, [r7, #12]
 80030e8:	f3c3 0300 	ubfx	r3, r3, #0, #1
 80030ec:	b2db      	uxtb	r3, r3
 80030ee:	2b01      	cmp	r3, #1
 80030f0:	d0ee      	beq.n	80030d0 <USB_OTG_CoreReset+0x54>
 80030f2:	e000      	b.n	80030f6 <USB_OTG_CoreReset+0x7a>
  do
  {
    greset.d32 = USB_OTG_READ_REG32(&pdev->regs.GREGS->GRSTCTL);
    if (++count > 200000)
    {
      break;
 80030f4:	bf00      	nop
    }
  }
  while (greset.b.csftrst == 1);
  /* Wait for 3 PHY Clocks*/
  USB_OTG_BSP_uDelay(3);
 80030f6:	2003      	movs	r0, #3
 80030f8:	f002 fd10 	bl	8005b1c <USB_OTG_BSP_uDelay>
  return status;
 80030fc:	7cfb      	ldrb	r3, [r7, #19]
}
 80030fe:	4618      	mov	r0, r3
 8003100:	3718      	adds	r7, #24
 8003102:	46bd      	mov	sp, r7
 8003104:	bd80      	pop	{r7, pc}
 8003106:	bf00      	nop
 8003108:	00030d40 	.word	0x00030d40

0800310c <USB_OTG_WritePacket>:
*/
USB_OTG_STS USB_OTG_WritePacket(USB_OTG_CORE_HANDLE *pdev, 
                                uint8_t             *src, 
                                uint8_t             ch_ep_num, 
                                uint16_t            len)
{
 800310c:	b480      	push	{r7}
 800310e:	b089      	sub	sp, #36	; 0x24
 8003110:	af00      	add	r7, sp, #0
 8003112:	60f8      	str	r0, [r7, #12]
 8003114:	60b9      	str	r1, [r7, #8]
 8003116:	4611      	mov	r1, r2
 8003118:	461a      	mov	r2, r3
 800311a:	460b      	mov	r3, r1
 800311c:	71fb      	strb	r3, [r7, #7]
 800311e:	4613      	mov	r3, r2
 8003120:	80bb      	strh	r3, [r7, #4]
  USB_OTG_STS status = USB_OTG_OK;
 8003122:	2300      	movs	r3, #0
 8003124:	76fb      	strb	r3, [r7, #27]
  if (pdev->cfg.dma_enable == 0)
 8003126:	68fb      	ldr	r3, [r7, #12]
 8003128:	78db      	ldrb	r3, [r3, #3]
 800312a:	2b00      	cmp	r3, #0
 800312c:	d122      	bne.n	8003174 <USB_OTG_WritePacket+0x68>
  {
    uint32_t count32b= 0 , i= 0;
 800312e:	2300      	movs	r3, #0
 8003130:	617b      	str	r3, [r7, #20]
 8003132:	2300      	movs	r3, #0
 8003134:	61fb      	str	r3, [r7, #28]
    __IO uint32_t *fifo;
    
    count32b =  (len + 3) / 4;
 8003136:	88bb      	ldrh	r3, [r7, #4]
 8003138:	3303      	adds	r3, #3
 800313a:	2b00      	cmp	r3, #0
 800313c:	da00      	bge.n	8003140 <USB_OTG_WritePacket+0x34>
 800313e:	3303      	adds	r3, #3
 8003140:	109b      	asrs	r3, r3, #2
 8003142:	617b      	str	r3, [r7, #20]
    fifo = pdev->regs.DFIFO[ch_ep_num];
 8003144:	79fb      	ldrb	r3, [r7, #7]
 8003146:	68fa      	ldr	r2, [r7, #12]
 8003148:	3332      	adds	r3, #50	; 0x32
 800314a:	009b      	lsls	r3, r3, #2
 800314c:	4413      	add	r3, r2
 800314e:	689b      	ldr	r3, [r3, #8]
 8003150:	613b      	str	r3, [r7, #16]
    for (i = 0; i < count32b; i++, src+=4)
 8003152:	2300      	movs	r3, #0
 8003154:	61fb      	str	r3, [r7, #28]
 8003156:	e009      	b.n	800316c <USB_OTG_WritePacket+0x60>
    {
      USB_OTG_WRITE_REG32( fifo, *((__packed uint32_t *)src) );
 8003158:	68bb      	ldr	r3, [r7, #8]
 800315a:	681a      	ldr	r2, [r3, #0]
 800315c:	693b      	ldr	r3, [r7, #16]
 800315e:	601a      	str	r2, [r3, #0]
    uint32_t count32b= 0 , i= 0;
    __IO uint32_t *fifo;
    
    count32b =  (len + 3) / 4;
    fifo = pdev->regs.DFIFO[ch_ep_num];
    for (i = 0; i < count32b; i++, src+=4)
 8003160:	69fb      	ldr	r3, [r7, #28]
 8003162:	3301      	adds	r3, #1
 8003164:	61fb      	str	r3, [r7, #28]
 8003166:	68bb      	ldr	r3, [r7, #8]
 8003168:	3304      	adds	r3, #4
 800316a:	60bb      	str	r3, [r7, #8]
 800316c:	69fa      	ldr	r2, [r7, #28]
 800316e:	697b      	ldr	r3, [r7, #20]
 8003170:	429a      	cmp	r2, r3
 8003172:	d3f1      	bcc.n	8003158 <USB_OTG_WritePacket+0x4c>
    {
      USB_OTG_WRITE_REG32( fifo, *((__packed uint32_t *)src) );
    }
  }
  return status;
 8003174:	7efb      	ldrb	r3, [r7, #27]
}
 8003176:	4618      	mov	r0, r3
 8003178:	3724      	adds	r7, #36	; 0x24
 800317a:	46bd      	mov	sp, r7
 800317c:	f85d 7b04 	ldr.w	r7, [sp], #4
 8003180:	4770      	bx	lr
 8003182:	bf00      	nop

08003184 <USB_OTG_ReadPacket>:
* @retval None
*/
void *USB_OTG_ReadPacket(USB_OTG_CORE_HANDLE *pdev, 
                         uint8_t *dest, 
                         uint16_t len)
{
 8003184:	b480      	push	{r7}
 8003186:	b089      	sub	sp, #36	; 0x24
 8003188:	af00      	add	r7, sp, #0
 800318a:	60f8      	str	r0, [r7, #12]
 800318c:	60b9      	str	r1, [r7, #8]
 800318e:	4613      	mov	r3, r2
 8003190:	80fb      	strh	r3, [r7, #6]
  uint32_t i=0;
 8003192:	2300      	movs	r3, #0
 8003194:	61fb      	str	r3, [r7, #28]
  uint32_t count32b = (len + 3) / 4;
 8003196:	88fb      	ldrh	r3, [r7, #6]
 8003198:	3303      	adds	r3, #3
 800319a:	2b00      	cmp	r3, #0
 800319c:	da00      	bge.n	80031a0 <USB_OTG_ReadPacket+0x1c>
 800319e:	3303      	adds	r3, #3
 80031a0:	109b      	asrs	r3, r3, #2
 80031a2:	61bb      	str	r3, [r7, #24]
  
  __IO uint32_t *fifo = pdev->regs.DFIFO[0];
 80031a4:	68fb      	ldr	r3, [r7, #12]
 80031a6:	f8d3 30d0 	ldr.w	r3, [r3, #208]	; 0xd0
 80031aa:	617b      	str	r3, [r7, #20]
  
  for ( i = 0; i < count32b; i++, dest += 4 )
 80031ac:	2300      	movs	r3, #0
 80031ae:	61fb      	str	r3, [r7, #28]
 80031b0:	e009      	b.n	80031c6 <USB_OTG_ReadPacket+0x42>
  {
    *(__packed uint32_t *)dest = USB_OTG_READ_REG32(fifo);
 80031b2:	697b      	ldr	r3, [r7, #20]
 80031b4:	681a      	ldr	r2, [r3, #0]
 80031b6:	68bb      	ldr	r3, [r7, #8]
 80031b8:	601a      	str	r2, [r3, #0]
  uint32_t i=0;
  uint32_t count32b = (len + 3) / 4;
  
  __IO uint32_t *fifo = pdev->regs.DFIFO[0];
  
  for ( i = 0; i < count32b; i++, dest += 4 )
 80031ba:	69fb      	ldr	r3, [r7, #28]
 80031bc:	3301      	adds	r3, #1
 80031be:	61fb      	str	r3, [r7, #28]
 80031c0:	68bb      	ldr	r3, [r7, #8]
 80031c2:	3304      	adds	r3, #4
 80031c4:	60bb      	str	r3, [r7, #8]
 80031c6:	69fa      	ldr	r2, [r7, #28]
 80031c8:	69bb      	ldr	r3, [r7, #24]
 80031ca:	429a      	cmp	r2, r3
 80031cc:	d3f1      	bcc.n	80031b2 <USB_OTG_ReadPacket+0x2e>
  {
    *(__packed uint32_t *)dest = USB_OTG_READ_REG32(fifo);
    
  }
  return ((void *)dest);
 80031ce:	68bb      	ldr	r3, [r7, #8]
}
 80031d0:	4618      	mov	r0, r3
 80031d2:	3724      	adds	r7, #36	; 0x24
 80031d4:	46bd      	mov	sp, r7
 80031d6:	f85d 7b04 	ldr.w	r7, [sp], #4
 80031da:	4770      	bx	lr

080031dc <USB_OTG_SelectCore>:
* @param  coreID : USB OTG Core ID
* @retval USB_OTG_STS : status
*/
USB_OTG_STS USB_OTG_SelectCore(USB_OTG_CORE_HANDLE *pdev, 
                               USB_OTG_CORE_ID_TypeDef coreID)
{
 80031dc:	b480      	push	{r7}
 80031de:	b087      	sub	sp, #28
 80031e0:	af00      	add	r7, sp, #0
 80031e2:	6078      	str	r0, [r7, #4]
 80031e4:	460b      	mov	r3, r1
 80031e6:	70fb      	strb	r3, [r7, #3]
  uint32_t i , baseAddress = 0;
 80031e8:	2300      	movs	r3, #0
 80031ea:	613b      	str	r3, [r7, #16]
  USB_OTG_STS status = USB_OTG_OK;
 80031ec:	2300      	movs	r3, #0
 80031ee:	73fb      	strb	r3, [r7, #15]
  
  pdev->cfg.dma_enable       = 0;
 80031f0:	687b      	ldr	r3, [r7, #4]
 80031f2:	2200      	movs	r2, #0
 80031f4:	70da      	strb	r2, [r3, #3]
  
  /* at startup the core is in FS mode */
  pdev->cfg.speed            = USB_OTG_SPEED_FULL;
 80031f6:	687b      	ldr	r3, [r7, #4]
 80031f8:	2201      	movs	r2, #1
 80031fa:	709a      	strb	r2, [r3, #2]
  pdev->cfg.mps              = USB_OTG_FS_MAX_PACKET_SIZE ;    
 80031fc:	687b      	ldr	r3, [r7, #4]
 80031fe:	2240      	movs	r2, #64	; 0x40
 8003200:	809a      	strh	r2, [r3, #4]
    
  /* initialize device cfg following its address */
  if (coreID == USB_OTG_FS_CORE_ID)
 8003202:	78fb      	ldrb	r3, [r7, #3]
 8003204:	2b01      	cmp	r3, #1
 8003206:	d113      	bne.n	8003230 <USB_OTG_SelectCore+0x54>
  {
    baseAddress                = USB_OTG_FS_BASE_ADDR;
 8003208:	f04f 43a0 	mov.w	r3, #1342177280	; 0x50000000
 800320c:	613b      	str	r3, [r7, #16]
    pdev->cfg.coreID           = USB_OTG_FS_CORE_ID;
 800320e:	687b      	ldr	r3, [r7, #4]
 8003210:	2201      	movs	r2, #1
 8003212:	72da      	strb	r2, [r3, #11]
    pdev->cfg.host_channels    = 8 ;
 8003214:	687b      	ldr	r3, [r7, #4]
 8003216:	2208      	movs	r2, #8
 8003218:	701a      	strb	r2, [r3, #0]
    pdev->cfg.dev_endpoints    = 4 ;
 800321a:	687b      	ldr	r3, [r7, #4]
 800321c:	2204      	movs	r2, #4
 800321e:	705a      	strb	r2, [r3, #1]
    pdev->cfg.TotalFifoSize    = 320; /* in 32-bits */
 8003220:	687b      	ldr	r3, [r7, #4]
 8003222:	f44f 72a0 	mov.w	r2, #320	; 0x140
 8003226:	80da      	strh	r2, [r3, #6]
    pdev->cfg.phy_itface       = USB_OTG_EMBEDDED_PHY;     
 8003228:	687b      	ldr	r3, [r7, #4]
 800322a:	2202      	movs	r2, #2
 800322c:	721a      	strb	r2, [r3, #8]
 800322e:	e011      	b.n	8003254 <USB_OTG_SelectCore+0x78>
    
#ifdef USB_OTG_FS_LOW_PWR_MGMT_SUPPORT    
    pdev->cfg.low_power        = 1;    
#endif     
  }
  else if (coreID == USB_OTG_HS_CORE_ID)
 8003230:	78fb      	ldrb	r3, [r7, #3]
 8003232:	2b00      	cmp	r3, #0
 8003234:	d10e      	bne.n	8003254 <USB_OTG_SelectCore+0x78>
  {
    baseAddress                = USB_OTG_HS_BASE_ADDR;
 8003236:	4b45      	ldr	r3, [pc, #276]	; (800334c <USB_OTG_SelectCore+0x170>)
 8003238:	613b      	str	r3, [r7, #16]
    pdev->cfg.coreID           = USB_OTG_HS_CORE_ID;    
 800323a:	687b      	ldr	r3, [r7, #4]
 800323c:	2200      	movs	r2, #0
 800323e:	72da      	strb	r2, [r3, #11]
    pdev->cfg.host_channels    = 12 ;
 8003240:	687b      	ldr	r3, [r7, #4]
 8003242:	220c      	movs	r2, #12
 8003244:	701a      	strb	r2, [r3, #0]
    pdev->cfg.dev_endpoints    = 6 ;
 8003246:	687b      	ldr	r3, [r7, #4]
 8003248:	2206      	movs	r2, #6
 800324a:	705a      	strb	r2, [r3, #1]
    pdev->cfg.TotalFifoSize    = 1280;/* in 32-bits */
 800324c:	687b      	ldr	r3, [r7, #4]
 800324e:	f44f 62a0 	mov.w	r2, #1280	; 0x500
 8003252:	80da      	strh	r2, [r3, #6]
    pdev->cfg.low_power        = 1;    
#endif 
    
  }
  
  pdev->regs.GREGS = (USB_OTG_GREGS *)(baseAddress + \
 8003254:	693a      	ldr	r2, [r7, #16]
 8003256:	687b      	ldr	r3, [r7, #4]
 8003258:	60da      	str	r2, [r3, #12]
    USB_OTG_CORE_GLOBAL_REGS_OFFSET);
  pdev->regs.DREGS =  (USB_OTG_DREGS  *)  (baseAddress + \
 800325a:	693b      	ldr	r3, [r7, #16]
 800325c:	f503 6300 	add.w	r3, r3, #2048	; 0x800
 8003260:	461a      	mov	r2, r3
 8003262:	687b      	ldr	r3, [r7, #4]
 8003264:	611a      	str	r2, [r3, #16]
    USB_OTG_DEV_GLOBAL_REG_OFFSET);
  
  for (i = 0; i < pdev->cfg.dev_endpoints; i++)
 8003266:	2300      	movs	r3, #0
 8003268:	617b      	str	r3, [r7, #20]
 800326a:	e01c      	b.n	80032a6 <USB_OTG_SelectCore+0xca>
  {
    pdev->regs.INEP_REGS[i]  = (USB_OTG_INEPREGS *)  \
      (baseAddress + USB_OTG_DEV_IN_EP_REG_OFFSET + \
        (i * USB_OTG_EP_REG_OFFSET));
 800326c:	697b      	ldr	r3, [r7, #20]
 800326e:	015a      	lsls	r2, r3, #5
    USB_OTG_DEV_GLOBAL_REG_OFFSET);
  
  for (i = 0; i < pdev->cfg.dev_endpoints; i++)
  {
    pdev->regs.INEP_REGS[i]  = (USB_OTG_INEPREGS *)  \
      (baseAddress + USB_OTG_DEV_IN_EP_REG_OFFSET + \
 8003270:	693b      	ldr	r3, [r7, #16]
 8003272:	4413      	add	r3, r2
 8003274:	f503 6310 	add.w	r3, r3, #2304	; 0x900
  pdev->regs.DREGS =  (USB_OTG_DREGS  *)  (baseAddress + \
    USB_OTG_DEV_GLOBAL_REG_OFFSET);
  
  for (i = 0; i < pdev->cfg.dev_endpoints; i++)
  {
    pdev->regs.INEP_REGS[i]  = (USB_OTG_INEPREGS *)  \
 8003278:	4619      	mov	r1, r3
 800327a:	687a      	ldr	r2, [r7, #4]
 800327c:	697b      	ldr	r3, [r7, #20]
 800327e:	3304      	adds	r3, #4
 8003280:	009b      	lsls	r3, r3, #2
 8003282:	4413      	add	r3, r2
 8003284:	6099      	str	r1, [r3, #8]
      (baseAddress + USB_OTG_DEV_IN_EP_REG_OFFSET + \
        (i * USB_OTG_EP_REG_OFFSET));
    pdev->regs.OUTEP_REGS[i] = (USB_OTG_OUTEPREGS *) \
      (baseAddress + USB_OTG_DEV_OUT_EP_REG_OFFSET + \
        (i * USB_OTG_EP_REG_OFFSET));
 8003286:	697b      	ldr	r3, [r7, #20]
 8003288:	015a      	lsls	r2, r3, #5
  {
    pdev->regs.INEP_REGS[i]  = (USB_OTG_INEPREGS *)  \
      (baseAddress + USB_OTG_DEV_IN_EP_REG_OFFSET + \
        (i * USB_OTG_EP_REG_OFFSET));
    pdev->regs.OUTEP_REGS[i] = (USB_OTG_OUTEPREGS *) \
      (baseAddress + USB_OTG_DEV_OUT_EP_REG_OFFSET + \
 800328a:	693b      	ldr	r3, [r7, #16]
 800328c:	4413      	add	r3, r2
 800328e:	f503 6330 	add.w	r3, r3, #2816	; 0xb00
  for (i = 0; i < pdev->cfg.dev_endpoints; i++)
  {
    pdev->regs.INEP_REGS[i]  = (USB_OTG_INEPREGS *)  \
      (baseAddress + USB_OTG_DEV_IN_EP_REG_OFFSET + \
        (i * USB_OTG_EP_REG_OFFSET));
    pdev->regs.OUTEP_REGS[i] = (USB_OTG_OUTEPREGS *) \
 8003292:	4619      	mov	r1, r3
 8003294:	687a      	ldr	r2, [r7, #4]
 8003296:	697b      	ldr	r3, [r7, #20]
 8003298:	3314      	adds	r3, #20
 800329a:	009b      	lsls	r3, r3, #2
 800329c:	4413      	add	r3, r2
 800329e:	6059      	str	r1, [r3, #4]
  pdev->regs.GREGS = (USB_OTG_GREGS *)(baseAddress + \
    USB_OTG_CORE_GLOBAL_REGS_OFFSET);
  pdev->regs.DREGS =  (USB_OTG_DREGS  *)  (baseAddress + \
    USB_OTG_DEV_GLOBAL_REG_OFFSET);
  
  for (i = 0; i < pdev->cfg.dev_endpoints; i++)
 80032a0:	697b      	ldr	r3, [r7, #20]
 80032a2:	3301      	adds	r3, #1
 80032a4:	617b      	str	r3, [r7, #20]
 80032a6:	687b      	ldr	r3, [r7, #4]
 80032a8:	785b      	ldrb	r3, [r3, #1]
 80032aa:	461a      	mov	r2, r3
 80032ac:	697b      	ldr	r3, [r7, #20]
 80032ae:	429a      	cmp	r2, r3
 80032b0:	d8dc      	bhi.n	800326c <USB_OTG_SelectCore+0x90>
        (i * USB_OTG_EP_REG_OFFSET));
    pdev->regs.OUTEP_REGS[i] = (USB_OTG_OUTEPREGS *) \
      (baseAddress + USB_OTG_DEV_OUT_EP_REG_OFFSET + \
        (i * USB_OTG_EP_REG_OFFSET));
  }
  pdev->regs.HREGS = (USB_OTG_HREGS *)(baseAddress + \
 80032b2:	693b      	ldr	r3, [r7, #16]
 80032b4:	f503 6380 	add.w	r3, r3, #1024	; 0x400
 80032b8:	461a      	mov	r2, r3
 80032ba:	687b      	ldr	r3, [r7, #4]
 80032bc:	615a      	str	r2, [r3, #20]
    USB_OTG_HOST_GLOBAL_REG_OFFSET);
  pdev->regs.HPRT0 = (uint32_t *)(baseAddress + USB_OTG_HOST_PORT_REGS_OFFSET);
 80032be:	693b      	ldr	r3, [r7, #16]
 80032c0:	f503 6388 	add.w	r3, r3, #1088	; 0x440
 80032c4:	461a      	mov	r2, r3
 80032c6:	687b      	ldr	r3, [r7, #4]
 80032c8:	f8c3 20cc 	str.w	r2, [r3, #204]	; 0xcc
  
  for (i = 0; i < pdev->cfg.host_channels; i++)
 80032cc:	2300      	movs	r3, #0
 80032ce:	617b      	str	r3, [r7, #20]
 80032d0:	e00f      	b.n	80032f2 <USB_OTG_SelectCore+0x116>
  {
    pdev->regs.HC_REGS[i] = (USB_OTG_HC_REGS *)(baseAddress + \
      USB_OTG_HOST_CHAN_REGS_OFFSET + \
        (i * USB_OTG_CHAN_REGS_OFFSET));
 80032d2:	697b      	ldr	r3, [r7, #20]
 80032d4:	015a      	lsls	r2, r3, #5
  pdev->regs.HPRT0 = (uint32_t *)(baseAddress + USB_OTG_HOST_PORT_REGS_OFFSET);
  
  for (i = 0; i < pdev->cfg.host_channels; i++)
  {
    pdev->regs.HC_REGS[i] = (USB_OTG_HC_REGS *)(baseAddress + \
      USB_OTG_HOST_CHAN_REGS_OFFSET + \
 80032d6:	693b      	ldr	r3, [r7, #16]
 80032d8:	4413      	add	r3, r2
 80032da:	f503 63a0 	add.w	r3, r3, #1280	; 0x500
    USB_OTG_HOST_GLOBAL_REG_OFFSET);
  pdev->regs.HPRT0 = (uint32_t *)(baseAddress + USB_OTG_HOST_PORT_REGS_OFFSET);
  
  for (i = 0; i < pdev->cfg.host_channels; i++)
  {
    pdev->regs.HC_REGS[i] = (USB_OTG_HC_REGS *)(baseAddress + \
 80032de:	4619      	mov	r1, r3
 80032e0:	687a      	ldr	r2, [r7, #4]
 80032e2:	697b      	ldr	r3, [r7, #20]
 80032e4:	3322      	adds	r3, #34	; 0x22
 80032e6:	009b      	lsls	r3, r3, #2
 80032e8:	4413      	add	r3, r2
 80032ea:	6099      	str	r1, [r3, #8]
  }
  pdev->regs.HREGS = (USB_OTG_HREGS *)(baseAddress + \
    USB_OTG_HOST_GLOBAL_REG_OFFSET);
  pdev->regs.HPRT0 = (uint32_t *)(baseAddress + USB_OTG_HOST_PORT_REGS_OFFSET);
  
  for (i = 0; i < pdev->cfg.host_channels; i++)
 80032ec:	697b      	ldr	r3, [r7, #20]
 80032ee:	3301      	adds	r3, #1
 80032f0:	617b      	str	r3, [r7, #20]
 80032f2:	687b      	ldr	r3, [r7, #4]
 80032f4:	781b      	ldrb	r3, [r3, #0]
 80032f6:	461a      	mov	r2, r3
 80032f8:	697b      	ldr	r3, [r7, #20]
 80032fa:	429a      	cmp	r2, r3
 80032fc:	d8e9      	bhi.n	80032d2 <USB_OTG_SelectCore+0xf6>
  {
    pdev->regs.HC_REGS[i] = (USB_OTG_HC_REGS *)(baseAddress + \
      USB_OTG_HOST_CHAN_REGS_OFFSET + \
        (i * USB_OTG_CHAN_REGS_OFFSET));
  }
  for (i = 0; i < pdev->cfg.host_channels; i++)
 80032fe:	2300      	movs	r3, #0
 8003300:	617b      	str	r3, [r7, #20]
 8003302:	e00f      	b.n	8003324 <USB_OTG_SelectCore+0x148>
  {
    pdev->regs.DFIFO[i] = (uint32_t *)(baseAddress + USB_OTG_DATA_FIFO_OFFSET +\
      (i * USB_OTG_DATA_FIFO_SIZE));
 8003304:	697b      	ldr	r3, [r7, #20]
 8003306:	031a      	lsls	r2, r3, #12
      USB_OTG_HOST_CHAN_REGS_OFFSET + \
        (i * USB_OTG_CHAN_REGS_OFFSET));
  }
  for (i = 0; i < pdev->cfg.host_channels; i++)
  {
    pdev->regs.DFIFO[i] = (uint32_t *)(baseAddress + USB_OTG_DATA_FIFO_OFFSET +\
 8003308:	693b      	ldr	r3, [r7, #16]
 800330a:	4413      	add	r3, r2
 800330c:	f503 5380 	add.w	r3, r3, #4096	; 0x1000
 8003310:	4619      	mov	r1, r3
 8003312:	687a      	ldr	r2, [r7, #4]
 8003314:	697b      	ldr	r3, [r7, #20]
 8003316:	3332      	adds	r3, #50	; 0x32
 8003318:	009b      	lsls	r3, r3, #2
 800331a:	4413      	add	r3, r2
 800331c:	6099      	str	r1, [r3, #8]
  {
    pdev->regs.HC_REGS[i] = (USB_OTG_HC_REGS *)(baseAddress + \
      USB_OTG_HOST_CHAN_REGS_OFFSET + \
        (i * USB_OTG_CHAN_REGS_OFFSET));
  }
  for (i = 0; i < pdev->cfg.host_channels; i++)
 800331e:	697b      	ldr	r3, [r7, #20]
 8003320:	3301      	adds	r3, #1
 8003322:	617b      	str	r3, [r7, #20]
 8003324:	687b      	ldr	r3, [r7, #4]
 8003326:	781b      	ldrb	r3, [r3, #0]
 8003328:	461a      	mov	r2, r3
 800332a:	697b      	ldr	r3, [r7, #20]
 800332c:	429a      	cmp	r2, r3
 800332e:	d8e9      	bhi.n	8003304 <USB_OTG_SelectCore+0x128>
  {
    pdev->regs.DFIFO[i] = (uint32_t *)(baseAddress + USB_OTG_DATA_FIFO_OFFSET +\
      (i * USB_OTG_DATA_FIFO_SIZE));
  }
  pdev->regs.PCGCCTL = (uint32_t *)(baseAddress + USB_OTG_PCGCCTL_OFFSET);
 8003330:	693b      	ldr	r3, [r7, #16]
 8003332:	f503 6360 	add.w	r3, r3, #3584	; 0xe00
 8003336:	461a      	mov	r2, r3
 8003338:	687b      	ldr	r3, [r7, #4]
 800333a:	f8c3 210c 	str.w	r2, [r3, #268]	; 0x10c
  
  return status;
 800333e:	7bfb      	ldrb	r3, [r7, #15]
}
 8003340:	4618      	mov	r0, r3
 8003342:	371c      	adds	r7, #28
 8003344:	46bd      	mov	sp, r7
 8003346:	f85d 7b04 	ldr.w	r7, [sp], #4
 800334a:	4770      	bx	lr
 800334c:	40040000 	.word	0x40040000

08003350 <USB_OTG_CoreInit>:
*         device mode or host mode operation.
* @param  pdev : Selected device
* @retval USB_OTG_STS : status
*/
USB_OTG_STS USB_OTG_CoreInit(USB_OTG_CORE_HANDLE *pdev)
{
 8003350:	b580      	push	{r7, lr}
 8003352:	b088      	sub	sp, #32
 8003354:	af00      	add	r7, sp, #0
 8003356:	6078      	str	r0, [r7, #4]
  USB_OTG_STS status = USB_OTG_OK;
 8003358:	2300      	movs	r3, #0
 800335a:	77fb      	strb	r3, [r7, #31]
  USB_OTG_GUSBCFG_TypeDef  usbcfg;
  USB_OTG_GCCFG_TypeDef    gccfg;
  USB_OTG_GI2CCTL_TypeDef  i2cctl;
  USB_OTG_GAHBCFG_TypeDef  ahbcfg;
  
  usbcfg.d32 = 0;
 800335c:	2300      	movs	r3, #0
 800335e:	61bb      	str	r3, [r7, #24]
  gccfg.d32 = 0;
 8003360:	2300      	movs	r3, #0
 8003362:	617b      	str	r3, [r7, #20]
  ahbcfg.d32 = 0;
 8003364:	2300      	movs	r3, #0
 8003366:	60fb      	str	r3, [r7, #12]
  

  
  if (pdev->cfg.phy_itface == USB_OTG_ULPI_PHY)
 8003368:	687b      	ldr	r3, [r7, #4]
 800336a:	7a1b      	ldrb	r3, [r3, #8]
 800336c:	2b01      	cmp	r3, #1
 800336e:	d14f      	bne.n	8003410 <USB_OTG_CoreInit+0xc0>
  {
    gccfg.d32 = USB_OTG_READ_REG32(&pdev->regs.GREGS->GCCFG);
 8003370:	687b      	ldr	r3, [r7, #4]
 8003372:	68db      	ldr	r3, [r3, #12]
 8003374:	6b9b      	ldr	r3, [r3, #56]	; 0x38
 8003376:	617b      	str	r3, [r7, #20]
    gccfg.b.pwdn = 0;
 8003378:	7dbb      	ldrb	r3, [r7, #22]
 800337a:	f36f 0300 	bfc	r3, #0, #1
 800337e:	75bb      	strb	r3, [r7, #22]
    
    if (pdev->cfg.Sof_output)
 8003380:	687b      	ldr	r3, [r7, #4]
 8003382:	7a5b      	ldrb	r3, [r3, #9]
 8003384:	2b00      	cmp	r3, #0
 8003386:	d003      	beq.n	8003390 <USB_OTG_CoreInit+0x40>
    {
      gccfg.b.sofouten = 1;   
 8003388:	7dbb      	ldrb	r3, [r7, #22]
 800338a:	f043 0310 	orr.w	r3, r3, #16
 800338e:	75bb      	strb	r3, [r7, #22]
    }
    USB_OTG_WRITE_REG32 (&pdev->regs.GREGS->GCCFG, gccfg.d32);
 8003390:	687b      	ldr	r3, [r7, #4]
 8003392:	68db      	ldr	r3, [r3, #12]
 8003394:	697a      	ldr	r2, [r7, #20]
 8003396:	639a      	str	r2, [r3, #56]	; 0x38
    
    /* Init The ULPI Interface */
    usbcfg.d32 = 0;
 8003398:	2300      	movs	r3, #0
 800339a:	61bb      	str	r3, [r7, #24]
    usbcfg.d32 = USB_OTG_READ_REG32(&pdev->regs.GREGS->GUSBCFG);
 800339c:	687b      	ldr	r3, [r7, #4]
 800339e:	68db      	ldr	r3, [r3, #12]
 80033a0:	68db      	ldr	r3, [r3, #12]
 80033a2:	61bb      	str	r3, [r7, #24]
    
    usbcfg.b.physel            = 0; /* HS Interface */
 80033a4:	7e3b      	ldrb	r3, [r7, #24]
 80033a6:	f36f 1386 	bfc	r3, #6, #1
 80033aa:	763b      	strb	r3, [r7, #24]
#else
 #ifdef USB_OTG_EXTERNAL_VBUS_ENABLED    
    usbcfg.b.ulpi_ext_vbus_drv = 1; /* Use external VBUS */
 #endif
#endif 
    usbcfg.b.term_sel_dl_pulse = 0; /* Data line pulsing using utmi_txvalid */    
 80033ac:	7ebb      	ldrb	r3, [r7, #26]
 80033ae:	f36f 1386 	bfc	r3, #6, #1
 80033b2:	76bb      	strb	r3, [r7, #26]
    usbcfg.b.ulpi_utmi_sel     = 1; /* ULPI seleInterfacect */
 80033b4:	7e3b      	ldrb	r3, [r7, #24]
 80033b6:	f043 0310 	orr.w	r3, r3, #16
 80033ba:	763b      	strb	r3, [r7, #24]
    
    usbcfg.b.phyif             = 0; /* 8 bits */
 80033bc:	7e3b      	ldrb	r3, [r7, #24]
 80033be:	f36f 03c3 	bfc	r3, #3, #1
 80033c2:	763b      	strb	r3, [r7, #24]
    usbcfg.b.ddrsel            = 0; /* single data rate */
 80033c4:	7e3b      	ldrb	r3, [r7, #24]
 80033c6:	f36f 13c7 	bfc	r3, #7, #1
 80033ca:	763b      	strb	r3, [r7, #24]
    
    usbcfg.b.ulpi_fsls = 0;
 80033cc:	7ebb      	ldrb	r3, [r7, #26]
 80033ce:	f36f 0341 	bfc	r3, #1, #1
 80033d2:	76bb      	strb	r3, [r7, #26]
    usbcfg.b.ulpi_clk_sus_m = 0;
 80033d4:	7ebb      	ldrb	r3, [r7, #26]
 80033d6:	f36f 03c3 	bfc	r3, #3, #1
 80033da:	76bb      	strb	r3, [r7, #26]
    USB_OTG_WRITE_REG32 (&pdev->regs.GREGS->GUSBCFG, usbcfg.d32);
 80033dc:	687b      	ldr	r3, [r7, #4]
 80033de:	68db      	ldr	r3, [r3, #12]
 80033e0:	69ba      	ldr	r2, [r7, #24]
 80033e2:	60da      	str	r2, [r3, #12]
    
    /* Reset after a PHY select  */
    USB_OTG_CoreReset(pdev);
 80033e4:	6878      	ldr	r0, [r7, #4]
 80033e6:	f7ff fe49 	bl	800307c <USB_OTG_CoreReset>
    
    if(pdev->cfg.dma_enable == 1)
 80033ea:	687b      	ldr	r3, [r7, #4]
 80033ec:	78db      	ldrb	r3, [r3, #3]
 80033ee:	2b01      	cmp	r3, #1
 80033f0:	f040 8082 	bne.w	80034f8 <USB_OTG_CoreInit+0x1a8>
    {
      
      ahbcfg.b.hburstlen = 5; /* 64 x 32-bits*/
 80033f4:	7b3b      	ldrb	r3, [r7, #12]
 80033f6:	2205      	movs	r2, #5
 80033f8:	f362 0344 	bfi	r3, r2, #1, #4
 80033fc:	733b      	strb	r3, [r7, #12]
      ahbcfg.b.dmaenable = 1;
 80033fe:	7b3b      	ldrb	r3, [r7, #12]
 8003400:	f043 0320 	orr.w	r3, r3, #32
 8003404:	733b      	strb	r3, [r7, #12]
      USB_OTG_WRITE_REG32(&pdev->regs.GREGS->GAHBCFG, ahbcfg.d32);
 8003406:	687b      	ldr	r3, [r7, #4]
 8003408:	68db      	ldr	r3, [r3, #12]
 800340a:	68fa      	ldr	r2, [r7, #12]
 800340c:	609a      	str	r2, [r3, #8]
 800340e:	e073      	b.n	80034f8 <USB_OTG_CoreInit+0x1a8>
    }    
  }
  else /* FS interface (embedded Phy or I2C Phy) */
  {
    
    usbcfg.d32 = USB_OTG_READ_REG32(&pdev->regs.GREGS->GUSBCFG);;
 8003410:	687b      	ldr	r3, [r7, #4]
 8003412:	68db      	ldr	r3, [r3, #12]
 8003414:	68db      	ldr	r3, [r3, #12]
 8003416:	61bb      	str	r3, [r7, #24]
    usbcfg.b.physel  = 1; /* FS Interface */
 8003418:	7e3b      	ldrb	r3, [r7, #24]
 800341a:	f043 0340 	orr.w	r3, r3, #64	; 0x40
 800341e:	763b      	strb	r3, [r7, #24]
    USB_OTG_WRITE_REG32 (&pdev->regs.GREGS->GUSBCFG, usbcfg.d32);
 8003420:	687b      	ldr	r3, [r7, #4]
 8003422:	68db      	ldr	r3, [r3, #12]
 8003424:	69ba      	ldr	r2, [r7, #24]
 8003426:	60da      	str	r2, [r3, #12]
    /* Reset after a PHY select and set Host mode */
    USB_OTG_CoreReset(pdev);
 8003428:	6878      	ldr	r0, [r7, #4]
 800342a:	f7ff fe27 	bl	800307c <USB_OTG_CoreReset>
    /* Enable the I2C interface and deactivate the power down*/
    gccfg.d32 = 0;
 800342e:	2300      	movs	r3, #0
 8003430:	617b      	str	r3, [r7, #20]
    gccfg.b.pwdn = 1;
 8003432:	7dbb      	ldrb	r3, [r7, #22]
 8003434:	f043 0301 	orr.w	r3, r3, #1
 8003438:	75bb      	strb	r3, [r7, #22]
    
    if(pdev->cfg.phy_itface == USB_OTG_I2C_PHY)
 800343a:	687b      	ldr	r3, [r7, #4]
 800343c:	7a1b      	ldrb	r3, [r3, #8]
 800343e:	2b03      	cmp	r3, #3
 8003440:	d103      	bne.n	800344a <USB_OTG_CoreInit+0xfa>
    {
      gccfg.b.i2cifen = 1;
 8003442:	7dbb      	ldrb	r3, [r7, #22]
 8003444:	f043 0302 	orr.w	r3, r3, #2
 8003448:	75bb      	strb	r3, [r7, #22]
    }   
    gccfg.b.vbussensingA = 1 ;
 800344a:	7dbb      	ldrb	r3, [r7, #22]
 800344c:	f043 0304 	orr.w	r3, r3, #4
 8003450:	75bb      	strb	r3, [r7, #22]
    gccfg.b.vbussensingB = 1 ;     
 8003452:	7dbb      	ldrb	r3, [r7, #22]
 8003454:	f043 0308 	orr.w	r3, r3, #8
 8003458:	75bb      	strb	r3, [r7, #22]
#ifndef VBUS_SENSING_ENABLED
    gccfg.b.disablevbussensing = 1; 
 800345a:	7dbb      	ldrb	r3, [r7, #22]
 800345c:	f043 0320 	orr.w	r3, r3, #32
 8003460:	75bb      	strb	r3, [r7, #22]
#endif    
    
    if(pdev->cfg.Sof_output)
 8003462:	687b      	ldr	r3, [r7, #4]
 8003464:	7a5b      	ldrb	r3, [r3, #9]
 8003466:	2b00      	cmp	r3, #0
 8003468:	d003      	beq.n	8003472 <USB_OTG_CoreInit+0x122>
    {
      gccfg.b.sofouten = 1;  
 800346a:	7dbb      	ldrb	r3, [r7, #22]
 800346c:	f043 0310 	orr.w	r3, r3, #16
 8003470:	75bb      	strb	r3, [r7, #22]
    }
    
    USB_OTG_WRITE_REG32 (&pdev->regs.GREGS->GCCFG, gccfg.d32);
 8003472:	687b      	ldr	r3, [r7, #4]
 8003474:	68db      	ldr	r3, [r3, #12]
 8003476:	697a      	ldr	r2, [r7, #20]
 8003478:	639a      	str	r2, [r3, #56]	; 0x38
    USB_OTG_BSP_mDelay(20);
 800347a:	2014      	movs	r0, #20
 800347c:	f002 fb72 	bl	8005b64 <USB_OTG_BSP_mDelay>
    /* Program GUSBCFG.OtgUtmifsSel to I2C*/
    usbcfg.d32 = USB_OTG_READ_REG32(&pdev->regs.GREGS->GUSBCFG);
 8003480:	687b      	ldr	r3, [r7, #4]
 8003482:	68db      	ldr	r3, [r3, #12]
 8003484:	68db      	ldr	r3, [r3, #12]
 8003486:	61bb      	str	r3, [r7, #24]
    
    if(pdev->cfg.phy_itface == USB_OTG_I2C_PHY)
 8003488:	687b      	ldr	r3, [r7, #4]
 800348a:	7a1b      	ldrb	r3, [r3, #8]
 800348c:	2b03      	cmp	r3, #3
 800348e:	d103      	bne.n	8003498 <USB_OTG_CoreInit+0x148>
    {
      usbcfg.b.otgutmifssel = 1;
 8003490:	7ebb      	ldrb	r3, [r7, #26]
 8003492:	f043 0301 	orr.w	r3, r3, #1
 8003496:	76bb      	strb	r3, [r7, #26]
    }
    
    USB_OTG_WRITE_REG32 (&pdev->regs.GREGS->GUSBCFG, usbcfg.d32);
 8003498:	687b      	ldr	r3, [r7, #4]
 800349a:	68db      	ldr	r3, [r3, #12]
 800349c:	69ba      	ldr	r2, [r7, #24]
 800349e:	60da      	str	r2, [r3, #12]
    
    if(pdev->cfg.phy_itface == USB_OTG_I2C_PHY)
 80034a0:	687b      	ldr	r3, [r7, #4]
 80034a2:	7a1b      	ldrb	r3, [r3, #8]
 80034a4:	2b03      	cmp	r3, #3
 80034a6:	d127      	bne.n	80034f8 <USB_OTG_CoreInit+0x1a8>
    {
      /*Program GI2CCTL.I2CEn*/
      i2cctl.d32 = USB_OTG_READ_REG32(&pdev->regs.GREGS->GI2CCTL);
 80034a8:	687b      	ldr	r3, [r7, #4]
 80034aa:	68db      	ldr	r3, [r3, #12]
 80034ac:	6b1b      	ldr	r3, [r3, #48]	; 0x30
 80034ae:	613b      	str	r3, [r7, #16]
      i2cctl.b.i2cdevaddr = 1;
 80034b0:	7cfb      	ldrb	r3, [r7, #19]
 80034b2:	2201      	movs	r2, #1
 80034b4:	f362 0383 	bfi	r3, r2, #2, #2
 80034b8:	74fb      	strb	r3, [r7, #19]
      i2cctl.b.i2cen = 0;
 80034ba:	7cbb      	ldrb	r3, [r7, #18]
 80034bc:	f36f 13c7 	bfc	r3, #7, #1
 80034c0:	74bb      	strb	r3, [r7, #18]
      i2cctl.b.dat_se0 = 1;
 80034c2:	7cfb      	ldrb	r3, [r7, #19]
 80034c4:	f043 0310 	orr.w	r3, r3, #16
 80034c8:	74fb      	strb	r3, [r7, #19]
      i2cctl.b.addr = 0x2D;
 80034ca:	7cbb      	ldrb	r3, [r7, #18]
 80034cc:	222d      	movs	r2, #45	; 0x2d
 80034ce:	f362 0306 	bfi	r3, r2, #0, #7
 80034d2:	74bb      	strb	r3, [r7, #18]
      USB_OTG_WRITE_REG32 (&pdev->regs.GREGS->GI2CCTL, i2cctl.d32);
 80034d4:	687b      	ldr	r3, [r7, #4]
 80034d6:	68db      	ldr	r3, [r3, #12]
 80034d8:	693a      	ldr	r2, [r7, #16]
 80034da:	631a      	str	r2, [r3, #48]	; 0x30
      
      USB_OTG_BSP_mDelay(200);
 80034dc:	20c8      	movs	r0, #200	; 0xc8
 80034de:	f002 fb41 	bl	8005b64 <USB_OTG_BSP_mDelay>
      
      i2cctl.b.i2cen = 1;
 80034e2:	7cbb      	ldrb	r3, [r7, #18]
 80034e4:	f043 0380 	orr.w	r3, r3, #128	; 0x80
 80034e8:	74bb      	strb	r3, [r7, #18]
      USB_OTG_WRITE_REG32 (&pdev->regs.GREGS->GI2CCTL, i2cctl.d32);
 80034ea:	687b      	ldr	r3, [r7, #4]
 80034ec:	68db      	ldr	r3, [r3, #12]
 80034ee:	693a      	ldr	r2, [r7, #16]
 80034f0:	631a      	str	r2, [r3, #48]	; 0x30
      USB_OTG_BSP_mDelay(200);
 80034f2:	20c8      	movs	r0, #200	; 0xc8
 80034f4:	f002 fb36 	bl	8005b64 <USB_OTG_BSP_mDelay>
    }
  }
  /* case the HS core is working in FS mode */
  if(pdev->cfg.dma_enable == 1)
 80034f8:	687b      	ldr	r3, [r7, #4]
 80034fa:	78db      	ldrb	r3, [r3, #3]
 80034fc:	2b01      	cmp	r3, #1
 80034fe:	d110      	bne.n	8003522 <USB_OTG_CoreInit+0x1d2>
  {
    
    ahbcfg.d32 = USB_OTG_READ_REG32(&pdev->regs.GREGS->GAHBCFG);
 8003500:	687b      	ldr	r3, [r7, #4]
 8003502:	68db      	ldr	r3, [r3, #12]
 8003504:	689b      	ldr	r3, [r3, #8]
 8003506:	60fb      	str	r3, [r7, #12]
    ahbcfg.b.hburstlen = 5; /* 64 x 32-bits*/
 8003508:	7b3b      	ldrb	r3, [r7, #12]
 800350a:	2205      	movs	r2, #5
 800350c:	f362 0344 	bfi	r3, r2, #1, #4
 8003510:	733b      	strb	r3, [r7, #12]
    ahbcfg.b.dmaenable = 1;
 8003512:	7b3b      	ldrb	r3, [r7, #12]
 8003514:	f043 0320 	orr.w	r3, r3, #32
 8003518:	733b      	strb	r3, [r7, #12]
    USB_OTG_WRITE_REG32(&pdev->regs.GREGS->GAHBCFG, ahbcfg.d32);
 800351a:	687b      	ldr	r3, [r7, #4]
 800351c:	68db      	ldr	r3, [r3, #12]
 800351e:	68fa      	ldr	r2, [r7, #12]
 8003520:	609a      	str	r2, [r3, #8]
  usbcfg.b.hnpcap = 1;
  usbcfg.b.srpcap = 1;
  USB_OTG_WRITE_REG32(&pdev->regs.GREGS->GUSBCFG, usbcfg.d32);
  USB_OTG_EnableCommonInt(pdev);
#endif
  return status;
 8003522:	7ffb      	ldrb	r3, [r7, #31]
}
 8003524:	4618      	mov	r0, r3
 8003526:	3720      	adds	r7, #32
 8003528:	46bd      	mov	sp, r7
 800352a:	bd80      	pop	{r7, pc}

0800352c <USB_OTG_EnableGlobalInt>:
*         Enables the controller's Global Int in the AHB Config reg
* @param  pdev : Selected device
* @retval USB_OTG_STS : status
*/
USB_OTG_STS USB_OTG_EnableGlobalInt(USB_OTG_CORE_HANDLE *pdev)
{
 800352c:	b480      	push	{r7}
 800352e:	b085      	sub	sp, #20
 8003530:	af00      	add	r7, sp, #0
 8003532:	6078      	str	r0, [r7, #4]
  USB_OTG_STS status = USB_OTG_OK;
 8003534:	2300      	movs	r3, #0
 8003536:	73fb      	strb	r3, [r7, #15]
  USB_OTG_GAHBCFG_TypeDef  ahbcfg;
  
  ahbcfg.d32 = 0;
 8003538:	2300      	movs	r3, #0
 800353a:	60bb      	str	r3, [r7, #8]
  ahbcfg.b.glblintrmsk = 1; /* Enable interrupts */
 800353c:	7a3b      	ldrb	r3, [r7, #8]
 800353e:	f043 0301 	orr.w	r3, r3, #1
 8003542:	723b      	strb	r3, [r7, #8]
  USB_OTG_MODIFY_REG32(&pdev->regs.GREGS->GAHBCFG, 0, ahbcfg.d32);
 8003544:	687b      	ldr	r3, [r7, #4]
 8003546:	68db      	ldr	r3, [r3, #12]
 8003548:	687a      	ldr	r2, [r7, #4]
 800354a:	68d2      	ldr	r2, [r2, #12]
 800354c:	6891      	ldr	r1, [r2, #8]
 800354e:	68ba      	ldr	r2, [r7, #8]
 8003550:	430a      	orrs	r2, r1
 8003552:	609a      	str	r2, [r3, #8]
  return status;
 8003554:	7bfb      	ldrb	r3, [r7, #15]
}
 8003556:	4618      	mov	r0, r3
 8003558:	3714      	adds	r7, #20
 800355a:	46bd      	mov	sp, r7
 800355c:	f85d 7b04 	ldr.w	r7, [sp], #4
 8003560:	4770      	bx	lr
 8003562:	bf00      	nop

08003564 <USB_OTG_DisableGlobalInt>:
*         Enables the controller's Global Int in the AHB Config reg
* @param  pdev : Selected device
* @retval USB_OTG_STS : status
*/
USB_OTG_STS USB_OTG_DisableGlobalInt(USB_OTG_CORE_HANDLE *pdev)
{
 8003564:	b480      	push	{r7}
 8003566:	b085      	sub	sp, #20
 8003568:	af00      	add	r7, sp, #0
 800356a:	6078      	str	r0, [r7, #4]
  USB_OTG_STS status = USB_OTG_OK;
 800356c:	2300      	movs	r3, #0
 800356e:	73fb      	strb	r3, [r7, #15]
  USB_OTG_GAHBCFG_TypeDef  ahbcfg;
  ahbcfg.d32 = 0;
 8003570:	2300      	movs	r3, #0
 8003572:	60bb      	str	r3, [r7, #8]
  ahbcfg.b.glblintrmsk = 1; /* Enable interrupts */
 8003574:	7a3b      	ldrb	r3, [r7, #8]
 8003576:	f043 0301 	orr.w	r3, r3, #1
 800357a:	723b      	strb	r3, [r7, #8]
  USB_OTG_MODIFY_REG32(&pdev->regs.GREGS->GAHBCFG, ahbcfg.d32, 0);
 800357c:	687b      	ldr	r3, [r7, #4]
 800357e:	68db      	ldr	r3, [r3, #12]
 8003580:	687a      	ldr	r2, [r7, #4]
 8003582:	68d2      	ldr	r2, [r2, #12]
 8003584:	6891      	ldr	r1, [r2, #8]
 8003586:	68ba      	ldr	r2, [r7, #8]
 8003588:	43d2      	mvns	r2, r2
 800358a:	400a      	ands	r2, r1
 800358c:	609a      	str	r2, [r3, #8]
  return status;
 800358e:	7bfb      	ldrb	r3, [r7, #15]
}
 8003590:	4618      	mov	r0, r3
 8003592:	3714      	adds	r7, #20
 8003594:	46bd      	mov	sp, r7
 8003596:	f85d 7b04 	ldr.w	r7, [sp], #4
 800359a:	4770      	bx	lr

0800359c <USB_OTG_FlushTxFifo>:
* @param  pdev : Selected device
* @param  num : FO num
* @retval USB_OTG_STS : status
*/
USB_OTG_STS USB_OTG_FlushTxFifo (USB_OTG_CORE_HANDLE *pdev , uint32_t num )
{
 800359c:	b580      	push	{r7, lr}
 800359e:	b086      	sub	sp, #24
 80035a0:	af00      	add	r7, sp, #0
 80035a2:	6078      	str	r0, [r7, #4]
 80035a4:	6039      	str	r1, [r7, #0]
  USB_OTG_STS status = USB_OTG_OK;
 80035a6:	2300      	movs	r3, #0
 80035a8:	74fb      	strb	r3, [r7, #19]
  __IO USB_OTG_GRSTCTL_TypeDef  greset;
  
  uint32_t count = 0;
 80035aa:	2300      	movs	r3, #0
 80035ac:	617b      	str	r3, [r7, #20]
  greset.d32 = 0;
 80035ae:	2300      	movs	r3, #0
 80035b0:	60fb      	str	r3, [r7, #12]
  greset.b.txfflsh = 1;
 80035b2:	68fb      	ldr	r3, [r7, #12]
 80035b4:	f043 0320 	orr.w	r3, r3, #32
 80035b8:	60fb      	str	r3, [r7, #12]
  greset.b.txfnum  = num;
 80035ba:	683b      	ldr	r3, [r7, #0]
 80035bc:	b2db      	uxtb	r3, r3
 80035be:	f003 031f 	and.w	r3, r3, #31
 80035c2:	b2da      	uxtb	r2, r3
 80035c4:	68fb      	ldr	r3, [r7, #12]
 80035c6:	f362 138a 	bfi	r3, r2, #6, #5
 80035ca:	60fb      	str	r3, [r7, #12]
  USB_OTG_WRITE_REG32( &pdev->regs.GREGS->GRSTCTL, greset.d32 );
 80035cc:	687b      	ldr	r3, [r7, #4]
 80035ce:	68db      	ldr	r3, [r3, #12]
 80035d0:	68fa      	ldr	r2, [r7, #12]
 80035d2:	611a      	str	r2, [r3, #16]
  do
  {
    greset.d32 = USB_OTG_READ_REG32( &pdev->regs.GREGS->GRSTCTL);
 80035d4:	687b      	ldr	r3, [r7, #4]
 80035d6:	68db      	ldr	r3, [r3, #12]
 80035d8:	691b      	ldr	r3, [r3, #16]
 80035da:	60fb      	str	r3, [r7, #12]
    if (++count > 200000)
 80035dc:	697b      	ldr	r3, [r7, #20]
 80035de:	3301      	adds	r3, #1
 80035e0:	617b      	str	r3, [r7, #20]
 80035e2:	697b      	ldr	r3, [r7, #20]
 80035e4:	4a09      	ldr	r2, [pc, #36]	; (800360c <USB_OTG_FlushTxFifo+0x70>)
 80035e6:	4293      	cmp	r3, r2
 80035e8:	d806      	bhi.n	80035f8 <USB_OTG_FlushTxFifo+0x5c>
    {
      break;
    }
  }
  while (greset.b.txfflsh == 1);
 80035ea:	68fb      	ldr	r3, [r7, #12]
 80035ec:	f3c3 1340 	ubfx	r3, r3, #5, #1
 80035f0:	b2db      	uxtb	r3, r3
 80035f2:	2b01      	cmp	r3, #1
 80035f4:	d0ee      	beq.n	80035d4 <USB_OTG_FlushTxFifo+0x38>
 80035f6:	e000      	b.n	80035fa <USB_OTG_FlushTxFifo+0x5e>
  do
  {
    greset.d32 = USB_OTG_READ_REG32( &pdev->regs.GREGS->GRSTCTL);
    if (++count > 200000)
    {
      break;
 80035f8:	bf00      	nop
    }
  }
  while (greset.b.txfflsh == 1);
  /* Wait for 3 PHY Clocks*/
  USB_OTG_BSP_uDelay(3);
 80035fa:	2003      	movs	r0, #3
 80035fc:	f002 fa8e 	bl	8005b1c <USB_OTG_BSP_uDelay>
  return status;
 8003600:	7cfb      	ldrb	r3, [r7, #19]
}
 8003602:	4618      	mov	r0, r3
 8003604:	3718      	adds	r7, #24
 8003606:	46bd      	mov	sp, r7
 8003608:	bd80      	pop	{r7, pc}
 800360a:	bf00      	nop
 800360c:	00030d40 	.word	0x00030d40

08003610 <USB_OTG_FlushRxFifo>:
* @brief  USB_OTG_FlushRxFifo : Flush a Rx FIFO
* @param  pdev : Selected device
* @retval USB_OTG_STS : status
*/
USB_OTG_STS USB_OTG_FlushRxFifo( USB_OTG_CORE_HANDLE *pdev )
{
 8003610:	b580      	push	{r7, lr}
 8003612:	b086      	sub	sp, #24
 8003614:	af00      	add	r7, sp, #0
 8003616:	6078      	str	r0, [r7, #4]
  USB_OTG_STS status = USB_OTG_OK;
 8003618:	2300      	movs	r3, #0
 800361a:	74fb      	strb	r3, [r7, #19]
  __IO USB_OTG_GRSTCTL_TypeDef  greset;
  uint32_t count = 0;
 800361c:	2300      	movs	r3, #0
 800361e:	617b      	str	r3, [r7, #20]
  
  greset.d32 = 0;
 8003620:	2300      	movs	r3, #0
 8003622:	60fb      	str	r3, [r7, #12]
  greset.b.rxfflsh = 1;
 8003624:	68fb      	ldr	r3, [r7, #12]
 8003626:	f043 0310 	orr.w	r3, r3, #16
 800362a:	60fb      	str	r3, [r7, #12]
  USB_OTG_WRITE_REG32( &pdev->regs.GREGS->GRSTCTL, greset.d32 );
 800362c:	687b      	ldr	r3, [r7, #4]
 800362e:	68db      	ldr	r3, [r3, #12]
 8003630:	68fa      	ldr	r2, [r7, #12]
 8003632:	611a      	str	r2, [r3, #16]
  do
  {
    greset.d32 = USB_OTG_READ_REG32( &pdev->regs.GREGS->GRSTCTL);
 8003634:	687b      	ldr	r3, [r7, #4]
 8003636:	68db      	ldr	r3, [r3, #12]
 8003638:	691b      	ldr	r3, [r3, #16]
 800363a:	60fb      	str	r3, [r7, #12]
    if (++count > 200000)
 800363c:	697b      	ldr	r3, [r7, #20]
 800363e:	3301      	adds	r3, #1
 8003640:	617b      	str	r3, [r7, #20]
 8003642:	697b      	ldr	r3, [r7, #20]
 8003644:	4a09      	ldr	r2, [pc, #36]	; (800366c <USB_OTG_FlushRxFifo+0x5c>)
 8003646:	4293      	cmp	r3, r2
 8003648:	d806      	bhi.n	8003658 <USB_OTG_FlushRxFifo+0x48>
    {
      break;
    }
  }
  while (greset.b.rxfflsh == 1);
 800364a:	68fb      	ldr	r3, [r7, #12]
 800364c:	f3c3 1300 	ubfx	r3, r3, #4, #1
 8003650:	b2db      	uxtb	r3, r3
 8003652:	2b01      	cmp	r3, #1
 8003654:	d0ee      	beq.n	8003634 <USB_OTG_FlushRxFifo+0x24>
 8003656:	e000      	b.n	800365a <USB_OTG_FlushRxFifo+0x4a>
  do
  {
    greset.d32 = USB_OTG_READ_REG32( &pdev->regs.GREGS->GRSTCTL);
    if (++count > 200000)
    {
      break;
 8003658:	bf00      	nop
    }
  }
  while (greset.b.rxfflsh == 1);
  /* Wait for 3 PHY Clocks*/
  USB_OTG_BSP_uDelay(3);
 800365a:	2003      	movs	r0, #3
 800365c:	f002 fa5e 	bl	8005b1c <USB_OTG_BSP_uDelay>
  return status;
 8003660:	7cfb      	ldrb	r3, [r7, #19]
}
 8003662:	4618      	mov	r0, r3
 8003664:	3718      	adds	r7, #24
 8003666:	46bd      	mov	sp, r7
 8003668:	bd80      	pop	{r7, pc}
 800366a:	bf00      	nop
 800366c:	00030d40 	.word	0x00030d40

08003670 <USB_OTG_SetCurrentMode>:
* @param  pdev : Selected device
* @param  mode :  (Host/device)
* @retval USB_OTG_STS : status
*/
USB_OTG_STS USB_OTG_SetCurrentMode(USB_OTG_CORE_HANDLE *pdev , uint8_t mode)
{
 8003670:	b580      	push	{r7, lr}
 8003672:	b084      	sub	sp, #16
 8003674:	af00      	add	r7, sp, #0
 8003676:	6078      	str	r0, [r7, #4]
 8003678:	460b      	mov	r3, r1
 800367a:	70fb      	strb	r3, [r7, #3]
  USB_OTG_STS status = USB_OTG_OK;
 800367c:	2300      	movs	r3, #0
 800367e:	73fb      	strb	r3, [r7, #15]
  USB_OTG_GUSBCFG_TypeDef  usbcfg;
  
  usbcfg.d32 = USB_OTG_READ_REG32(&pdev->regs.GREGS->GUSBCFG);
 8003680:	687b      	ldr	r3, [r7, #4]
 8003682:	68db      	ldr	r3, [r3, #12]
 8003684:	68db      	ldr	r3, [r3, #12]
 8003686:	60bb      	str	r3, [r7, #8]
  
  usbcfg.b.force_host = 0;
 8003688:	7afb      	ldrb	r3, [r7, #11]
 800368a:	f36f 1345 	bfc	r3, #5, #1
 800368e:	72fb      	strb	r3, [r7, #11]
  usbcfg.b.force_dev = 0;
 8003690:	7afb      	ldrb	r3, [r7, #11]
 8003692:	f36f 1386 	bfc	r3, #6, #1
 8003696:	72fb      	strb	r3, [r7, #11]
  
  if ( mode == HOST_MODE)
 8003698:	78fb      	ldrb	r3, [r7, #3]
 800369a:	2b01      	cmp	r3, #1
 800369c:	d104      	bne.n	80036a8 <USB_OTG_SetCurrentMode+0x38>
  {
    usbcfg.b.force_host = 1;
 800369e:	7afb      	ldrb	r3, [r7, #11]
 80036a0:	f043 0320 	orr.w	r3, r3, #32
 80036a4:	72fb      	strb	r3, [r7, #11]
 80036a6:	e006      	b.n	80036b6 <USB_OTG_SetCurrentMode+0x46>
  }
  else if ( mode == DEVICE_MODE)
 80036a8:	78fb      	ldrb	r3, [r7, #3]
 80036aa:	2b00      	cmp	r3, #0
 80036ac:	d103      	bne.n	80036b6 <USB_OTG_SetCurrentMode+0x46>
  {
    usbcfg.b.force_dev = 1;
 80036ae:	7afb      	ldrb	r3, [r7, #11]
 80036b0:	f043 0340 	orr.w	r3, r3, #64	; 0x40
 80036b4:	72fb      	strb	r3, [r7, #11]
  }
  
  USB_OTG_WRITE_REG32(&pdev->regs.GREGS->GUSBCFG, usbcfg.d32);
 80036b6:	687b      	ldr	r3, [r7, #4]
 80036b8:	68db      	ldr	r3, [r3, #12]
 80036ba:	68ba      	ldr	r2, [r7, #8]
 80036bc:	60da      	str	r2, [r3, #12]
  USB_OTG_BSP_mDelay(50);
 80036be:	2032      	movs	r0, #50	; 0x32
 80036c0:	f002 fa50 	bl	8005b64 <USB_OTG_BSP_mDelay>
  return status;
 80036c4:	7bfb      	ldrb	r3, [r7, #15]
}
 80036c6:	4618      	mov	r0, r3
 80036c8:	3710      	adds	r7, #16
 80036ca:	46bd      	mov	sp, r7
 80036cc:	bd80      	pop	{r7, pc}
 80036ce:	bf00      	nop

080036d0 <USB_OTG_GetMode>:
* @brief  USB_OTG_GetMode : Get current mode
* @param  pdev : Selected device
* @retval current mode
*/
uint32_t USB_OTG_GetMode(USB_OTG_CORE_HANDLE *pdev)
{
 80036d0:	b480      	push	{r7}
 80036d2:	b083      	sub	sp, #12
 80036d4:	af00      	add	r7, sp, #0
 80036d6:	6078      	str	r0, [r7, #4]
  return (USB_OTG_READ_REG32(&pdev->regs.GREGS->GINTSTS ) & 0x1);
 80036d8:	687b      	ldr	r3, [r7, #4]
 80036da:	68db      	ldr	r3, [r3, #12]
 80036dc:	695b      	ldr	r3, [r3, #20]
 80036de:	f003 0301 	and.w	r3, r3, #1
}
 80036e2:	4618      	mov	r0, r3
 80036e4:	370c      	adds	r7, #12
 80036e6:	46bd      	mov	sp, r7
 80036e8:	f85d 7b04 	ldr.w	r7, [sp], #4
 80036ec:	4770      	bx	lr
 80036ee:	bf00      	nop

080036f0 <USB_OTG_IsDeviceMode>:
* @brief  USB_OTG_IsDeviceMode : Check if it is device mode
* @param  pdev : Selected device
* @retval num_in_ep
*/
uint8_t USB_OTG_IsDeviceMode(USB_OTG_CORE_HANDLE *pdev)
{
 80036f0:	b580      	push	{r7, lr}
 80036f2:	b082      	sub	sp, #8
 80036f4:	af00      	add	r7, sp, #0
 80036f6:	6078      	str	r0, [r7, #4]
  return (USB_OTG_GetMode(pdev) != HOST_MODE);
 80036f8:	6878      	ldr	r0, [r7, #4]
 80036fa:	f7ff ffe9 	bl	80036d0 <USB_OTG_GetMode>
 80036fe:	4603      	mov	r3, r0
 8003700:	2b01      	cmp	r3, #1
 8003702:	bf14      	ite	ne
 8003704:	2301      	movne	r3, #1
 8003706:	2300      	moveq	r3, #0
 8003708:	b2db      	uxtb	r3, r3
}
 800370a:	4618      	mov	r0, r3
 800370c:	3708      	adds	r7, #8
 800370e:	46bd      	mov	sp, r7
 8003710:	bd80      	pop	{r7, pc}
 8003712:	bf00      	nop

08003714 <USB_OTG_ReadCoreItr>:
* @brief  USB_OTG_ReadCoreItr : returns the Core Interrupt register
* @param  pdev : Selected device
* @retval Status
*/
uint32_t USB_OTG_ReadCoreItr(USB_OTG_CORE_HANDLE *pdev)
{
 8003714:	b480      	push	{r7}
 8003716:	b085      	sub	sp, #20
 8003718:	af00      	add	r7, sp, #0
 800371a:	6078      	str	r0, [r7, #4]
  uint32_t v = 0;
 800371c:	2300      	movs	r3, #0
 800371e:	60fb      	str	r3, [r7, #12]
  v = USB_OTG_READ_REG32(&pdev->regs.GREGS->GINTSTS);
 8003720:	687b      	ldr	r3, [r7, #4]
 8003722:	68db      	ldr	r3, [r3, #12]
 8003724:	695b      	ldr	r3, [r3, #20]
 8003726:	60fb      	str	r3, [r7, #12]
  v &= USB_OTG_READ_REG32(&pdev->regs.GREGS->GINTMSK);
 8003728:	687b      	ldr	r3, [r7, #4]
 800372a:	68db      	ldr	r3, [r3, #12]
 800372c:	699b      	ldr	r3, [r3, #24]
 800372e:	68fa      	ldr	r2, [r7, #12]
 8003730:	4013      	ands	r3, r2
 8003732:	60fb      	str	r3, [r7, #12]
  return v;
 8003734:	68fb      	ldr	r3, [r7, #12]
}
 8003736:	4618      	mov	r0, r3
 8003738:	3714      	adds	r7, #20
 800373a:	46bd      	mov	sp, r7
 800373c:	f85d 7b04 	ldr.w	r7, [sp], #4
 8003740:	4770      	bx	lr
 8003742:	bf00      	nop

08003744 <USB_OTG_InitDevSpeed>:
*         depending the PHY type and the enumeration speed of the device.
* @param  pdev : Selected device
* @retval : None
*/
void USB_OTG_InitDevSpeed(USB_OTG_CORE_HANDLE *pdev , uint8_t speed)
{
 8003744:	b480      	push	{r7}
 8003746:	b085      	sub	sp, #20
 8003748:	af00      	add	r7, sp, #0
 800374a:	6078      	str	r0, [r7, #4]
 800374c:	460b      	mov	r3, r1
 800374e:	70fb      	strb	r3, [r7, #3]
  USB_OTG_DCFG_TypeDef   dcfg;
  
  dcfg.d32 = USB_OTG_READ_REG32(&pdev->regs.DREGS->DCFG);
 8003750:	687b      	ldr	r3, [r7, #4]
 8003752:	691b      	ldr	r3, [r3, #16]
 8003754:	681b      	ldr	r3, [r3, #0]
 8003756:	60fb      	str	r3, [r7, #12]
  dcfg.b.devspd = speed;
 8003758:	78fb      	ldrb	r3, [r7, #3]
 800375a:	f003 0303 	and.w	r3, r3, #3
 800375e:	b2da      	uxtb	r2, r3
 8003760:	7b3b      	ldrb	r3, [r7, #12]
 8003762:	f362 0301 	bfi	r3, r2, #0, #2
 8003766:	733b      	strb	r3, [r7, #12]
  USB_OTG_WRITE_REG32(&pdev->regs.DREGS->DCFG, dcfg.d32);
 8003768:	687b      	ldr	r3, [r7, #4]
 800376a:	691b      	ldr	r3, [r3, #16]
 800376c:	68fa      	ldr	r2, [r7, #12]
 800376e:	601a      	str	r2, [r3, #0]
}
 8003770:	bf00      	nop
 8003772:	3714      	adds	r7, #20
 8003774:	46bd      	mov	sp, r7
 8003776:	f85d 7b04 	ldr.w	r7, [sp], #4
 800377a:	4770      	bx	lr

0800377c <USB_OTG_CoreInitDev>:
*         for device mode
* @param  pdev : Selected device
* @retval USB_OTG_STS : status
*/
USB_OTG_STS USB_OTG_CoreInitDev (USB_OTG_CORE_HANDLE *pdev)
{
 800377c:	b580      	push	{r7, lr}
 800377e:	b08c      	sub	sp, #48	; 0x30
 8003780:	af00      	add	r7, sp, #0
 8003782:	6078      	str	r0, [r7, #4]
  USB_OTG_STS             status       = USB_OTG_OK;
 8003784:	2300      	movs	r3, #0
 8003786:	f887 302b 	strb.w	r3, [r7, #43]	; 0x2b
  USB_OTG_FSIZ_TypeDef    nptxfifosize;
  USB_OTG_FSIZ_TypeDef    txfifosize;
  USB_OTG_DIEPMSK_TypeDef msk;
  USB_OTG_DTHRCTL_TypeDef dthrctl;  
  
  depctl.d32 = 0;
 800378a:	2300      	movs	r3, #0
 800378c:	627b      	str	r3, [r7, #36]	; 0x24
  dcfg.d32 = 0;
 800378e:	2300      	movs	r3, #0
 8003790:	623b      	str	r3, [r7, #32]
  nptxfifosize.d32 = 0;
 8003792:	2300      	movs	r3, #0
 8003794:	61fb      	str	r3, [r7, #28]
  txfifosize.d32 = 0;
 8003796:	2300      	movs	r3, #0
 8003798:	61bb      	str	r3, [r7, #24]
  msk.d32 = 0;
 800379a:	2300      	movs	r3, #0
 800379c:	617b      	str	r3, [r7, #20]
  
  /* Restart the Phy Clock */
  USB_OTG_WRITE_REG32(pdev->regs.PCGCCTL, 0);
 800379e:	687b      	ldr	r3, [r7, #4]
 80037a0:	f8d3 310c 	ldr.w	r3, [r3, #268]	; 0x10c
 80037a4:	2200      	movs	r2, #0
 80037a6:	601a      	str	r2, [r3, #0]
  /* Device configuration register */
  dcfg.d32 = USB_OTG_READ_REG32( &pdev->regs.DREGS->DCFG);
 80037a8:	687b      	ldr	r3, [r7, #4]
 80037aa:	691b      	ldr	r3, [r3, #16]
 80037ac:	681b      	ldr	r3, [r3, #0]
 80037ae:	623b      	str	r3, [r7, #32]
  dcfg.b.perfrint = DCFG_FRAME_INTERVAL_80;
 80037b0:	f897 3021 	ldrb.w	r3, [r7, #33]	; 0x21
 80037b4:	f36f 03c4 	bfc	r3, #3, #2
 80037b8:	f887 3021 	strb.w	r3, [r7, #33]	; 0x21
  USB_OTG_WRITE_REG32( &pdev->regs.DREGS->DCFG, dcfg.d32 );
 80037bc:	687b      	ldr	r3, [r7, #4]
 80037be:	691b      	ldr	r3, [r3, #16]
 80037c0:	6a3a      	ldr	r2, [r7, #32]
 80037c2:	601a      	str	r2, [r3, #0]
  
#ifdef USB_OTG_FS_CORE
  if(pdev->cfg.coreID == USB_OTG_FS_CORE_ID  )
 80037c4:	687b      	ldr	r3, [r7, #4]
 80037c6:	7adb      	ldrb	r3, [r3, #11]
 80037c8:	2b01      	cmp	r3, #1
 80037ca:	d133      	bne.n	8003834 <USB_OTG_CoreInitDev+0xb8>
  {  
    
    /* Set Full speed phy */
    USB_OTG_InitDevSpeed (pdev , USB_OTG_SPEED_PARAM_FULL);
 80037cc:	2103      	movs	r1, #3
 80037ce:	6878      	ldr	r0, [r7, #4]
 80037d0:	f7ff ffb8 	bl	8003744 <USB_OTG_InitDevSpeed>
    
    /* set Rx FIFO size */
    USB_OTG_WRITE_REG32(&pdev->regs.GREGS->GRXFSIZ, RX_FIFO_FS_SIZE);
 80037d4:	687b      	ldr	r3, [r7, #4]
 80037d6:	68db      	ldr	r3, [r3, #12]
 80037d8:	2280      	movs	r2, #128	; 0x80
 80037da:	625a      	str	r2, [r3, #36]	; 0x24
    
    /* EP0 TX*/
    nptxfifosize.b.depth     = TX0_FIFO_FS_SIZE;
 80037dc:	2340      	movs	r3, #64	; 0x40
 80037de:	83fb      	strh	r3, [r7, #30]
    nptxfifosize.b.startaddr = RX_FIFO_FS_SIZE;
 80037e0:	2380      	movs	r3, #128	; 0x80
 80037e2:	83bb      	strh	r3, [r7, #28]
    USB_OTG_WRITE_REG32( &pdev->regs.GREGS->DIEPTXF0_HNPTXFSIZ, nptxfifosize.d32 );
 80037e4:	687b      	ldr	r3, [r7, #4]
 80037e6:	68db      	ldr	r3, [r3, #12]
 80037e8:	69fa      	ldr	r2, [r7, #28]
 80037ea:	629a      	str	r2, [r3, #40]	; 0x28
    
    
    /* EP1 TX*/
    txfifosize.b.startaddr = nptxfifosize.b.startaddr + nptxfifosize.b.depth;
 80037ec:	8bba      	ldrh	r2, [r7, #28]
 80037ee:	8bfb      	ldrh	r3, [r7, #30]
 80037f0:	4413      	add	r3, r2
 80037f2:	b29b      	uxth	r3, r3
 80037f4:	833b      	strh	r3, [r7, #24]
    txfifosize.b.depth = TX1_FIFO_FS_SIZE;
 80037f6:	2380      	movs	r3, #128	; 0x80
 80037f8:	837b      	strh	r3, [r7, #26]
    USB_OTG_WRITE_REG32( &pdev->regs.GREGS->DIEPTXF[0], txfifosize.d32 );
 80037fa:	687b      	ldr	r3, [r7, #4]
 80037fc:	68db      	ldr	r3, [r3, #12]
 80037fe:	69ba      	ldr	r2, [r7, #24]
 8003800:	f8c3 2104 	str.w	r2, [r3, #260]	; 0x104
    
    
    /* EP2 TX*/
    txfifosize.b.startaddr += txfifosize.b.depth;
 8003804:	8b3a      	ldrh	r2, [r7, #24]
 8003806:	8b7b      	ldrh	r3, [r7, #26]
 8003808:	4413      	add	r3, r2
 800380a:	b29b      	uxth	r3, r3
 800380c:	833b      	strh	r3, [r7, #24]
    txfifosize.b.depth = TX2_FIFO_FS_SIZE;
 800380e:	2300      	movs	r3, #0
 8003810:	837b      	strh	r3, [r7, #26]
    USB_OTG_WRITE_REG32( &pdev->regs.GREGS->DIEPTXF[1], txfifosize.d32 );
 8003812:	687b      	ldr	r3, [r7, #4]
 8003814:	68db      	ldr	r3, [r3, #12]
 8003816:	69ba      	ldr	r2, [r7, #24]
 8003818:	f8c3 2108 	str.w	r2, [r3, #264]	; 0x108
    
    
    /* EP3 TX*/  
    txfifosize.b.startaddr += txfifosize.b.depth;
 800381c:	8b3a      	ldrh	r2, [r7, #24]
 800381e:	8b7b      	ldrh	r3, [r7, #26]
 8003820:	4413      	add	r3, r2
 8003822:	b29b      	uxth	r3, r3
 8003824:	833b      	strh	r3, [r7, #24]
    txfifosize.b.depth = TX3_FIFO_FS_SIZE;
 8003826:	2300      	movs	r3, #0
 8003828:	837b      	strh	r3, [r7, #26]
    USB_OTG_WRITE_REG32( &pdev->regs.GREGS->DIEPTXF[2], txfifosize.d32 );
 800382a:	687b      	ldr	r3, [r7, #4]
 800382c:	68db      	ldr	r3, [r3, #12]
 800382e:	69ba      	ldr	r2, [r7, #24]
 8003830:	f8c3 210c 	str.w	r2, [r3, #268]	; 0x10c
    txfifosize.b.depth = TX5_FIFO_HS_SIZE;
    USB_OTG_WRITE_REG32( &pdev->regs.GREGS->DIEPTXF[4], txfifosize.d32 );
  }
#endif  
  /* Flush the FIFOs */
  USB_OTG_FlushTxFifo(pdev , 0x10); /* all Tx FIFOs */
 8003834:	2110      	movs	r1, #16
 8003836:	6878      	ldr	r0, [r7, #4]
 8003838:	f7ff feb0 	bl	800359c <USB_OTG_FlushTxFifo>
  USB_OTG_FlushRxFifo(pdev);
 800383c:	6878      	ldr	r0, [r7, #4]
 800383e:	f7ff fee7 	bl	8003610 <USB_OTG_FlushRxFifo>
  /* Clear all pending Device Interrupts */
  USB_OTG_WRITE_REG32( &pdev->regs.DREGS->DIEPMSK, 0 );
 8003842:	687b      	ldr	r3, [r7, #4]
 8003844:	691b      	ldr	r3, [r3, #16]
 8003846:	2200      	movs	r2, #0
 8003848:	611a      	str	r2, [r3, #16]
  USB_OTG_WRITE_REG32( &pdev->regs.DREGS->DOEPMSK, 0 );
 800384a:	687b      	ldr	r3, [r7, #4]
 800384c:	691b      	ldr	r3, [r3, #16]
 800384e:	2200      	movs	r2, #0
 8003850:	615a      	str	r2, [r3, #20]
  USB_OTG_WRITE_REG32( &pdev->regs.DREGS->DAINT, 0xFFFFFFFF );
 8003852:	687b      	ldr	r3, [r7, #4]
 8003854:	691b      	ldr	r3, [r3, #16]
 8003856:	f04f 32ff 	mov.w	r2, #4294967295
 800385a:	619a      	str	r2, [r3, #24]
  USB_OTG_WRITE_REG32( &pdev->regs.DREGS->DAINTMSK, 0 );
 800385c:	687b      	ldr	r3, [r7, #4]
 800385e:	691b      	ldr	r3, [r3, #16]
 8003860:	2200      	movs	r2, #0
 8003862:	61da      	str	r2, [r3, #28]
  
  for (i = 0; i < pdev->cfg.dev_endpoints; i++)
 8003864:	2300      	movs	r3, #0
 8003866:	62fb      	str	r3, [r7, #44]	; 0x2c
 8003868:	e03a      	b.n	80038e0 <USB_OTG_CoreInitDev+0x164>
  {
    depctl.d32 = USB_OTG_READ_REG32(&pdev->regs.INEP_REGS[i]->DIEPCTL);
 800386a:	687a      	ldr	r2, [r7, #4]
 800386c:	6afb      	ldr	r3, [r7, #44]	; 0x2c
 800386e:	3304      	adds	r3, #4
 8003870:	009b      	lsls	r3, r3, #2
 8003872:	4413      	add	r3, r2
 8003874:	689b      	ldr	r3, [r3, #8]
 8003876:	681b      	ldr	r3, [r3, #0]
 8003878:	627b      	str	r3, [r7, #36]	; 0x24
    if (depctl.b.epena)
 800387a:	f897 3027 	ldrb.w	r3, [r7, #39]	; 0x27
 800387e:	f023 037f 	bic.w	r3, r3, #127	; 0x7f
 8003882:	b2db      	uxtb	r3, r3
 8003884:	2b00      	cmp	r3, #0
 8003886:	d00e      	beq.n	80038a6 <USB_OTG_CoreInitDev+0x12a>
    {
      depctl.d32 = 0;
 8003888:	2300      	movs	r3, #0
 800388a:	627b      	str	r3, [r7, #36]	; 0x24
      depctl.b.epdis = 1;
 800388c:	f897 3027 	ldrb.w	r3, [r7, #39]	; 0x27
 8003890:	f043 0340 	orr.w	r3, r3, #64	; 0x40
 8003894:	f887 3027 	strb.w	r3, [r7, #39]	; 0x27
      depctl.b.snak = 1;
 8003898:	f897 3027 	ldrb.w	r3, [r7, #39]	; 0x27
 800389c:	f043 0308 	orr.w	r3, r3, #8
 80038a0:	f887 3027 	strb.w	r3, [r7, #39]	; 0x27
 80038a4:	e001      	b.n	80038aa <USB_OTG_CoreInitDev+0x12e>
    }
    else
    {
      depctl.d32 = 0;
 80038a6:	2300      	movs	r3, #0
 80038a8:	627b      	str	r3, [r7, #36]	; 0x24
    }
    USB_OTG_WRITE_REG32( &pdev->regs.INEP_REGS[i]->DIEPCTL, depctl.d32);
 80038aa:	687a      	ldr	r2, [r7, #4]
 80038ac:	6afb      	ldr	r3, [r7, #44]	; 0x2c
 80038ae:	3304      	adds	r3, #4
 80038b0:	009b      	lsls	r3, r3, #2
 80038b2:	4413      	add	r3, r2
 80038b4:	689b      	ldr	r3, [r3, #8]
 80038b6:	6a7a      	ldr	r2, [r7, #36]	; 0x24
 80038b8:	601a      	str	r2, [r3, #0]
    USB_OTG_WRITE_REG32( &pdev->regs.INEP_REGS[i]->DIEPTSIZ, 0);
 80038ba:	687a      	ldr	r2, [r7, #4]
 80038bc:	6afb      	ldr	r3, [r7, #44]	; 0x2c
 80038be:	3304      	adds	r3, #4
 80038c0:	009b      	lsls	r3, r3, #2
 80038c2:	4413      	add	r3, r2
 80038c4:	689b      	ldr	r3, [r3, #8]
 80038c6:	2200      	movs	r2, #0
 80038c8:	611a      	str	r2, [r3, #16]
    USB_OTG_WRITE_REG32( &pdev->regs.INEP_REGS[i]->DIEPINT, 0xFF);
 80038ca:	687a      	ldr	r2, [r7, #4]
 80038cc:	6afb      	ldr	r3, [r7, #44]	; 0x2c
 80038ce:	3304      	adds	r3, #4
 80038d0:	009b      	lsls	r3, r3, #2
 80038d2:	4413      	add	r3, r2
 80038d4:	689b      	ldr	r3, [r3, #8]
 80038d6:	22ff      	movs	r2, #255	; 0xff
 80038d8:	609a      	str	r2, [r3, #8]
  USB_OTG_WRITE_REG32( &pdev->regs.DREGS->DIEPMSK, 0 );
  USB_OTG_WRITE_REG32( &pdev->regs.DREGS->DOEPMSK, 0 );
  USB_OTG_WRITE_REG32( &pdev->regs.DREGS->DAINT, 0xFFFFFFFF );
  USB_OTG_WRITE_REG32( &pdev->regs.DREGS->DAINTMSK, 0 );
  
  for (i = 0; i < pdev->cfg.dev_endpoints; i++)
 80038da:	6afb      	ldr	r3, [r7, #44]	; 0x2c
 80038dc:	3301      	adds	r3, #1
 80038de:	62fb      	str	r3, [r7, #44]	; 0x2c
 80038e0:	687b      	ldr	r3, [r7, #4]
 80038e2:	785b      	ldrb	r3, [r3, #1]
 80038e4:	461a      	mov	r2, r3
 80038e6:	6afb      	ldr	r3, [r7, #44]	; 0x2c
 80038e8:	429a      	cmp	r2, r3
 80038ea:	d8be      	bhi.n	800386a <USB_OTG_CoreInitDev+0xee>
    }
    USB_OTG_WRITE_REG32( &pdev->regs.INEP_REGS[i]->DIEPCTL, depctl.d32);
    USB_OTG_WRITE_REG32( &pdev->regs.INEP_REGS[i]->DIEPTSIZ, 0);
    USB_OTG_WRITE_REG32( &pdev->regs.INEP_REGS[i]->DIEPINT, 0xFF);
  }
  for (i = 0; i <  pdev->cfg.dev_endpoints; i++)
 80038ec:	2300      	movs	r3, #0
 80038ee:	62fb      	str	r3, [r7, #44]	; 0x2c
 80038f0:	e035      	b.n	800395e <USB_OTG_CoreInitDev+0x1e2>
  {
    USB_OTG_DEPCTL_TypeDef  depctl;
    depctl.d32 = USB_OTG_READ_REG32(&pdev->regs.OUTEP_REGS[i]->DOEPCTL);
 80038f2:	687a      	ldr	r2, [r7, #4]
 80038f4:	6afb      	ldr	r3, [r7, #44]	; 0x2c
 80038f6:	3314      	adds	r3, #20
 80038f8:	009b      	lsls	r3, r3, #2
 80038fa:	4413      	add	r3, r2
 80038fc:	685b      	ldr	r3, [r3, #4]
 80038fe:	681b      	ldr	r3, [r3, #0]
 8003900:	60fb      	str	r3, [r7, #12]
    if (depctl.b.epena)
 8003902:	7bfb      	ldrb	r3, [r7, #15]
 8003904:	f023 037f 	bic.w	r3, r3, #127	; 0x7f
 8003908:	b2db      	uxtb	r3, r3
 800390a:	2b00      	cmp	r3, #0
 800390c:	d00a      	beq.n	8003924 <USB_OTG_CoreInitDev+0x1a8>
    {
      depctl.d32 = 0;
 800390e:	2300      	movs	r3, #0
 8003910:	60fb      	str	r3, [r7, #12]
      depctl.b.epdis = 1;
 8003912:	7bfb      	ldrb	r3, [r7, #15]
 8003914:	f043 0340 	orr.w	r3, r3, #64	; 0x40
 8003918:	73fb      	strb	r3, [r7, #15]
      depctl.b.snak = 1;
 800391a:	7bfb      	ldrb	r3, [r7, #15]
 800391c:	f043 0308 	orr.w	r3, r3, #8
 8003920:	73fb      	strb	r3, [r7, #15]
 8003922:	e001      	b.n	8003928 <USB_OTG_CoreInitDev+0x1ac>
    }
    else
    {
      depctl.d32 = 0;
 8003924:	2300      	movs	r3, #0
 8003926:	60fb      	str	r3, [r7, #12]
    }
    USB_OTG_WRITE_REG32( &pdev->regs.OUTEP_REGS[i]->DOEPCTL, depctl.d32);
 8003928:	687a      	ldr	r2, [r7, #4]
 800392a:	6afb      	ldr	r3, [r7, #44]	; 0x2c
 800392c:	3314      	adds	r3, #20
 800392e:	009b      	lsls	r3, r3, #2
 8003930:	4413      	add	r3, r2
 8003932:	685b      	ldr	r3, [r3, #4]
 8003934:	68fa      	ldr	r2, [r7, #12]
 8003936:	601a      	str	r2, [r3, #0]
    USB_OTG_WRITE_REG32( &pdev->regs.OUTEP_REGS[i]->DOEPTSIZ, 0);
 8003938:	687a      	ldr	r2, [r7, #4]
 800393a:	6afb      	ldr	r3, [r7, #44]	; 0x2c
 800393c:	3314      	adds	r3, #20
 800393e:	009b      	lsls	r3, r3, #2
 8003940:	4413      	add	r3, r2
 8003942:	685b      	ldr	r3, [r3, #4]
 8003944:	2200      	movs	r2, #0
 8003946:	611a      	str	r2, [r3, #16]
    USB_OTG_WRITE_REG32( &pdev->regs.OUTEP_REGS[i]->DOEPINT, 0xFF);
 8003948:	687a      	ldr	r2, [r7, #4]
 800394a:	6afb      	ldr	r3, [r7, #44]	; 0x2c
 800394c:	3314      	adds	r3, #20
 800394e:	009b      	lsls	r3, r3, #2
 8003950:	4413      	add	r3, r2
 8003952:	685b      	ldr	r3, [r3, #4]
 8003954:	22ff      	movs	r2, #255	; 0xff
 8003956:	609a      	str	r2, [r3, #8]
    }
    USB_OTG_WRITE_REG32( &pdev->regs.INEP_REGS[i]->DIEPCTL, depctl.d32);
    USB_OTG_WRITE_REG32( &pdev->regs.INEP_REGS[i]->DIEPTSIZ, 0);
    USB_OTG_WRITE_REG32( &pdev->regs.INEP_REGS[i]->DIEPINT, 0xFF);
  }
  for (i = 0; i <  pdev->cfg.dev_endpoints; i++)
 8003958:	6afb      	ldr	r3, [r7, #44]	; 0x2c
 800395a:	3301      	adds	r3, #1
 800395c:	62fb      	str	r3, [r7, #44]	; 0x2c
 800395e:	687b      	ldr	r3, [r7, #4]
 8003960:	785b      	ldrb	r3, [r3, #1]
 8003962:	461a      	mov	r2, r3
 8003964:	6afb      	ldr	r3, [r7, #44]	; 0x2c
 8003966:	429a      	cmp	r2, r3
 8003968:	d8c3      	bhi.n	80038f2 <USB_OTG_CoreInitDev+0x176>
    }
    USB_OTG_WRITE_REG32( &pdev->regs.OUTEP_REGS[i]->DOEPCTL, depctl.d32);
    USB_OTG_WRITE_REG32( &pdev->regs.OUTEP_REGS[i]->DOEPTSIZ, 0);
    USB_OTG_WRITE_REG32( &pdev->regs.OUTEP_REGS[i]->DOEPINT, 0xFF);
  }
  msk.d32 = 0;
 800396a:	2300      	movs	r3, #0
 800396c:	617b      	str	r3, [r7, #20]
  msk.b.txfifoundrn = 1;
 800396e:	7d7b      	ldrb	r3, [r7, #21]
 8003970:	f043 0301 	orr.w	r3, r3, #1
 8003974:	757b      	strb	r3, [r7, #21]
  USB_OTG_MODIFY_REG32(&pdev->regs.DREGS->DIEPMSK, msk.d32, msk.d32);
 8003976:	687b      	ldr	r3, [r7, #4]
 8003978:	691b      	ldr	r3, [r3, #16]
 800397a:	687a      	ldr	r2, [r7, #4]
 800397c:	6912      	ldr	r2, [r2, #16]
 800397e:	6911      	ldr	r1, [r2, #16]
 8003980:	697a      	ldr	r2, [r7, #20]
 8003982:	43d2      	mvns	r2, r2
 8003984:	4011      	ands	r1, r2
 8003986:	697a      	ldr	r2, [r7, #20]
 8003988:	430a      	orrs	r2, r1
 800398a:	611a      	str	r2, [r3, #16]
  
  if (pdev->cfg.dma_enable == 1)
 800398c:	687b      	ldr	r3, [r7, #4]
 800398e:	78db      	ldrb	r3, [r3, #3]
 8003990:	2b01      	cmp	r3, #1
 8003992:	d11b      	bne.n	80039cc <USB_OTG_CoreInitDev+0x250>
  {
    dthrctl.d32 = 0;
 8003994:	2300      	movs	r3, #0
 8003996:	613b      	str	r3, [r7, #16]
    dthrctl.b.non_iso_thr_en = 1;
 8003998:	7c3b      	ldrb	r3, [r7, #16]
 800399a:	f043 0301 	orr.w	r3, r3, #1
 800399e:	743b      	strb	r3, [r7, #16]
    dthrctl.b.iso_thr_en = 1;
 80039a0:	7c3b      	ldrb	r3, [r7, #16]
 80039a2:	f043 0302 	orr.w	r3, r3, #2
 80039a6:	743b      	strb	r3, [r7, #16]
    dthrctl.b.tx_thr_len = 64;
 80039a8:	8a3b      	ldrh	r3, [r7, #16]
 80039aa:	2240      	movs	r2, #64	; 0x40
 80039ac:	f362 038a 	bfi	r3, r2, #2, #9
 80039b0:	823b      	strh	r3, [r7, #16]
    dthrctl.b.rx_thr_en = 1;
 80039b2:	7cbb      	ldrb	r3, [r7, #18]
 80039b4:	f043 0301 	orr.w	r3, r3, #1
 80039b8:	74bb      	strb	r3, [r7, #18]
    dthrctl.b.rx_thr_len = 64;
 80039ba:	8a7b      	ldrh	r3, [r7, #18]
 80039bc:	2240      	movs	r2, #64	; 0x40
 80039be:	f362 0349 	bfi	r3, r2, #1, #9
 80039c2:	827b      	strh	r3, [r7, #18]
    USB_OTG_WRITE_REG32(&pdev->regs.DREGS->DTHRCTL, dthrctl.d32);  
 80039c4:	687b      	ldr	r3, [r7, #4]
 80039c6:	691b      	ldr	r3, [r3, #16]
 80039c8:	693a      	ldr	r2, [r7, #16]
 80039ca:	631a      	str	r2, [r3, #48]	; 0x30
  }
  USB_OTG_EnableDevInt(pdev);
 80039cc:	6878      	ldr	r0, [r7, #4]
 80039ce:	f000 f807 	bl	80039e0 <USB_OTG_EnableDevInt>
  return status;
 80039d2:	f897 302b 	ldrb.w	r3, [r7, #43]	; 0x2b
}
 80039d6:	4618      	mov	r0, r3
 80039d8:	3730      	adds	r7, #48	; 0x30
 80039da:	46bd      	mov	sp, r7
 80039dc:	bd80      	pop	{r7, pc}
 80039de:	bf00      	nop

080039e0 <USB_OTG_EnableDevInt>:
* @brief  USB_OTG_EnableDevInt : Enables the Device mode interrupts
* @param  pdev : Selected device
* @retval USB_OTG_STS : status
*/
USB_OTG_STS USB_OTG_EnableDevInt(USB_OTG_CORE_HANDLE *pdev)
{
 80039e0:	b580      	push	{r7, lr}
 80039e2:	b084      	sub	sp, #16
 80039e4:	af00      	add	r7, sp, #0
 80039e6:	6078      	str	r0, [r7, #4]
  USB_OTG_STS status = USB_OTG_OK;
 80039e8:	2300      	movs	r3, #0
 80039ea:	73fb      	strb	r3, [r7, #15]
  USB_OTG_GINTMSK_TypeDef  intmsk;
  
  intmsk.d32 = 0;
 80039ec:	2300      	movs	r3, #0
 80039ee:	60bb      	str	r3, [r7, #8]
  
  /* Disable all interrupts. */
  USB_OTG_WRITE_REG32( &pdev->regs.GREGS->GINTMSK, 0);
 80039f0:	687b      	ldr	r3, [r7, #4]
 80039f2:	68db      	ldr	r3, [r3, #12]
 80039f4:	2200      	movs	r2, #0
 80039f6:	619a      	str	r2, [r3, #24]
  /* Clear any pending interrupts */
  USB_OTG_WRITE_REG32( &pdev->regs.GREGS->GINTSTS, 0xFFFFFFFF);
 80039f8:	687b      	ldr	r3, [r7, #4]
 80039fa:	68db      	ldr	r3, [r3, #12]
 80039fc:	f04f 32ff 	mov.w	r2, #4294967295
 8003a00:	615a      	str	r2, [r3, #20]
  /* Enable the common interrupts */
  USB_OTG_EnableCommonInt(pdev);
 8003a02:	6878      	ldr	r0, [r7, #4]
 8003a04:	f7ff fb18 	bl	8003038 <USB_OTG_EnableCommonInt>
  
  if (pdev->cfg.dma_enable == 0)
 8003a08:	687b      	ldr	r3, [r7, #4]
 8003a0a:	78db      	ldrb	r3, [r3, #3]
 8003a0c:	2b00      	cmp	r3, #0
 8003a0e:	d103      	bne.n	8003a18 <USB_OTG_EnableDevInt+0x38>
  {
    intmsk.b.rxstsqlvl = 1;
 8003a10:	7a3b      	ldrb	r3, [r7, #8]
 8003a12:	f043 0310 	orr.w	r3, r3, #16
 8003a16:	723b      	strb	r3, [r7, #8]
  }
  
  /* Enable interrupts matching to the Device mode ONLY */
  intmsk.b.usbsuspend = 1;
 8003a18:	7a7b      	ldrb	r3, [r7, #9]
 8003a1a:	f043 0308 	orr.w	r3, r3, #8
 8003a1e:	727b      	strb	r3, [r7, #9]
  intmsk.b.usbreset   = 1;
 8003a20:	7a7b      	ldrb	r3, [r7, #9]
 8003a22:	f043 0310 	orr.w	r3, r3, #16
 8003a26:	727b      	strb	r3, [r7, #9]
  intmsk.b.enumdone   = 1;
 8003a28:	7a7b      	ldrb	r3, [r7, #9]
 8003a2a:	f043 0320 	orr.w	r3, r3, #32
 8003a2e:	727b      	strb	r3, [r7, #9]
  intmsk.b.inepintr   = 1;
 8003a30:	7abb      	ldrb	r3, [r7, #10]
 8003a32:	f043 0304 	orr.w	r3, r3, #4
 8003a36:	72bb      	strb	r3, [r7, #10]
  intmsk.b.outepintr  = 1;
 8003a38:	7abb      	ldrb	r3, [r7, #10]
 8003a3a:	f043 0308 	orr.w	r3, r3, #8
 8003a3e:	72bb      	strb	r3, [r7, #10]
  intmsk.b.sofintr    = 1; 
 8003a40:	7a3b      	ldrb	r3, [r7, #8]
 8003a42:	f043 0308 	orr.w	r3, r3, #8
 8003a46:	723b      	strb	r3, [r7, #8]

  intmsk.b.incomplisoin    = 1; 
 8003a48:	7abb      	ldrb	r3, [r7, #10]
 8003a4a:	f043 0310 	orr.w	r3, r3, #16
 8003a4e:	72bb      	strb	r3, [r7, #10]
  intmsk.b.incomplisoout    = 1;   
 8003a50:	7abb      	ldrb	r3, [r7, #10]
 8003a52:	f043 0320 	orr.w	r3, r3, #32
 8003a56:	72bb      	strb	r3, [r7, #10]
#ifdef VBUS_SENSING_ENABLED
  intmsk.b.sessreqintr    = 1; 
  intmsk.b.otgintr    = 1;    
#endif  
  USB_OTG_MODIFY_REG32( &pdev->regs.GREGS->GINTMSK, intmsk.d32, intmsk.d32);
 8003a58:	687b      	ldr	r3, [r7, #4]
 8003a5a:	68db      	ldr	r3, [r3, #12]
 8003a5c:	687a      	ldr	r2, [r7, #4]
 8003a5e:	68d2      	ldr	r2, [r2, #12]
 8003a60:	6991      	ldr	r1, [r2, #24]
 8003a62:	68ba      	ldr	r2, [r7, #8]
 8003a64:	43d2      	mvns	r2, r2
 8003a66:	4011      	ands	r1, r2
 8003a68:	68ba      	ldr	r2, [r7, #8]
 8003a6a:	430a      	orrs	r2, r1
 8003a6c:	619a      	str	r2, [r3, #24]
  return status;
 8003a6e:	7bfb      	ldrb	r3, [r7, #15]
}
 8003a70:	4618      	mov	r0, r3
 8003a72:	3710      	adds	r7, #16
 8003a74:	46bd      	mov	sp, r7
 8003a76:	bd80      	pop	{r7, pc}

08003a78 <USB_OTG_GetDeviceSpeed>:
*         Get the device speed from the device status register
* @param  None
* @retval status
*/
enum USB_OTG_SPEED USB_OTG_GetDeviceSpeed (USB_OTG_CORE_HANDLE *pdev)
{
 8003a78:	b480      	push	{r7}
 8003a7a:	b085      	sub	sp, #20
 8003a7c:	af00      	add	r7, sp, #0
 8003a7e:	6078      	str	r0, [r7, #4]
  USB_OTG_DSTS_TypeDef  dsts;
  enum USB_OTG_SPEED speed = USB_SPEED_UNKNOWN;
 8003a80:	2300      	movs	r3, #0
 8003a82:	73fb      	strb	r3, [r7, #15]
  
  
  dsts.d32 = USB_OTG_READ_REG32(&pdev->regs.DREGS->DSTS);
 8003a84:	687b      	ldr	r3, [r7, #4]
 8003a86:	691b      	ldr	r3, [r3, #16]
 8003a88:	689b      	ldr	r3, [r3, #8]
 8003a8a:	60bb      	str	r3, [r7, #8]
  
  switch (dsts.b.enumspd)
 8003a8c:	7a3b      	ldrb	r3, [r7, #8]
 8003a8e:	f3c3 0341 	ubfx	r3, r3, #1, #2
 8003a92:	b2db      	uxtb	r3, r3
 8003a94:	2b02      	cmp	r3, #2
 8003a96:	d009      	beq.n	8003aac <USB_OTG_GetDeviceSpeed+0x34>
 8003a98:	2b03      	cmp	r3, #3
 8003a9a:	d004      	beq.n	8003aa6 <USB_OTG_GetDeviceSpeed+0x2e>
 8003a9c:	2b01      	cmp	r3, #1
 8003a9e:	d002      	beq.n	8003aa6 <USB_OTG_GetDeviceSpeed+0x2e>
  {
  case DSTS_ENUMSPD_HS_PHY_30MHZ_OR_60MHZ:
    speed = USB_SPEED_HIGH;
 8003aa0:	2303      	movs	r3, #3
 8003aa2:	73fb      	strb	r3, [r7, #15]
    break;
 8003aa4:	e005      	b.n	8003ab2 <USB_OTG_GetDeviceSpeed+0x3a>
  case DSTS_ENUMSPD_FS_PHY_30MHZ_OR_60MHZ:
  case DSTS_ENUMSPD_FS_PHY_48MHZ:
    speed = USB_SPEED_FULL;
 8003aa6:	2302      	movs	r3, #2
 8003aa8:	73fb      	strb	r3, [r7, #15]
    break;
 8003aaa:	e002      	b.n	8003ab2 <USB_OTG_GetDeviceSpeed+0x3a>
    
  case DSTS_ENUMSPD_LS_PHY_6MHZ:
    speed = USB_SPEED_LOW;
 8003aac:	2301      	movs	r3, #1
 8003aae:	73fb      	strb	r3, [r7, #15]
    break;
 8003ab0:	bf00      	nop
  }
  
  return speed;
 8003ab2:	7bfb      	ldrb	r3, [r7, #15]
}
 8003ab4:	4618      	mov	r0, r3
 8003ab6:	3714      	adds	r7, #20
 8003ab8:	46bd      	mov	sp, r7
 8003aba:	f85d 7b04 	ldr.w	r7, [sp], #4
 8003abe:	4770      	bx	lr

08003ac0 <USB_OTG_EP0Activate>:
*   for transmitting packets
* @param  None
* @retval USB_OTG_STS : status
*/
USB_OTG_STS  USB_OTG_EP0Activate(USB_OTG_CORE_HANDLE *pdev)
{
 8003ac0:	b480      	push	{r7}
 8003ac2:	b087      	sub	sp, #28
 8003ac4:	af00      	add	r7, sp, #0
 8003ac6:	6078      	str	r0, [r7, #4]
  USB_OTG_STS             status = USB_OTG_OK;
 8003ac8:	2300      	movs	r3, #0
 8003aca:	75fb      	strb	r3, [r7, #23]
  USB_OTG_DSTS_TypeDef    dsts;
  USB_OTG_DEPCTL_TypeDef  diepctl;
  USB_OTG_DCTL_TypeDef    dctl;
  
  dctl.d32 = 0;
 8003acc:	2300      	movs	r3, #0
 8003ace:	60bb      	str	r3, [r7, #8]
  /* Read the Device Status and Endpoint 0 Control registers */
  dsts.d32 = USB_OTG_READ_REG32(&pdev->regs.DREGS->DSTS);
 8003ad0:	687b      	ldr	r3, [r7, #4]
 8003ad2:	691b      	ldr	r3, [r3, #16]
 8003ad4:	689b      	ldr	r3, [r3, #8]
 8003ad6:	613b      	str	r3, [r7, #16]
  diepctl.d32 = USB_OTG_READ_REG32(&pdev->regs.INEP_REGS[0]->DIEPCTL);
 8003ad8:	687b      	ldr	r3, [r7, #4]
 8003ada:	699b      	ldr	r3, [r3, #24]
 8003adc:	681b      	ldr	r3, [r3, #0]
 8003ade:	60fb      	str	r3, [r7, #12]
  /* Set the MPS of the IN EP based on the enumeration speed */
  switch (dsts.b.enumspd)
 8003ae0:	7c3b      	ldrb	r3, [r7, #16]
 8003ae2:	f3c3 0341 	ubfx	r3, r3, #1, #2
 8003ae6:	b2db      	uxtb	r3, r3
 8003ae8:	2b02      	cmp	r3, #2
 8003aea:	d004      	beq.n	8003af6 <USB_OTG_EP0Activate+0x36>
  {
  case DSTS_ENUMSPD_HS_PHY_30MHZ_OR_60MHZ:
  case DSTS_ENUMSPD_FS_PHY_30MHZ_OR_60MHZ:
  case DSTS_ENUMSPD_FS_PHY_48MHZ:
    diepctl.b.mps = DEP0CTL_MPS_64;
 8003aec:	89bb      	ldrh	r3, [r7, #12]
 8003aee:	f36f 030a 	bfc	r3, #0, #11
 8003af2:	81bb      	strh	r3, [r7, #12]
    break;
 8003af4:	e005      	b.n	8003b02 <USB_OTG_EP0Activate+0x42>
  case DSTS_ENUMSPD_LS_PHY_6MHZ:
    diepctl.b.mps = DEP0CTL_MPS_8;
 8003af6:	89bb      	ldrh	r3, [r7, #12]
 8003af8:	2203      	movs	r2, #3
 8003afa:	f362 030a 	bfi	r3, r2, #0, #11
 8003afe:	81bb      	strh	r3, [r7, #12]
    break;
 8003b00:	bf00      	nop
  }
  USB_OTG_WRITE_REG32(&pdev->regs.INEP_REGS[0]->DIEPCTL, diepctl.d32);
 8003b02:	687b      	ldr	r3, [r7, #4]
 8003b04:	699b      	ldr	r3, [r3, #24]
 8003b06:	68fa      	ldr	r2, [r7, #12]
 8003b08:	601a      	str	r2, [r3, #0]
  dctl.b.cgnpinnak = 1;
 8003b0a:	7a7b      	ldrb	r3, [r7, #9]
 8003b0c:	f043 0301 	orr.w	r3, r3, #1
 8003b10:	727b      	strb	r3, [r7, #9]
  USB_OTG_MODIFY_REG32(&pdev->regs.DREGS->DCTL, dctl.d32, dctl.d32);
 8003b12:	687b      	ldr	r3, [r7, #4]
 8003b14:	691b      	ldr	r3, [r3, #16]
 8003b16:	687a      	ldr	r2, [r7, #4]
 8003b18:	6912      	ldr	r2, [r2, #16]
 8003b1a:	6851      	ldr	r1, [r2, #4]
 8003b1c:	68ba      	ldr	r2, [r7, #8]
 8003b1e:	43d2      	mvns	r2, r2
 8003b20:	4011      	ands	r1, r2
 8003b22:	68ba      	ldr	r2, [r7, #8]
 8003b24:	430a      	orrs	r2, r1
 8003b26:	605a      	str	r2, [r3, #4]
  return status;
 8003b28:	7dfb      	ldrb	r3, [r7, #23]
}
 8003b2a:	4618      	mov	r0, r3
 8003b2c:	371c      	adds	r7, #28
 8003b2e:	46bd      	mov	sp, r7
 8003b30:	f85d 7b04 	ldr.w	r7, [sp], #4
 8003b34:	4770      	bx	lr
 8003b36:	bf00      	nop

08003b38 <USB_OTG_EPActivate>:
* @brief  USB_OTG_EPActivate : Activates an EP
* @param  pdev : Selected device
* @retval USB_OTG_STS : status
*/
USB_OTG_STS USB_OTG_EPActivate(USB_OTG_CORE_HANDLE *pdev , USB_OTG_EP *ep)
{
 8003b38:	b480      	push	{r7}
 8003b3a:	b087      	sub	sp, #28
 8003b3c:	af00      	add	r7, sp, #0
 8003b3e:	6078      	str	r0, [r7, #4]
 8003b40:	6039      	str	r1, [r7, #0]
  USB_OTG_STS status = USB_OTG_OK;
 8003b42:	2300      	movs	r3, #0
 8003b44:	74fb      	strb	r3, [r7, #19]
  USB_OTG_DEPCTL_TypeDef  depctl;
  USB_OTG_DAINT_TypeDef  daintmsk;
  __IO uint32_t *addr;
  
  
  depctl.d32 = 0;
 8003b46:	2300      	movs	r3, #0
 8003b48:	60fb      	str	r3, [r7, #12]
  daintmsk.d32 = 0;
 8003b4a:	2300      	movs	r3, #0
 8003b4c:	60bb      	str	r3, [r7, #8]
  /* Read DEPCTLn register */
  if (ep->is_in == 1)
 8003b4e:	683b      	ldr	r3, [r7, #0]
 8003b50:	785b      	ldrb	r3, [r3, #1]
 8003b52:	2b01      	cmp	r3, #1
 8003b54:	d10f      	bne.n	8003b76 <USB_OTG_EPActivate+0x3e>
  {
    addr = &pdev->regs.INEP_REGS[ep->num]->DIEPCTL;
 8003b56:	683b      	ldr	r3, [r7, #0]
 8003b58:	781b      	ldrb	r3, [r3, #0]
 8003b5a:	687a      	ldr	r2, [r7, #4]
 8003b5c:	3304      	adds	r3, #4
 8003b5e:	009b      	lsls	r3, r3, #2
 8003b60:	4413      	add	r3, r2
 8003b62:	689b      	ldr	r3, [r3, #8]
 8003b64:	617b      	str	r3, [r7, #20]
    daintmsk.ep.in = 1 << ep->num;
 8003b66:	683b      	ldr	r3, [r7, #0]
 8003b68:	781b      	ldrb	r3, [r3, #0]
 8003b6a:	461a      	mov	r2, r3
 8003b6c:	2301      	movs	r3, #1
 8003b6e:	4093      	lsls	r3, r2
 8003b70:	b29b      	uxth	r3, r3
 8003b72:	813b      	strh	r3, [r7, #8]
 8003b74:	e00e      	b.n	8003b94 <USB_OTG_EPActivate+0x5c>
  }
  else
  {
    addr = &pdev->regs.OUTEP_REGS[ep->num]->DOEPCTL;
 8003b76:	683b      	ldr	r3, [r7, #0]
 8003b78:	781b      	ldrb	r3, [r3, #0]
 8003b7a:	687a      	ldr	r2, [r7, #4]
 8003b7c:	3314      	adds	r3, #20
 8003b7e:	009b      	lsls	r3, r3, #2
 8003b80:	4413      	add	r3, r2
 8003b82:	685b      	ldr	r3, [r3, #4]
 8003b84:	617b      	str	r3, [r7, #20]
    daintmsk.ep.out = 1 << ep->num;
 8003b86:	683b      	ldr	r3, [r7, #0]
 8003b88:	781b      	ldrb	r3, [r3, #0]
 8003b8a:	461a      	mov	r2, r3
 8003b8c:	2301      	movs	r3, #1
 8003b8e:	4093      	lsls	r3, r2
 8003b90:	b29b      	uxth	r3, r3
 8003b92:	817b      	strh	r3, [r7, #10]
  }
  /* If the EP is already active don't change the EP Control
  * register. */
  depctl.d32 = USB_OTG_READ_REG32(addr);
 8003b94:	697b      	ldr	r3, [r7, #20]
 8003b96:	681b      	ldr	r3, [r3, #0]
 8003b98:	60fb      	str	r3, [r7, #12]
  if (!depctl.b.usbactep)
 8003b9a:	7b7b      	ldrb	r3, [r7, #13]
 8003b9c:	f023 037f 	bic.w	r3, r3, #127	; 0x7f
 8003ba0:	b2db      	uxtb	r3, r3
 8003ba2:	2b00      	cmp	r3, #0
 8003ba4:	d127      	bne.n	8003bf6 <USB_OTG_EPActivate+0xbe>
  {
    depctl.b.mps    = ep->maxpacket;
 8003ba6:	683b      	ldr	r3, [r7, #0]
 8003ba8:	689b      	ldr	r3, [r3, #8]
 8003baa:	b29b      	uxth	r3, r3
 8003bac:	f3c3 030a 	ubfx	r3, r3, #0, #11
 8003bb0:	b29a      	uxth	r2, r3
 8003bb2:	89bb      	ldrh	r3, [r7, #12]
 8003bb4:	f362 030a 	bfi	r3, r2, #0, #11
 8003bb8:	81bb      	strh	r3, [r7, #12]
    depctl.b.eptype = ep->type;
 8003bba:	683b      	ldr	r3, [r7, #0]
 8003bbc:	78db      	ldrb	r3, [r3, #3]
 8003bbe:	f003 0303 	and.w	r3, r3, #3
 8003bc2:	b2da      	uxtb	r2, r3
 8003bc4:	7bbb      	ldrb	r3, [r7, #14]
 8003bc6:	f362 0383 	bfi	r3, r2, #2, #2
 8003bca:	73bb      	strb	r3, [r7, #14]
    depctl.b.txfnum = ep->tx_fifo_num;
 8003bcc:	683b      	ldr	r3, [r7, #0]
 8003bce:	88db      	ldrh	r3, [r3, #6]
 8003bd0:	b2db      	uxtb	r3, r3
 8003bd2:	f003 030f 	and.w	r3, r3, #15
 8003bd6:	b2da      	uxtb	r2, r3
 8003bd8:	89fb      	ldrh	r3, [r7, #14]
 8003bda:	f362 1389 	bfi	r3, r2, #6, #4
 8003bde:	81fb      	strh	r3, [r7, #14]
    depctl.b.setd0pid = 1;
 8003be0:	7bfb      	ldrb	r3, [r7, #15]
 8003be2:	f043 0310 	orr.w	r3, r3, #16
 8003be6:	73fb      	strb	r3, [r7, #15]
    depctl.b.usbactep = 1;
 8003be8:	7b7b      	ldrb	r3, [r7, #13]
 8003bea:	f043 0380 	orr.w	r3, r3, #128	; 0x80
 8003bee:	737b      	strb	r3, [r7, #13]
    USB_OTG_WRITE_REG32(addr, depctl.d32);
 8003bf0:	68fa      	ldr	r2, [r7, #12]
 8003bf2:	697b      	ldr	r3, [r7, #20]
 8003bf4:	601a      	str	r2, [r3, #0]
  {
    USB_OTG_MODIFY_REG32(&pdev->regs.DREGS->DEACHMSK, 0, daintmsk.d32);
  }
  else
#endif   
    USB_OTG_MODIFY_REG32(&pdev->regs.DREGS->DAINTMSK, 0, daintmsk.d32);
 8003bf6:	687b      	ldr	r3, [r7, #4]
 8003bf8:	691b      	ldr	r3, [r3, #16]
 8003bfa:	687a      	ldr	r2, [r7, #4]
 8003bfc:	6912      	ldr	r2, [r2, #16]
 8003bfe:	69d1      	ldr	r1, [r2, #28]
 8003c00:	68ba      	ldr	r2, [r7, #8]
 8003c02:	430a      	orrs	r2, r1
 8003c04:	61da      	str	r2, [r3, #28]
  return status;
 8003c06:	7cfb      	ldrb	r3, [r7, #19]
}
 8003c08:	4618      	mov	r0, r3
 8003c0a:	371c      	adds	r7, #28
 8003c0c:	46bd      	mov	sp, r7
 8003c0e:	f85d 7b04 	ldr.w	r7, [sp], #4
 8003c12:	4770      	bx	lr

08003c14 <USB_OTG_EPDeactivate>:
* @brief  USB_OTG_EPDeactivate : Deactivates an EP
* @param  pdev : Selected device
* @retval USB_OTG_STS : status
*/
USB_OTG_STS USB_OTG_EPDeactivate(USB_OTG_CORE_HANDLE *pdev , USB_OTG_EP *ep)
{
 8003c14:	b480      	push	{r7}
 8003c16:	b087      	sub	sp, #28
 8003c18:	af00      	add	r7, sp, #0
 8003c1a:	6078      	str	r0, [r7, #4]
 8003c1c:	6039      	str	r1, [r7, #0]
  USB_OTG_STS status = USB_OTG_OK;
 8003c1e:	2300      	movs	r3, #0
 8003c20:	74fb      	strb	r3, [r7, #19]
  USB_OTG_DEPCTL_TypeDef  depctl;
  USB_OTG_DAINT_TypeDef  daintmsk;
  __IO uint32_t *addr;
  
  depctl.d32 = 0;
 8003c22:	2300      	movs	r3, #0
 8003c24:	60fb      	str	r3, [r7, #12]
  daintmsk.d32 = 0;  
 8003c26:	2300      	movs	r3, #0
 8003c28:	60bb      	str	r3, [r7, #8]
  /* Read DEPCTLn register */
  if (ep->is_in == 1)
 8003c2a:	683b      	ldr	r3, [r7, #0]
 8003c2c:	785b      	ldrb	r3, [r3, #1]
 8003c2e:	2b01      	cmp	r3, #1
 8003c30:	d10f      	bne.n	8003c52 <USB_OTG_EPDeactivate+0x3e>
  {
    addr = &pdev->regs.INEP_REGS[ep->num]->DIEPCTL;
 8003c32:	683b      	ldr	r3, [r7, #0]
 8003c34:	781b      	ldrb	r3, [r3, #0]
 8003c36:	687a      	ldr	r2, [r7, #4]
 8003c38:	3304      	adds	r3, #4
 8003c3a:	009b      	lsls	r3, r3, #2
 8003c3c:	4413      	add	r3, r2
 8003c3e:	689b      	ldr	r3, [r3, #8]
 8003c40:	617b      	str	r3, [r7, #20]
    daintmsk.ep.in = 1 << ep->num;
 8003c42:	683b      	ldr	r3, [r7, #0]
 8003c44:	781b      	ldrb	r3, [r3, #0]
 8003c46:	461a      	mov	r2, r3
 8003c48:	2301      	movs	r3, #1
 8003c4a:	4093      	lsls	r3, r2
 8003c4c:	b29b      	uxth	r3, r3
 8003c4e:	813b      	strh	r3, [r7, #8]
 8003c50:	e00e      	b.n	8003c70 <USB_OTG_EPDeactivate+0x5c>
  }
  else
  {
    addr = &pdev->regs.OUTEP_REGS[ep->num]->DOEPCTL;
 8003c52:	683b      	ldr	r3, [r7, #0]
 8003c54:	781b      	ldrb	r3, [r3, #0]
 8003c56:	687a      	ldr	r2, [r7, #4]
 8003c58:	3314      	adds	r3, #20
 8003c5a:	009b      	lsls	r3, r3, #2
 8003c5c:	4413      	add	r3, r2
 8003c5e:	685b      	ldr	r3, [r3, #4]
 8003c60:	617b      	str	r3, [r7, #20]
    daintmsk.ep.out = 1 << ep->num;
 8003c62:	683b      	ldr	r3, [r7, #0]
 8003c64:	781b      	ldrb	r3, [r3, #0]
 8003c66:	461a      	mov	r2, r3
 8003c68:	2301      	movs	r3, #1
 8003c6a:	4093      	lsls	r3, r2
 8003c6c:	b29b      	uxth	r3, r3
 8003c6e:	817b      	strh	r3, [r7, #10]
  }
  depctl.b.usbactep = 0;
 8003c70:	7b7b      	ldrb	r3, [r7, #13]
 8003c72:	f36f 13c7 	bfc	r3, #7, #1
 8003c76:	737b      	strb	r3, [r7, #13]
  USB_OTG_WRITE_REG32(addr, depctl.d32);
 8003c78:	68fa      	ldr	r2, [r7, #12]
 8003c7a:	697b      	ldr	r3, [r7, #20]
 8003c7c:	601a      	str	r2, [r3, #0]
  {
    USB_OTG_MODIFY_REG32(&pdev->regs.DREGS->DEACHMSK, daintmsk.d32, 0);
  }
  else
#endif    
    USB_OTG_MODIFY_REG32(&pdev->regs.DREGS->DAINTMSK, daintmsk.d32, 0);
 8003c7e:	687b      	ldr	r3, [r7, #4]
 8003c80:	691b      	ldr	r3, [r3, #16]
 8003c82:	687a      	ldr	r2, [r7, #4]
 8003c84:	6912      	ldr	r2, [r2, #16]
 8003c86:	69d1      	ldr	r1, [r2, #28]
 8003c88:	68ba      	ldr	r2, [r7, #8]
 8003c8a:	43d2      	mvns	r2, r2
 8003c8c:	400a      	ands	r2, r1
 8003c8e:	61da      	str	r2, [r3, #28]
  return status;
 8003c90:	7cfb      	ldrb	r3, [r7, #19]
}
 8003c92:	4618      	mov	r0, r3
 8003c94:	371c      	adds	r7, #28
 8003c96:	46bd      	mov	sp, r7
 8003c98:	f85d 7b04 	ldr.w	r7, [sp], #4
 8003c9c:	4770      	bx	lr
 8003c9e:	bf00      	nop

08003ca0 <USB_OTG_EPStartXfer>:
*         starts the xfer
* @param  pdev : Selected device
* @retval USB_OTG_STS : status
*/
USB_OTG_STS USB_OTG_EPStartXfer(USB_OTG_CORE_HANDLE *pdev , USB_OTG_EP *ep)
{
 8003ca0:	b580      	push	{r7, lr}
 8003ca2:	b088      	sub	sp, #32
 8003ca4:	af00      	add	r7, sp, #0
 8003ca6:	6078      	str	r0, [r7, #4]
 8003ca8:	6039      	str	r1, [r7, #0]
  USB_OTG_STS status = USB_OTG_OK;
 8003caa:	2300      	movs	r3, #0
 8003cac:	77fb      	strb	r3, [r7, #31]
  USB_OTG_DEPCTL_TypeDef     depctl;
  USB_OTG_DEPXFRSIZ_TypeDef  deptsiz;
  USB_OTG_DSTS_TypeDef       dsts;    
  uint32_t fifoemptymsk = 0;  
 8003cae:	2300      	movs	r3, #0
 8003cb0:	61bb      	str	r3, [r7, #24]
  
  depctl.d32 = 0;
 8003cb2:	2300      	movs	r3, #0
 8003cb4:	617b      	str	r3, [r7, #20]
  deptsiz.d32 = 0;
 8003cb6:	2300      	movs	r3, #0
 8003cb8:	613b      	str	r3, [r7, #16]
  /* IN endpoint */
  if (ep->is_in == 1)
 8003cba:	683b      	ldr	r3, [r7, #0]
 8003cbc:	785b      	ldrb	r3, [r3, #1]
 8003cbe:	2b01      	cmp	r3, #1
 8003cc0:	f040 80ab 	bne.w	8003e1a <USB_OTG_EPStartXfer+0x17a>
  {
    depctl.d32  = USB_OTG_READ_REG32(&(pdev->regs.INEP_REGS[ep->num]->DIEPCTL));
 8003cc4:	683b      	ldr	r3, [r7, #0]
 8003cc6:	781b      	ldrb	r3, [r3, #0]
 8003cc8:	687a      	ldr	r2, [r7, #4]
 8003cca:	3304      	adds	r3, #4
 8003ccc:	009b      	lsls	r3, r3, #2
 8003cce:	4413      	add	r3, r2
 8003cd0:	689b      	ldr	r3, [r3, #8]
 8003cd2:	681b      	ldr	r3, [r3, #0]
 8003cd4:	617b      	str	r3, [r7, #20]
    deptsiz.d32 = USB_OTG_READ_REG32(&(pdev->regs.INEP_REGS[ep->num]->DIEPTSIZ));
 8003cd6:	683b      	ldr	r3, [r7, #0]
 8003cd8:	781b      	ldrb	r3, [r3, #0]
 8003cda:	687a      	ldr	r2, [r7, #4]
 8003cdc:	3304      	adds	r3, #4
 8003cde:	009b      	lsls	r3, r3, #2
 8003ce0:	4413      	add	r3, r2
 8003ce2:	689b      	ldr	r3, [r3, #8]
 8003ce4:	691b      	ldr	r3, [r3, #16]
 8003ce6:	613b      	str	r3, [r7, #16]
    /* Zero Length Packet? */
    if (ep->xfer_len == 0)
 8003ce8:	683b      	ldr	r3, [r7, #0]
 8003cea:	695b      	ldr	r3, [r3, #20]
 8003cec:	2b00      	cmp	r3, #0
 8003cee:	d109      	bne.n	8003d04 <USB_OTG_EPStartXfer+0x64>
    {
      deptsiz.b.xfersize = 0;
 8003cf0:	693b      	ldr	r3, [r7, #16]
 8003cf2:	f36f 0312 	bfc	r3, #0, #19
 8003cf6:	613b      	str	r3, [r7, #16]
      deptsiz.b.pktcnt = 1;
 8003cf8:	8a7b      	ldrh	r3, [r7, #18]
 8003cfa:	2201      	movs	r2, #1
 8003cfc:	f362 03cc 	bfi	r3, r2, #3, #10
 8003d00:	827b      	strh	r3, [r7, #18]
 8003d02:	e022      	b.n	8003d4a <USB_OTG_EPStartXfer+0xaa>
      /* Program the transfer size and packet count
      * as follows: xfersize = N * maxpacket +
      * short_packet pktcnt = N + (short_packet
      * exist ? 1 : 0)
      */
      deptsiz.b.xfersize = ep->xfer_len;
 8003d04:	683b      	ldr	r3, [r7, #0]
 8003d06:	695b      	ldr	r3, [r3, #20]
 8003d08:	f3c3 0212 	ubfx	r2, r3, #0, #19
 8003d0c:	693b      	ldr	r3, [r7, #16]
 8003d0e:	f362 0312 	bfi	r3, r2, #0, #19
 8003d12:	613b      	str	r3, [r7, #16]
      deptsiz.b.pktcnt = (ep->xfer_len - 1 + ep->maxpacket) / ep->maxpacket;
 8003d14:	683b      	ldr	r3, [r7, #0]
 8003d16:	695a      	ldr	r2, [r3, #20]
 8003d18:	683b      	ldr	r3, [r7, #0]
 8003d1a:	689b      	ldr	r3, [r3, #8]
 8003d1c:	4413      	add	r3, r2
 8003d1e:	1e5a      	subs	r2, r3, #1
 8003d20:	683b      	ldr	r3, [r7, #0]
 8003d22:	689b      	ldr	r3, [r3, #8]
 8003d24:	fbb2 f3f3 	udiv	r3, r2, r3
 8003d28:	b29b      	uxth	r3, r3
 8003d2a:	f3c3 0309 	ubfx	r3, r3, #0, #10
 8003d2e:	b29a      	uxth	r2, r3
 8003d30:	8a7b      	ldrh	r3, [r7, #18]
 8003d32:	f362 03cc 	bfi	r3, r2, #3, #10
 8003d36:	827b      	strh	r3, [r7, #18]

      if (ep->type == EP_TYPE_ISOC)
 8003d38:	683b      	ldr	r3, [r7, #0]
 8003d3a:	78db      	ldrb	r3, [r3, #3]
 8003d3c:	2b01      	cmp	r3, #1
 8003d3e:	d104      	bne.n	8003d4a <USB_OTG_EPStartXfer+0xaa>
      {
        deptsiz.b.mc = 1;
 8003d40:	7cfb      	ldrb	r3, [r7, #19]
 8003d42:	2201      	movs	r2, #1
 8003d44:	f362 1346 	bfi	r3, r2, #5, #2
 8003d48:	74fb      	strb	r3, [r7, #19]
      }       
    }
    USB_OTG_WRITE_REG32(&pdev->regs.INEP_REGS[ep->num]->DIEPTSIZ, deptsiz.d32);
 8003d4a:	683b      	ldr	r3, [r7, #0]
 8003d4c:	781b      	ldrb	r3, [r3, #0]
 8003d4e:	687a      	ldr	r2, [r7, #4]
 8003d50:	3304      	adds	r3, #4
 8003d52:	009b      	lsls	r3, r3, #2
 8003d54:	4413      	add	r3, r2
 8003d56:	689b      	ldr	r3, [r3, #8]
 8003d58:	693a      	ldr	r2, [r7, #16]
 8003d5a:	611a      	str	r2, [r3, #16]
    
    if (pdev->cfg.dma_enable == 1)
 8003d5c:	687b      	ldr	r3, [r7, #4]
 8003d5e:	78db      	ldrb	r3, [r3, #3]
 8003d60:	2b01      	cmp	r3, #1
 8003d62:	d10a      	bne.n	8003d7a <USB_OTG_EPStartXfer+0xda>
    {
      USB_OTG_WRITE_REG32(&pdev->regs.INEP_REGS[ep->num]->DIEPDMA, ep->dma_addr);
 8003d64:	683b      	ldr	r3, [r7, #0]
 8003d66:	781b      	ldrb	r3, [r3, #0]
 8003d68:	687a      	ldr	r2, [r7, #4]
 8003d6a:	3304      	adds	r3, #4
 8003d6c:	009b      	lsls	r3, r3, #2
 8003d6e:	4413      	add	r3, r2
 8003d70:	689b      	ldr	r3, [r3, #8]
 8003d72:	683a      	ldr	r2, [r7, #0]
 8003d74:	6912      	ldr	r2, [r2, #16]
 8003d76:	615a      	str	r2, [r3, #20]
 8003d78:	e015      	b.n	8003da6 <USB_OTG_EPStartXfer+0x106>
    }
    else
    {
      if (ep->type != EP_TYPE_ISOC)
 8003d7a:	683b      	ldr	r3, [r7, #0]
 8003d7c:	78db      	ldrb	r3, [r3, #3]
 8003d7e:	2b01      	cmp	r3, #1
 8003d80:	d011      	beq.n	8003da6 <USB_OTG_EPStartXfer+0x106>
      {
        /* Enable the Tx FIFO Empty Interrupt for this EP */
        if (ep->xfer_len > 0)
 8003d82:	683b      	ldr	r3, [r7, #0]
 8003d84:	695b      	ldr	r3, [r3, #20]
 8003d86:	2b00      	cmp	r3, #0
 8003d88:	d00d      	beq.n	8003da6 <USB_OTG_EPStartXfer+0x106>
        {
          fifoemptymsk = 1 << ep->num;
 8003d8a:	683b      	ldr	r3, [r7, #0]
 8003d8c:	781b      	ldrb	r3, [r3, #0]
 8003d8e:	461a      	mov	r2, r3
 8003d90:	2301      	movs	r3, #1
 8003d92:	4093      	lsls	r3, r2
 8003d94:	61bb      	str	r3, [r7, #24]
          USB_OTG_MODIFY_REG32(&pdev->regs.DREGS->DIEPEMPMSK, 0, fifoemptymsk);
 8003d96:	687b      	ldr	r3, [r7, #4]
 8003d98:	691b      	ldr	r3, [r3, #16]
 8003d9a:	687a      	ldr	r2, [r7, #4]
 8003d9c:	6912      	ldr	r2, [r2, #16]
 8003d9e:	6b51      	ldr	r1, [r2, #52]	; 0x34
 8003da0:	69ba      	ldr	r2, [r7, #24]
 8003da2:	430a      	orrs	r2, r1
 8003da4:	635a      	str	r2, [r3, #52]	; 0x34
        }
      }
    }
    
    
    if (ep->type == EP_TYPE_ISOC)
 8003da6:	683b      	ldr	r3, [r7, #0]
 8003da8:	78db      	ldrb	r3, [r3, #3]
 8003daa:	2b01      	cmp	r3, #1
 8003dac:	d114      	bne.n	8003dd8 <USB_OTG_EPStartXfer+0x138>
    {
      dsts.d32 = USB_OTG_READ_REG32(&pdev->regs.DREGS->DSTS);
 8003dae:	687b      	ldr	r3, [r7, #4]
 8003db0:	691b      	ldr	r3, [r3, #16]
 8003db2:	689b      	ldr	r3, [r3, #8]
 8003db4:	60fb      	str	r3, [r7, #12]
      
      if (((dsts.b.soffn)&0x1) == 0)
 8003db6:	68fb      	ldr	r3, [r7, #12]
 8003db8:	f3c3 230d 	ubfx	r3, r3, #8, #14
 8003dbc:	b29b      	uxth	r3, r3
 8003dbe:	f003 0301 	and.w	r3, r3, #1
 8003dc2:	2b00      	cmp	r3, #0
 8003dc4:	d104      	bne.n	8003dd0 <USB_OTG_EPStartXfer+0x130>
      {
        depctl.b.setd1pid = 1;
 8003dc6:	7dfb      	ldrb	r3, [r7, #23]
 8003dc8:	f043 0320 	orr.w	r3, r3, #32
 8003dcc:	75fb      	strb	r3, [r7, #23]
 8003dce:	e003      	b.n	8003dd8 <USB_OTG_EPStartXfer+0x138>
      }
      else
      {
        depctl.b.setd0pid = 1;
 8003dd0:	7dfb      	ldrb	r3, [r7, #23]
 8003dd2:	f043 0310 	orr.w	r3, r3, #16
 8003dd6:	75fb      	strb	r3, [r7, #23]
      }
    } 
    
    /* EP enable, IN data in FIFO */
    depctl.b.cnak = 1;
 8003dd8:	7dfb      	ldrb	r3, [r7, #23]
 8003dda:	f043 0304 	orr.w	r3, r3, #4
 8003dde:	75fb      	strb	r3, [r7, #23]
    depctl.b.epena = 1;
 8003de0:	7dfb      	ldrb	r3, [r7, #23]
 8003de2:	f043 0380 	orr.w	r3, r3, #128	; 0x80
 8003de6:	75fb      	strb	r3, [r7, #23]
    USB_OTG_WRITE_REG32(&pdev->regs.INEP_REGS[ep->num]->DIEPCTL, depctl.d32);
 8003de8:	683b      	ldr	r3, [r7, #0]
 8003dea:	781b      	ldrb	r3, [r3, #0]
 8003dec:	687a      	ldr	r2, [r7, #4]
 8003dee:	3304      	adds	r3, #4
 8003df0:	009b      	lsls	r3, r3, #2
 8003df2:	4413      	add	r3, r2
 8003df4:	689b      	ldr	r3, [r3, #8]
 8003df6:	697a      	ldr	r2, [r7, #20]
 8003df8:	601a      	str	r2, [r3, #0]

    if (ep->type == EP_TYPE_ISOC)
 8003dfa:	683b      	ldr	r3, [r7, #0]
 8003dfc:	78db      	ldrb	r3, [r3, #3]
 8003dfe:	2b01      	cmp	r3, #1
 8003e00:	f040 8089 	bne.w	8003f16 <USB_OTG_EPStartXfer+0x276>
    {
      USB_OTG_WritePacket(pdev, ep->xfer_buff, ep->num, ep->xfer_len);   
 8003e04:	683b      	ldr	r3, [r7, #0]
 8003e06:	68d9      	ldr	r1, [r3, #12]
 8003e08:	683b      	ldr	r3, [r7, #0]
 8003e0a:	781a      	ldrb	r2, [r3, #0]
 8003e0c:	683b      	ldr	r3, [r7, #0]
 8003e0e:	695b      	ldr	r3, [r3, #20]
 8003e10:	b29b      	uxth	r3, r3
 8003e12:	6878      	ldr	r0, [r7, #4]
 8003e14:	f7ff f97a 	bl	800310c <USB_OTG_WritePacket>
 8003e18:	e07d      	b.n	8003f16 <USB_OTG_EPStartXfer+0x276>
    }    
  }
  else
  {
    /* OUT endpoint */
    depctl.d32  = USB_OTG_READ_REG32(&(pdev->regs.OUTEP_REGS[ep->num]->DOEPCTL));
 8003e1a:	683b      	ldr	r3, [r7, #0]
 8003e1c:	781b      	ldrb	r3, [r3, #0]
 8003e1e:	687a      	ldr	r2, [r7, #4]
 8003e20:	3314      	adds	r3, #20
 8003e22:	009b      	lsls	r3, r3, #2
 8003e24:	4413      	add	r3, r2
 8003e26:	685b      	ldr	r3, [r3, #4]
 8003e28:	681b      	ldr	r3, [r3, #0]
 8003e2a:	617b      	str	r3, [r7, #20]
    deptsiz.d32 = USB_OTG_READ_REG32(&(pdev->regs.OUTEP_REGS[ep->num]->DOEPTSIZ));
 8003e2c:	683b      	ldr	r3, [r7, #0]
 8003e2e:	781b      	ldrb	r3, [r3, #0]
 8003e30:	687a      	ldr	r2, [r7, #4]
 8003e32:	3314      	adds	r3, #20
 8003e34:	009b      	lsls	r3, r3, #2
 8003e36:	4413      	add	r3, r2
 8003e38:	685b      	ldr	r3, [r3, #4]
 8003e3a:	691b      	ldr	r3, [r3, #16]
 8003e3c:	613b      	str	r3, [r7, #16]
    /* Program the transfer size and packet count as follows:
    * pktcnt = N
    * xfersize = N * maxpacket
    */
    if (ep->xfer_len == 0)
 8003e3e:	683b      	ldr	r3, [r7, #0]
 8003e40:	695b      	ldr	r3, [r3, #20]
 8003e42:	2b00      	cmp	r3, #0
 8003e44:	d10d      	bne.n	8003e62 <USB_OTG_EPStartXfer+0x1c2>
    {
      deptsiz.b.xfersize = ep->maxpacket;
 8003e46:	683b      	ldr	r3, [r7, #0]
 8003e48:	689b      	ldr	r3, [r3, #8]
 8003e4a:	f3c3 0212 	ubfx	r2, r3, #0, #19
 8003e4e:	693b      	ldr	r3, [r7, #16]
 8003e50:	f362 0312 	bfi	r3, r2, #0, #19
 8003e54:	613b      	str	r3, [r7, #16]
      deptsiz.b.pktcnt = 1;
 8003e56:	8a7b      	ldrh	r3, [r7, #18]
 8003e58:	2201      	movs	r2, #1
 8003e5a:	f362 03cc 	bfi	r3, r2, #3, #10
 8003e5e:	827b      	strh	r3, [r7, #18]
 8003e60:	e020      	b.n	8003ea4 <USB_OTG_EPStartXfer+0x204>
    }
    else
    {
      deptsiz.b.pktcnt = (ep->xfer_len + (ep->maxpacket - 1)) / ep->maxpacket;
 8003e62:	683b      	ldr	r3, [r7, #0]
 8003e64:	695a      	ldr	r2, [r3, #20]
 8003e66:	683b      	ldr	r3, [r7, #0]
 8003e68:	689b      	ldr	r3, [r3, #8]
 8003e6a:	4413      	add	r3, r2
 8003e6c:	1e5a      	subs	r2, r3, #1
 8003e6e:	683b      	ldr	r3, [r7, #0]
 8003e70:	689b      	ldr	r3, [r3, #8]
 8003e72:	fbb2 f3f3 	udiv	r3, r2, r3
 8003e76:	b29b      	uxth	r3, r3
 8003e78:	f3c3 0309 	ubfx	r3, r3, #0, #10
 8003e7c:	b29a      	uxth	r2, r3
 8003e7e:	8a7b      	ldrh	r3, [r7, #18]
 8003e80:	f362 03cc 	bfi	r3, r2, #3, #10
 8003e84:	827b      	strh	r3, [r7, #18]
      deptsiz.b.xfersize = deptsiz.b.pktcnt * ep->maxpacket;
 8003e86:	8a7b      	ldrh	r3, [r7, #18]
 8003e88:	f3c3 03c9 	ubfx	r3, r3, #3, #10
 8003e8c:	b29b      	uxth	r3, r3
 8003e8e:	461a      	mov	r2, r3
 8003e90:	683b      	ldr	r3, [r7, #0]
 8003e92:	689b      	ldr	r3, [r3, #8]
 8003e94:	fb03 f302 	mul.w	r3, r3, r2
 8003e98:	f3c3 0212 	ubfx	r2, r3, #0, #19
 8003e9c:	693b      	ldr	r3, [r7, #16]
 8003e9e:	f362 0312 	bfi	r3, r2, #0, #19
 8003ea2:	613b      	str	r3, [r7, #16]
    }
    USB_OTG_WRITE_REG32(&pdev->regs.OUTEP_REGS[ep->num]->DOEPTSIZ, deptsiz.d32);
 8003ea4:	683b      	ldr	r3, [r7, #0]
 8003ea6:	781b      	ldrb	r3, [r3, #0]
 8003ea8:	687a      	ldr	r2, [r7, #4]
 8003eaa:	3314      	adds	r3, #20
 8003eac:	009b      	lsls	r3, r3, #2
 8003eae:	4413      	add	r3, r2
 8003eb0:	685b      	ldr	r3, [r3, #4]
 8003eb2:	693a      	ldr	r2, [r7, #16]
 8003eb4:	611a      	str	r2, [r3, #16]
    
    if (pdev->cfg.dma_enable == 1)
 8003eb6:	687b      	ldr	r3, [r7, #4]
 8003eb8:	78db      	ldrb	r3, [r3, #3]
 8003eba:	2b01      	cmp	r3, #1
 8003ebc:	d109      	bne.n	8003ed2 <USB_OTG_EPStartXfer+0x232>
    {
      USB_OTG_WRITE_REG32(&pdev->regs.OUTEP_REGS[ep->num]->DOEPDMA, ep->dma_addr);
 8003ebe:	683b      	ldr	r3, [r7, #0]
 8003ec0:	781b      	ldrb	r3, [r3, #0]
 8003ec2:	687a      	ldr	r2, [r7, #4]
 8003ec4:	3314      	adds	r3, #20
 8003ec6:	009b      	lsls	r3, r3, #2
 8003ec8:	4413      	add	r3, r2
 8003eca:	685b      	ldr	r3, [r3, #4]
 8003ecc:	683a      	ldr	r2, [r7, #0]
 8003ece:	6912      	ldr	r2, [r2, #16]
 8003ed0:	615a      	str	r2, [r3, #20]
    }
    
    if (ep->type == EP_TYPE_ISOC)
 8003ed2:	683b      	ldr	r3, [r7, #0]
 8003ed4:	78db      	ldrb	r3, [r3, #3]
 8003ed6:	2b01      	cmp	r3, #1
 8003ed8:	d10c      	bne.n	8003ef4 <USB_OTG_EPStartXfer+0x254>
    {
      if (ep->even_odd_frame)
 8003eda:	683b      	ldr	r3, [r7, #0]
 8003edc:	795b      	ldrb	r3, [r3, #5]
 8003ede:	2b00      	cmp	r3, #0
 8003ee0:	d004      	beq.n	8003eec <USB_OTG_EPStartXfer+0x24c>
      {
        depctl.b.setd1pid = 1;
 8003ee2:	7dfb      	ldrb	r3, [r7, #23]
 8003ee4:	f043 0320 	orr.w	r3, r3, #32
 8003ee8:	75fb      	strb	r3, [r7, #23]
 8003eea:	e003      	b.n	8003ef4 <USB_OTG_EPStartXfer+0x254>
      }
      else
      {
        depctl.b.setd0pid = 1;
 8003eec:	7dfb      	ldrb	r3, [r7, #23]
 8003eee:	f043 0310 	orr.w	r3, r3, #16
 8003ef2:	75fb      	strb	r3, [r7, #23]
      }
    }
    /* EP enable */
    depctl.b.cnak = 1;
 8003ef4:	7dfb      	ldrb	r3, [r7, #23]
 8003ef6:	f043 0304 	orr.w	r3, r3, #4
 8003efa:	75fb      	strb	r3, [r7, #23]
    depctl.b.epena = 1;
 8003efc:	7dfb      	ldrb	r3, [r7, #23]
 8003efe:	f043 0380 	orr.w	r3, r3, #128	; 0x80
 8003f02:	75fb      	strb	r3, [r7, #23]
    USB_OTG_WRITE_REG32(&pdev->regs.OUTEP_REGS[ep->num]->DOEPCTL, depctl.d32);
 8003f04:	683b      	ldr	r3, [r7, #0]
 8003f06:	781b      	ldrb	r3, [r3, #0]
 8003f08:	687a      	ldr	r2, [r7, #4]
 8003f0a:	3314      	adds	r3, #20
 8003f0c:	009b      	lsls	r3, r3, #2
 8003f0e:	4413      	add	r3, r2
 8003f10:	685b      	ldr	r3, [r3, #4]
 8003f12:	697a      	ldr	r2, [r7, #20]
 8003f14:	601a      	str	r2, [r3, #0]
  }
  return status;
 8003f16:	7ffb      	ldrb	r3, [r7, #31]
}
 8003f18:	4618      	mov	r0, r3
 8003f1a:	3720      	adds	r7, #32
 8003f1c:	46bd      	mov	sp, r7
 8003f1e:	bd80      	pop	{r7, pc}

08003f20 <USB_OTG_EP0StartXfer>:
*         starts the xfer
* @param  pdev : Selected device
* @retval USB_OTG_STS : status
*/
USB_OTG_STS USB_OTG_EP0StartXfer(USB_OTG_CORE_HANDLE *pdev , USB_OTG_EP *ep)
{
 8003f20:	b480      	push	{r7}
 8003f22:	b089      	sub	sp, #36	; 0x24
 8003f24:	af00      	add	r7, sp, #0
 8003f26:	6078      	str	r0, [r7, #4]
 8003f28:	6039      	str	r1, [r7, #0]
  USB_OTG_STS                 status = USB_OTG_OK;
 8003f2a:	2300      	movs	r3, #0
 8003f2c:	77fb      	strb	r3, [r7, #31]
  USB_OTG_DEPCTL_TypeDef      depctl;
  USB_OTG_DEP0XFRSIZ_TypeDef  deptsiz;
  USB_OTG_INEPREGS          *in_regs;
  uint32_t fifoemptymsk = 0;
 8003f2e:	2300      	movs	r3, #0
 8003f30:	61bb      	str	r3, [r7, #24]
  
  depctl.d32   = 0;
 8003f32:	2300      	movs	r3, #0
 8003f34:	613b      	str	r3, [r7, #16]
  deptsiz.d32  = 0;
 8003f36:	2300      	movs	r3, #0
 8003f38:	60bb      	str	r3, [r7, #8]
  /* IN endpoint */
  if (ep->is_in == 1)
 8003f3a:	683b      	ldr	r3, [r7, #0]
 8003f3c:	785b      	ldrb	r3, [r3, #1]
 8003f3e:	2b01      	cmp	r3, #1
 8003f40:	d170      	bne.n	8004024 <USB_OTG_EP0StartXfer+0x104>
  {
    in_regs = pdev->regs.INEP_REGS[0];
 8003f42:	687b      	ldr	r3, [r7, #4]
 8003f44:	699b      	ldr	r3, [r3, #24]
 8003f46:	617b      	str	r3, [r7, #20]
    depctl.d32  = USB_OTG_READ_REG32(&in_regs->DIEPCTL);
 8003f48:	697b      	ldr	r3, [r7, #20]
 8003f4a:	681b      	ldr	r3, [r3, #0]
 8003f4c:	613b      	str	r3, [r7, #16]
    deptsiz.d32 = USB_OTG_READ_REG32(&in_regs->DIEPTSIZ);
 8003f4e:	697b      	ldr	r3, [r7, #20]
 8003f50:	691b      	ldr	r3, [r3, #16]
 8003f52:	60bb      	str	r3, [r7, #8]
    /* Zero Length Packet? */
    if (ep->xfer_len == 0)
 8003f54:	683b      	ldr	r3, [r7, #0]
 8003f56:	695b      	ldr	r3, [r3, #20]
 8003f58:	2b00      	cmp	r3, #0
 8003f5a:	d109      	bne.n	8003f70 <USB_OTG_EP0StartXfer+0x50>
    {
      deptsiz.b.xfersize = 0;
 8003f5c:	7a3b      	ldrb	r3, [r7, #8]
 8003f5e:	f36f 0306 	bfc	r3, #0, #7
 8003f62:	723b      	strb	r3, [r7, #8]
      deptsiz.b.pktcnt = 1;
 8003f64:	7abb      	ldrb	r3, [r7, #10]
 8003f66:	2201      	movs	r2, #1
 8003f68:	f362 03c4 	bfi	r3, r2, #3, #2
 8003f6c:	72bb      	strb	r3, [r7, #10]
 8003f6e:	e023      	b.n	8003fb8 <USB_OTG_EP0StartXfer+0x98>
      
    }
    else
    {
      if (ep->xfer_len > ep->maxpacket)
 8003f70:	683b      	ldr	r3, [r7, #0]
 8003f72:	695a      	ldr	r2, [r3, #20]
 8003f74:	683b      	ldr	r3, [r7, #0]
 8003f76:	689b      	ldr	r3, [r3, #8]
 8003f78:	429a      	cmp	r2, r3
 8003f7a:	d90e      	bls.n	8003f9a <USB_OTG_EP0StartXfer+0x7a>
      {
        ep->xfer_len = ep->maxpacket;
 8003f7c:	683b      	ldr	r3, [r7, #0]
 8003f7e:	689a      	ldr	r2, [r3, #8]
 8003f80:	683b      	ldr	r3, [r7, #0]
 8003f82:	615a      	str	r2, [r3, #20]
        deptsiz.b.xfersize = ep->maxpacket;
 8003f84:	683b      	ldr	r3, [r7, #0]
 8003f86:	689b      	ldr	r3, [r3, #8]
 8003f88:	b2db      	uxtb	r3, r3
 8003f8a:	f003 037f 	and.w	r3, r3, #127	; 0x7f
 8003f8e:	b2da      	uxtb	r2, r3
 8003f90:	7a3b      	ldrb	r3, [r7, #8]
 8003f92:	f362 0306 	bfi	r3, r2, #0, #7
 8003f96:	723b      	strb	r3, [r7, #8]
 8003f98:	e009      	b.n	8003fae <USB_OTG_EP0StartXfer+0x8e>
      }
      else
      {
        deptsiz.b.xfersize = ep->xfer_len;
 8003f9a:	683b      	ldr	r3, [r7, #0]
 8003f9c:	695b      	ldr	r3, [r3, #20]
 8003f9e:	b2db      	uxtb	r3, r3
 8003fa0:	f003 037f 	and.w	r3, r3, #127	; 0x7f
 8003fa4:	b2da      	uxtb	r2, r3
 8003fa6:	7a3b      	ldrb	r3, [r7, #8]
 8003fa8:	f362 0306 	bfi	r3, r2, #0, #7
 8003fac:	723b      	strb	r3, [r7, #8]
      }
      deptsiz.b.pktcnt = 1;
 8003fae:	7abb      	ldrb	r3, [r7, #10]
 8003fb0:	2201      	movs	r2, #1
 8003fb2:	f362 03c4 	bfi	r3, r2, #3, #2
 8003fb6:	72bb      	strb	r3, [r7, #10]
    }
    USB_OTG_WRITE_REG32(&in_regs->DIEPTSIZ, deptsiz.d32);
 8003fb8:	68ba      	ldr	r2, [r7, #8]
 8003fba:	697b      	ldr	r3, [r7, #20]
 8003fbc:	611a      	str	r2, [r3, #16]
    
    if (pdev->cfg.dma_enable == 1)
 8003fbe:	687b      	ldr	r3, [r7, #4]
 8003fc0:	78db      	ldrb	r3, [r3, #3]
 8003fc2:	2b01      	cmp	r3, #1
 8003fc4:	d109      	bne.n	8003fda <USB_OTG_EP0StartXfer+0xba>
    {
      USB_OTG_WRITE_REG32(&pdev->regs.INEP_REGS[ep->num]->DIEPDMA, ep->dma_addr);  
 8003fc6:	683b      	ldr	r3, [r7, #0]
 8003fc8:	781b      	ldrb	r3, [r3, #0]
 8003fca:	687a      	ldr	r2, [r7, #4]
 8003fcc:	3304      	adds	r3, #4
 8003fce:	009b      	lsls	r3, r3, #2
 8003fd0:	4413      	add	r3, r2
 8003fd2:	689b      	ldr	r3, [r3, #8]
 8003fd4:	683a      	ldr	r2, [r7, #0]
 8003fd6:	6912      	ldr	r2, [r2, #16]
 8003fd8:	615a      	str	r2, [r3, #20]
    }
    
    /* EP enable, IN data in FIFO */
    depctl.b.cnak = 1;
 8003fda:	7cfb      	ldrb	r3, [r7, #19]
 8003fdc:	f043 0304 	orr.w	r3, r3, #4
 8003fe0:	74fb      	strb	r3, [r7, #19]
    depctl.b.epena = 1;
 8003fe2:	7cfb      	ldrb	r3, [r7, #19]
 8003fe4:	f043 0380 	orr.w	r3, r3, #128	; 0x80
 8003fe8:	74fb      	strb	r3, [r7, #19]
    USB_OTG_WRITE_REG32(&in_regs->DIEPCTL, depctl.d32);
 8003fea:	693a      	ldr	r2, [r7, #16]
 8003fec:	697b      	ldr	r3, [r7, #20]
 8003fee:	601a      	str	r2, [r3, #0]
    
    
    
    if (pdev->cfg.dma_enable == 0)
 8003ff0:	687b      	ldr	r3, [r7, #4]
 8003ff2:	78db      	ldrb	r3, [r3, #3]
 8003ff4:	2b00      	cmp	r3, #0
 8003ff6:	d176      	bne.n	80040e6 <USB_OTG_EP0StartXfer+0x1c6>
    {
      /* Enable the Tx FIFO Empty Interrupt for this EP */
      if (ep->xfer_len > 0)
 8003ff8:	683b      	ldr	r3, [r7, #0]
 8003ffa:	695b      	ldr	r3, [r3, #20]
 8003ffc:	2b00      	cmp	r3, #0
 8003ffe:	d072      	beq.n	80040e6 <USB_OTG_EP0StartXfer+0x1c6>
      {
        {
          fifoemptymsk |= 1 << ep->num;
 8004000:	683b      	ldr	r3, [r7, #0]
 8004002:	781b      	ldrb	r3, [r3, #0]
 8004004:	461a      	mov	r2, r3
 8004006:	2301      	movs	r3, #1
 8004008:	4093      	lsls	r3, r2
 800400a:	461a      	mov	r2, r3
 800400c:	69bb      	ldr	r3, [r7, #24]
 800400e:	4313      	orrs	r3, r2
 8004010:	61bb      	str	r3, [r7, #24]
          USB_OTG_MODIFY_REG32(&pdev->regs.DREGS->DIEPEMPMSK, 0, fifoemptymsk);
 8004012:	687b      	ldr	r3, [r7, #4]
 8004014:	691b      	ldr	r3, [r3, #16]
 8004016:	687a      	ldr	r2, [r7, #4]
 8004018:	6912      	ldr	r2, [r2, #16]
 800401a:	6b51      	ldr	r1, [r2, #52]	; 0x34
 800401c:	69ba      	ldr	r2, [r7, #24]
 800401e:	430a      	orrs	r2, r1
 8004020:	635a      	str	r2, [r3, #52]	; 0x34
 8004022:	e060      	b.n	80040e6 <USB_OTG_EP0StartXfer+0x1c6>
    }
  }
  else
  {
    /* OUT endpoint */
    depctl.d32  = USB_OTG_READ_REG32(&pdev->regs.OUTEP_REGS[ep->num]->DOEPCTL);
 8004024:	683b      	ldr	r3, [r7, #0]
 8004026:	781b      	ldrb	r3, [r3, #0]
 8004028:	687a      	ldr	r2, [r7, #4]
 800402a:	3314      	adds	r3, #20
 800402c:	009b      	lsls	r3, r3, #2
 800402e:	4413      	add	r3, r2
 8004030:	685b      	ldr	r3, [r3, #4]
 8004032:	681b      	ldr	r3, [r3, #0]
 8004034:	613b      	str	r3, [r7, #16]
    deptsiz.d32 = USB_OTG_READ_REG32(&pdev->regs.OUTEP_REGS[ep->num]->DOEPTSIZ);
 8004036:	683b      	ldr	r3, [r7, #0]
 8004038:	781b      	ldrb	r3, [r3, #0]
 800403a:	687a      	ldr	r2, [r7, #4]
 800403c:	3314      	adds	r3, #20
 800403e:	009b      	lsls	r3, r3, #2
 8004040:	4413      	add	r3, r2
 8004042:	685b      	ldr	r3, [r3, #4]
 8004044:	691b      	ldr	r3, [r3, #16]
 8004046:	60bb      	str	r3, [r7, #8]
    /* Program the transfer size and packet count as follows:
    * xfersize = N * (maxpacket + 4 - (maxpacket % 4))
    * pktcnt = N           */
    if (ep->xfer_len == 0)
 8004048:	683b      	ldr	r3, [r7, #0]
 800404a:	695b      	ldr	r3, [r3, #20]
 800404c:	2b00      	cmp	r3, #0
 800404e:	d10f      	bne.n	8004070 <USB_OTG_EP0StartXfer+0x150>
    {
      deptsiz.b.xfersize = ep->maxpacket;
 8004050:	683b      	ldr	r3, [r7, #0]
 8004052:	689b      	ldr	r3, [r3, #8]
 8004054:	b2db      	uxtb	r3, r3
 8004056:	f003 037f 	and.w	r3, r3, #127	; 0x7f
 800405a:	b2da      	uxtb	r2, r3
 800405c:	7a3b      	ldrb	r3, [r7, #8]
 800405e:	f362 0306 	bfi	r3, r2, #0, #7
 8004062:	723b      	strb	r3, [r7, #8]
      deptsiz.b.pktcnt = 1;
 8004064:	7abb      	ldrb	r3, [r7, #10]
 8004066:	2201      	movs	r2, #1
 8004068:	f362 03c4 	bfi	r3, r2, #3, #2
 800406c:	72bb      	strb	r3, [r7, #10]
 800406e:	e012      	b.n	8004096 <USB_OTG_EP0StartXfer+0x176>
    }
    else
    {
      ep->xfer_len = ep->maxpacket;
 8004070:	683b      	ldr	r3, [r7, #0]
 8004072:	689a      	ldr	r2, [r3, #8]
 8004074:	683b      	ldr	r3, [r7, #0]
 8004076:	615a      	str	r2, [r3, #20]
      deptsiz.b.xfersize = ep->maxpacket;
 8004078:	683b      	ldr	r3, [r7, #0]
 800407a:	689b      	ldr	r3, [r3, #8]
 800407c:	b2db      	uxtb	r3, r3
 800407e:	f003 037f 	and.w	r3, r3, #127	; 0x7f
 8004082:	b2da      	uxtb	r2, r3
 8004084:	7a3b      	ldrb	r3, [r7, #8]
 8004086:	f362 0306 	bfi	r3, r2, #0, #7
 800408a:	723b      	strb	r3, [r7, #8]
      deptsiz.b.pktcnt = 1;
 800408c:	7abb      	ldrb	r3, [r7, #10]
 800408e:	2201      	movs	r2, #1
 8004090:	f362 03c4 	bfi	r3, r2, #3, #2
 8004094:	72bb      	strb	r3, [r7, #10]
    }
    USB_OTG_WRITE_REG32(&pdev->regs.OUTEP_REGS[ep->num]->DOEPTSIZ, deptsiz.d32);
 8004096:	683b      	ldr	r3, [r7, #0]
 8004098:	781b      	ldrb	r3, [r3, #0]
 800409a:	687a      	ldr	r2, [r7, #4]
 800409c:	3314      	adds	r3, #20
 800409e:	009b      	lsls	r3, r3, #2
 80040a0:	4413      	add	r3, r2
 80040a2:	685b      	ldr	r3, [r3, #4]
 80040a4:	68ba      	ldr	r2, [r7, #8]
 80040a6:	611a      	str	r2, [r3, #16]
    if (pdev->cfg.dma_enable == 1)
 80040a8:	687b      	ldr	r3, [r7, #4]
 80040aa:	78db      	ldrb	r3, [r3, #3]
 80040ac:	2b01      	cmp	r3, #1
 80040ae:	d109      	bne.n	80040c4 <USB_OTG_EP0StartXfer+0x1a4>
    {
      USB_OTG_WRITE_REG32(&pdev->regs.OUTEP_REGS[ep->num]->DOEPDMA, ep->dma_addr);
 80040b0:	683b      	ldr	r3, [r7, #0]
 80040b2:	781b      	ldrb	r3, [r3, #0]
 80040b4:	687a      	ldr	r2, [r7, #4]
 80040b6:	3314      	adds	r3, #20
 80040b8:	009b      	lsls	r3, r3, #2
 80040ba:	4413      	add	r3, r2
 80040bc:	685b      	ldr	r3, [r3, #4]
 80040be:	683a      	ldr	r2, [r7, #0]
 80040c0:	6912      	ldr	r2, [r2, #16]
 80040c2:	615a      	str	r2, [r3, #20]
    }
    /* EP enable */
    depctl.b.cnak = 1;
 80040c4:	7cfb      	ldrb	r3, [r7, #19]
 80040c6:	f043 0304 	orr.w	r3, r3, #4
 80040ca:	74fb      	strb	r3, [r7, #19]
    depctl.b.epena = 1;
 80040cc:	7cfb      	ldrb	r3, [r7, #19]
 80040ce:	f043 0380 	orr.w	r3, r3, #128	; 0x80
 80040d2:	74fb      	strb	r3, [r7, #19]
    USB_OTG_WRITE_REG32 (&(pdev->regs.OUTEP_REGS[ep->num]->DOEPCTL), depctl.d32);
 80040d4:	683b      	ldr	r3, [r7, #0]
 80040d6:	781b      	ldrb	r3, [r3, #0]
 80040d8:	687a      	ldr	r2, [r7, #4]
 80040da:	3314      	adds	r3, #20
 80040dc:	009b      	lsls	r3, r3, #2
 80040de:	4413      	add	r3, r2
 80040e0:	685b      	ldr	r3, [r3, #4]
 80040e2:	693a      	ldr	r2, [r7, #16]
 80040e4:	601a      	str	r2, [r3, #0]
    
  }
  return status;
 80040e6:	7ffb      	ldrb	r3, [r7, #31]
}
 80040e8:	4618      	mov	r0, r3
 80040ea:	3724      	adds	r7, #36	; 0x24
 80040ec:	46bd      	mov	sp, r7
 80040ee:	f85d 7b04 	ldr.w	r7, [sp], #4
 80040f2:	4770      	bx	lr

080040f4 <USB_OTG_EPSetStall>:
* @brief  USB_OTG_EPSetStall : Set the EP STALL
* @param  pdev : Selected device
* @retval USB_OTG_STS : status
*/
USB_OTG_STS USB_OTG_EPSetStall(USB_OTG_CORE_HANDLE *pdev , USB_OTG_EP *ep)
{
 80040f4:	b480      	push	{r7}
 80040f6:	b087      	sub	sp, #28
 80040f8:	af00      	add	r7, sp, #0
 80040fa:	6078      	str	r0, [r7, #4]
 80040fc:	6039      	str	r1, [r7, #0]
  USB_OTG_STS status = USB_OTG_OK;
 80040fe:	2300      	movs	r3, #0
 8004100:	75fb      	strb	r3, [r7, #23]
  USB_OTG_DEPCTL_TypeDef  depctl;
  __IO uint32_t *depctl_addr;
  
  depctl.d32 = 0;
 8004102:	2300      	movs	r3, #0
 8004104:	60fb      	str	r3, [r7, #12]
  if (ep->is_in == 1)
 8004106:	683b      	ldr	r3, [r7, #0]
 8004108:	785b      	ldrb	r3, [r3, #1]
 800410a:	2b01      	cmp	r3, #1
 800410c:	d11c      	bne.n	8004148 <USB_OTG_EPSetStall+0x54>
  {
    depctl_addr = &(pdev->regs.INEP_REGS[ep->num]->DIEPCTL);
 800410e:	683b      	ldr	r3, [r7, #0]
 8004110:	781b      	ldrb	r3, [r3, #0]
 8004112:	687a      	ldr	r2, [r7, #4]
 8004114:	3304      	adds	r3, #4
 8004116:	009b      	lsls	r3, r3, #2
 8004118:	4413      	add	r3, r2
 800411a:	689b      	ldr	r3, [r3, #8]
 800411c:	613b      	str	r3, [r7, #16]
    depctl.d32 = USB_OTG_READ_REG32(depctl_addr);
 800411e:	693b      	ldr	r3, [r7, #16]
 8004120:	681b      	ldr	r3, [r3, #0]
 8004122:	60fb      	str	r3, [r7, #12]
    /* set the disable and stall bits */
    if (depctl.b.epena)
 8004124:	7bfb      	ldrb	r3, [r7, #15]
 8004126:	f023 037f 	bic.w	r3, r3, #127	; 0x7f
 800412a:	b2db      	uxtb	r3, r3
 800412c:	2b00      	cmp	r3, #0
 800412e:	d003      	beq.n	8004138 <USB_OTG_EPSetStall+0x44>
    {
      depctl.b.epdis = 1;
 8004130:	7bfb      	ldrb	r3, [r7, #15]
 8004132:	f043 0340 	orr.w	r3, r3, #64	; 0x40
 8004136:	73fb      	strb	r3, [r7, #15]
    }
    depctl.b.stall = 1;
 8004138:	7bbb      	ldrb	r3, [r7, #14]
 800413a:	f043 0320 	orr.w	r3, r3, #32
 800413e:	73bb      	strb	r3, [r7, #14]
    USB_OTG_WRITE_REG32(depctl_addr, depctl.d32);
 8004140:	68fa      	ldr	r2, [r7, #12]
 8004142:	693b      	ldr	r3, [r7, #16]
 8004144:	601a      	str	r2, [r3, #0]
 8004146:	e011      	b.n	800416c <USB_OTG_EPSetStall+0x78>
  }
  else
  {
    depctl_addr = &(pdev->regs.OUTEP_REGS[ep->num]->DOEPCTL);
 8004148:	683b      	ldr	r3, [r7, #0]
 800414a:	781b      	ldrb	r3, [r3, #0]
 800414c:	687a      	ldr	r2, [r7, #4]
 800414e:	3314      	adds	r3, #20
 8004150:	009b      	lsls	r3, r3, #2
 8004152:	4413      	add	r3, r2
 8004154:	685b      	ldr	r3, [r3, #4]
 8004156:	613b      	str	r3, [r7, #16]
    depctl.d32 = USB_OTG_READ_REG32(depctl_addr);
 8004158:	693b      	ldr	r3, [r7, #16]
 800415a:	681b      	ldr	r3, [r3, #0]
 800415c:	60fb      	str	r3, [r7, #12]
    /* set the stall bit */
    depctl.b.stall = 1;
 800415e:	7bbb      	ldrb	r3, [r7, #14]
 8004160:	f043 0320 	orr.w	r3, r3, #32
 8004164:	73bb      	strb	r3, [r7, #14]
    USB_OTG_WRITE_REG32(depctl_addr, depctl.d32);
 8004166:	68fa      	ldr	r2, [r7, #12]
 8004168:	693b      	ldr	r3, [r7, #16]
 800416a:	601a      	str	r2, [r3, #0]
  }
  return status;
 800416c:	7dfb      	ldrb	r3, [r7, #23]
}
 800416e:	4618      	mov	r0, r3
 8004170:	371c      	adds	r7, #28
 8004172:	46bd      	mov	sp, r7
 8004174:	f85d 7b04 	ldr.w	r7, [sp], #4
 8004178:	4770      	bx	lr
 800417a:	bf00      	nop

0800417c <USB_OTG_EPClearStall>:
* @brief  Clear the EP STALL
* @param  pdev : Selected device
* @retval USB_OTG_STS : status
*/
USB_OTG_STS USB_OTG_EPClearStall(USB_OTG_CORE_HANDLE *pdev , USB_OTG_EP *ep)
{
 800417c:	b480      	push	{r7}
 800417e:	b087      	sub	sp, #28
 8004180:	af00      	add	r7, sp, #0
 8004182:	6078      	str	r0, [r7, #4]
 8004184:	6039      	str	r1, [r7, #0]
  USB_OTG_STS status = USB_OTG_OK;
 8004186:	2300      	movs	r3, #0
 8004188:	74fb      	strb	r3, [r7, #19]
  USB_OTG_DEPCTL_TypeDef  depctl;
  __IO uint32_t *depctl_addr;
  
  depctl.d32 = 0;
 800418a:	2300      	movs	r3, #0
 800418c:	60fb      	str	r3, [r7, #12]
  
  if (ep->is_in == 1)
 800418e:	683b      	ldr	r3, [r7, #0]
 8004190:	785b      	ldrb	r3, [r3, #1]
 8004192:	2b01      	cmp	r3, #1
 8004194:	d108      	bne.n	80041a8 <USB_OTG_EPClearStall+0x2c>
  {
    depctl_addr = &(pdev->regs.INEP_REGS[ep->num]->DIEPCTL);
 8004196:	683b      	ldr	r3, [r7, #0]
 8004198:	781b      	ldrb	r3, [r3, #0]
 800419a:	687a      	ldr	r2, [r7, #4]
 800419c:	3304      	adds	r3, #4
 800419e:	009b      	lsls	r3, r3, #2
 80041a0:	4413      	add	r3, r2
 80041a2:	689b      	ldr	r3, [r3, #8]
 80041a4:	617b      	str	r3, [r7, #20]
 80041a6:	e007      	b.n	80041b8 <USB_OTG_EPClearStall+0x3c>
  }
  else
  {
    depctl_addr = &(pdev->regs.OUTEP_REGS[ep->num]->DOEPCTL);
 80041a8:	683b      	ldr	r3, [r7, #0]
 80041aa:	781b      	ldrb	r3, [r3, #0]
 80041ac:	687a      	ldr	r2, [r7, #4]
 80041ae:	3314      	adds	r3, #20
 80041b0:	009b      	lsls	r3, r3, #2
 80041b2:	4413      	add	r3, r2
 80041b4:	685b      	ldr	r3, [r3, #4]
 80041b6:	617b      	str	r3, [r7, #20]
  }
  depctl.d32 = USB_OTG_READ_REG32(depctl_addr);
 80041b8:	697b      	ldr	r3, [r7, #20]
 80041ba:	681b      	ldr	r3, [r3, #0]
 80041bc:	60fb      	str	r3, [r7, #12]
  /* clear the stall bits */
  depctl.b.stall = 0;
 80041be:	7bbb      	ldrb	r3, [r7, #14]
 80041c0:	f36f 1345 	bfc	r3, #5, #1
 80041c4:	73bb      	strb	r3, [r7, #14]
  if (ep->type == EP_TYPE_INTR || ep->type == EP_TYPE_BULK)
 80041c6:	683b      	ldr	r3, [r7, #0]
 80041c8:	78db      	ldrb	r3, [r3, #3]
 80041ca:	2b03      	cmp	r3, #3
 80041cc:	d003      	beq.n	80041d6 <USB_OTG_EPClearStall+0x5a>
 80041ce:	683b      	ldr	r3, [r7, #0]
 80041d0:	78db      	ldrb	r3, [r3, #3]
 80041d2:	2b02      	cmp	r3, #2
 80041d4:	d103      	bne.n	80041de <USB_OTG_EPClearStall+0x62>
  {
    depctl.b.setd0pid = 1; /* DATA0 */
 80041d6:	7bfb      	ldrb	r3, [r7, #15]
 80041d8:	f043 0310 	orr.w	r3, r3, #16
 80041dc:	73fb      	strb	r3, [r7, #15]
  }
  USB_OTG_WRITE_REG32(depctl_addr, depctl.d32);
 80041de:	68fa      	ldr	r2, [r7, #12]
 80041e0:	697b      	ldr	r3, [r7, #20]
 80041e2:	601a      	str	r2, [r3, #0]
  return status;
 80041e4:	7cfb      	ldrb	r3, [r7, #19]
}
 80041e6:	4618      	mov	r0, r3
 80041e8:	371c      	adds	r7, #28
 80041ea:	46bd      	mov	sp, r7
 80041ec:	f85d 7b04 	ldr.w	r7, [sp], #4
 80041f0:	4770      	bx	lr
 80041f2:	bf00      	nop

080041f4 <USB_OTG_ReadDevAllOutEp_itr>:
* @brief  USB_OTG_ReadDevAllOutEp_itr : returns OUT endpoint interrupt bits
* @param  pdev : Selected device
* @retval OUT endpoint interrupt bits
*/
uint32_t USB_OTG_ReadDevAllOutEp_itr(USB_OTG_CORE_HANDLE *pdev)
{
 80041f4:	b480      	push	{r7}
 80041f6:	b085      	sub	sp, #20
 80041f8:	af00      	add	r7, sp, #0
 80041fa:	6078      	str	r0, [r7, #4]
  uint32_t v;
  v  = USB_OTG_READ_REG32(&pdev->regs.DREGS->DAINT);
 80041fc:	687b      	ldr	r3, [r7, #4]
 80041fe:	691b      	ldr	r3, [r3, #16]
 8004200:	699b      	ldr	r3, [r3, #24]
 8004202:	60fb      	str	r3, [r7, #12]
  v &= USB_OTG_READ_REG32(&pdev->regs.DREGS->DAINTMSK);
 8004204:	687b      	ldr	r3, [r7, #4]
 8004206:	691b      	ldr	r3, [r3, #16]
 8004208:	69db      	ldr	r3, [r3, #28]
 800420a:	68fa      	ldr	r2, [r7, #12]
 800420c:	4013      	ands	r3, r2
 800420e:	60fb      	str	r3, [r7, #12]
  return ((v & 0xffff0000) >> 16);
 8004210:	68fb      	ldr	r3, [r7, #12]
 8004212:	0c1b      	lsrs	r3, r3, #16
}
 8004214:	4618      	mov	r0, r3
 8004216:	3714      	adds	r7, #20
 8004218:	46bd      	mov	sp, r7
 800421a:	f85d 7b04 	ldr.w	r7, [sp], #4
 800421e:	4770      	bx	lr

08004220 <USB_OTG_ReadDevOutEP_itr>:
* @param  pdev : Selected device
* @param  ep : end point number
* @retval Device OUT EP Interrupt register
*/
uint32_t USB_OTG_ReadDevOutEP_itr(USB_OTG_CORE_HANDLE *pdev , uint8_t epnum)
{
 8004220:	b480      	push	{r7}
 8004222:	b085      	sub	sp, #20
 8004224:	af00      	add	r7, sp, #0
 8004226:	6078      	str	r0, [r7, #4]
 8004228:	460b      	mov	r3, r1
 800422a:	70fb      	strb	r3, [r7, #3]
  uint32_t v;
  v  = USB_OTG_READ_REG32(&pdev->regs.OUTEP_REGS[epnum]->DOEPINT);
 800422c:	78fb      	ldrb	r3, [r7, #3]
 800422e:	687a      	ldr	r2, [r7, #4]
 8004230:	3314      	adds	r3, #20
 8004232:	009b      	lsls	r3, r3, #2
 8004234:	4413      	add	r3, r2
 8004236:	685b      	ldr	r3, [r3, #4]
 8004238:	689b      	ldr	r3, [r3, #8]
 800423a:	60fb      	str	r3, [r7, #12]
  v &= USB_OTG_READ_REG32(&pdev->regs.DREGS->DOEPMSK);
 800423c:	687b      	ldr	r3, [r7, #4]
 800423e:	691b      	ldr	r3, [r3, #16]
 8004240:	695b      	ldr	r3, [r3, #20]
 8004242:	68fa      	ldr	r2, [r7, #12]
 8004244:	4013      	ands	r3, r2
 8004246:	60fb      	str	r3, [r7, #12]
  return v;
 8004248:	68fb      	ldr	r3, [r7, #12]
}
 800424a:	4618      	mov	r0, r3
 800424c:	3714      	adds	r7, #20
 800424e:	46bd      	mov	sp, r7
 8004250:	f85d 7b04 	ldr.w	r7, [sp], #4
 8004254:	4770      	bx	lr
 8004256:	bf00      	nop

08004258 <USB_OTG_ReadDevAllInEPItr>:
* @brief  USB_OTG_ReadDevAllInEPItr : Get int status register
* @param  pdev : Selected device
* @retval int status register
*/
uint32_t USB_OTG_ReadDevAllInEPItr(USB_OTG_CORE_HANDLE *pdev)
{
 8004258:	b480      	push	{r7}
 800425a:	b085      	sub	sp, #20
 800425c:	af00      	add	r7, sp, #0
 800425e:	6078      	str	r0, [r7, #4]
  uint32_t v;
  v = USB_OTG_READ_REG32(&pdev->regs.DREGS->DAINT);
 8004260:	687b      	ldr	r3, [r7, #4]
 8004262:	691b      	ldr	r3, [r3, #16]
 8004264:	699b      	ldr	r3, [r3, #24]
 8004266:	60fb      	str	r3, [r7, #12]
  v &= USB_OTG_READ_REG32(&pdev->regs.DREGS->DAINTMSK);
 8004268:	687b      	ldr	r3, [r7, #4]
 800426a:	691b      	ldr	r3, [r3, #16]
 800426c:	69db      	ldr	r3, [r3, #28]
 800426e:	68fa      	ldr	r2, [r7, #12]
 8004270:	4013      	ands	r3, r2
 8004272:	60fb      	str	r3, [r7, #12]
  return (v & 0xffff);
 8004274:	68fb      	ldr	r3, [r7, #12]
 8004276:	b29b      	uxth	r3, r3
}
 8004278:	4618      	mov	r0, r3
 800427a:	3714      	adds	r7, #20
 800427c:	46bd      	mov	sp, r7
 800427e:	f85d 7b04 	ldr.w	r7, [sp], #4
 8004282:	4770      	bx	lr

08004284 <USB_OTG_EP0_OutStart>:
* @brief  configures EPO to receive SETUP packets
* @param  None
* @retval : None
*/
void USB_OTG_EP0_OutStart(USB_OTG_CORE_HANDLE *pdev)
{
 8004284:	b480      	push	{r7}
 8004286:	b087      	sub	sp, #28
 8004288:	af00      	add	r7, sp, #0
 800428a:	6078      	str	r0, [r7, #4]
  USB_OTG_DEP0XFRSIZ_TypeDef  doeptsize0;
  doeptsize0.d32 = 0;
 800428c:	2300      	movs	r3, #0
 800428e:	613b      	str	r3, [r7, #16]
  doeptsize0.b.supcnt = 3;
 8004290:	7cfb      	ldrb	r3, [r7, #19]
 8004292:	f043 03c0 	orr.w	r3, r3, #192	; 0xc0
 8004296:	74fb      	strb	r3, [r7, #19]
  doeptsize0.b.pktcnt = 1;
 8004298:	7cbb      	ldrb	r3, [r7, #18]
 800429a:	2201      	movs	r2, #1
 800429c:	f362 03c4 	bfi	r3, r2, #3, #2
 80042a0:	74bb      	strb	r3, [r7, #18]
  doeptsize0.b.xfersize = 8 * 3;
 80042a2:	7c3b      	ldrb	r3, [r7, #16]
 80042a4:	2218      	movs	r2, #24
 80042a6:	f362 0306 	bfi	r3, r2, #0, #7
 80042aa:	743b      	strb	r3, [r7, #16]
  USB_OTG_WRITE_REG32( &pdev->regs.OUTEP_REGS[0]->DOEPTSIZ, doeptsize0.d32 );
 80042ac:	687b      	ldr	r3, [r7, #4]
 80042ae:	6d5b      	ldr	r3, [r3, #84]	; 0x54
 80042b0:	693a      	ldr	r2, [r7, #16]
 80042b2:	611a      	str	r2, [r3, #16]
  
  if (pdev->cfg.dma_enable == 1)
 80042b4:	687b      	ldr	r3, [r7, #4]
 80042b6:	78db      	ldrb	r3, [r3, #3]
 80042b8:	2b01      	cmp	r3, #1
 80042ba:	d116      	bne.n	80042ea <USB_OTG_EP0_OutStart+0x66>
  {
    USB_OTG_DEPCTL_TypeDef  doepctl;
    doepctl.d32 = 0;
 80042bc:	2300      	movs	r3, #0
 80042be:	60fb      	str	r3, [r7, #12]
    USB_OTG_WRITE_REG32( &pdev->regs.OUTEP_REGS[0]->DOEPDMA, 
 80042c0:	687b      	ldr	r3, [r7, #4]
 80042c2:	6d5b      	ldr	r3, [r3, #84]	; 0x54
 80042c4:	687a      	ldr	r2, [r7, #4]
 80042c6:	f502 62b9 	add.w	r2, r2, #1480	; 0x5c8
 80042ca:	615a      	str	r2, [r3, #20]
                        (uint32_t)&pdev->dev.setup_packet);
    
    /* EP enable */
    doepctl.d32 = USB_OTG_READ_REG32(&pdev->regs.OUTEP_REGS[0]->DOEPCTL);
 80042cc:	687b      	ldr	r3, [r7, #4]
 80042ce:	6d5b      	ldr	r3, [r3, #84]	; 0x54
 80042d0:	681b      	ldr	r3, [r3, #0]
 80042d2:	60fb      	str	r3, [r7, #12]
    doepctl.b.epena = 1;
 80042d4:	7bfb      	ldrb	r3, [r7, #15]
 80042d6:	f043 0380 	orr.w	r3, r3, #128	; 0x80
 80042da:	73fb      	strb	r3, [r7, #15]
    doepctl.d32 = 0x80008000;
 80042dc:	f04f 2380 	mov.w	r3, #2147516416	; 0x80008000
 80042e0:	60fb      	str	r3, [r7, #12]
    USB_OTG_WRITE_REG32( &pdev->regs.OUTEP_REGS[0]->DOEPCTL, doepctl.d32);
 80042e2:	687b      	ldr	r3, [r7, #4]
 80042e4:	6d5b      	ldr	r3, [r3, #84]	; 0x54
 80042e6:	68fa      	ldr	r2, [r7, #12]
 80042e8:	601a      	str	r2, [r3, #0]
  }
}
 80042ea:	bf00      	nop
 80042ec:	371c      	adds	r7, #28
 80042ee:	46bd      	mov	sp, r7
 80042f0:	f85d 7b04 	ldr.w	r7, [sp], #4
 80042f4:	4770      	bx	lr
 80042f6:	bf00      	nop

080042f8 <USB_OTG_UngateClock>:
* @brief  USB_OTG_UngateClock : active USB Core clock
* @param  None
* @retval : None
*/
void USB_OTG_UngateClock(USB_OTG_CORE_HANDLE *pdev)
{
 80042f8:	b480      	push	{r7}
 80042fa:	b085      	sub	sp, #20
 80042fc:	af00      	add	r7, sp, #0
 80042fe:	6078      	str	r0, [r7, #4]
  if(pdev->cfg.low_power)
 8004300:	687b      	ldr	r3, [r7, #4]
 8004302:	7a9b      	ldrb	r3, [r3, #10]
 8004304:	2b00      	cmp	r3, #0
 8004306:	d01b      	beq.n	8004340 <USB_OTG_UngateClock+0x48>
  {
    
    USB_OTG_DSTS_TypeDef     dsts;
    USB_OTG_PCGCCTL_TypeDef  power; 
    
    dsts.d32 = USB_OTG_READ_REG32(&pdev->regs.DREGS->DSTS);
 8004308:	687b      	ldr	r3, [r7, #4]
 800430a:	691b      	ldr	r3, [r3, #16]
 800430c:	689b      	ldr	r3, [r3, #8]
 800430e:	60fb      	str	r3, [r7, #12]
    
    if(dsts.b.suspsts == 1)
 8004310:	7b3b      	ldrb	r3, [r7, #12]
 8004312:	f003 0301 	and.w	r3, r3, #1
 8004316:	b2db      	uxtb	r3, r3
 8004318:	2b00      	cmp	r3, #0
 800431a:	d011      	beq.n	8004340 <USB_OTG_UngateClock+0x48>
    {
      /* un-gate USB Core clock */
      power.d32 = USB_OTG_READ_REG32(&pdev->regs.PCGCCTL);
 800431c:	687b      	ldr	r3, [r7, #4]
 800431e:	f503 7386 	add.w	r3, r3, #268	; 0x10c
 8004322:	681b      	ldr	r3, [r3, #0]
 8004324:	60bb      	str	r3, [r7, #8]
      power.b.gatehclk = 0;
 8004326:	7a3b      	ldrb	r3, [r7, #8]
 8004328:	f36f 0341 	bfc	r3, #1, #1
 800432c:	723b      	strb	r3, [r7, #8]
      power.b.stoppclk = 0;
 800432e:	7a3b      	ldrb	r3, [r7, #8]
 8004330:	f36f 0300 	bfc	r3, #0, #1
 8004334:	723b      	strb	r3, [r7, #8]
      USB_OTG_WRITE_REG32(pdev->regs.PCGCCTL, power.d32);
 8004336:	687b      	ldr	r3, [r7, #4]
 8004338:	f8d3 310c 	ldr.w	r3, [r3, #268]	; 0x10c
 800433c:	68ba      	ldr	r2, [r7, #8]
 800433e:	601a      	str	r2, [r3, #0]
      
    }
  }
}
 8004340:	bf00      	nop
 8004342:	3714      	adds	r7, #20
 8004344:	46bd      	mov	sp, r7
 8004346:	f85d 7b04 	ldr.w	r7, [sp], #4
 800434a:	4770      	bx	lr

0800434c <USBD_StdDevReq>:
* @param  pdev: device instance
* @param  req: usb request
* @retval status
*/
USBD_Status  USBD_StdDevReq (USB_OTG_CORE_HANDLE  *pdev, USB_SETUP_REQ  *req)
{
 800434c:	b580      	push	{r7, lr}
 800434e:	b084      	sub	sp, #16
 8004350:	af00      	add	r7, sp, #0
 8004352:	6078      	str	r0, [r7, #4]
 8004354:	6039      	str	r1, [r7, #0]
  USBD_Status ret = USBD_OK;  
 8004356:	2300      	movs	r3, #0
 8004358:	73fb      	strb	r3, [r7, #15]
  
  switch (req->bRequest) 
 800435a:	683b      	ldr	r3, [r7, #0]
 800435c:	785b      	ldrb	r3, [r3, #1]
 800435e:	2b09      	cmp	r3, #9
 8004360:	d839      	bhi.n	80043d6 <USBD_StdDevReq+0x8a>
 8004362:	a201      	add	r2, pc, #4	; (adr r2, 8004368 <USBD_StdDevReq+0x1c>)
 8004364:	f852 f023 	ldr.w	pc, [r2, r3, lsl #2]
 8004368:	080043b9 	.word	0x080043b9
 800436c:	080043cd 	.word	0x080043cd
 8004370:	080043d7 	.word	0x080043d7
 8004374:	080043c3 	.word	0x080043c3
 8004378:	080043d7 	.word	0x080043d7
 800437c:	0800439b 	.word	0x0800439b
 8004380:	08004391 	.word	0x08004391
 8004384:	080043d7 	.word	0x080043d7
 8004388:	080043af 	.word	0x080043af
 800438c:	080043a5 	.word	0x080043a5
  {
  case USB_REQ_GET_DESCRIPTOR: 
    
    USBD_GetDescriptor (pdev, req) ;
 8004390:	6839      	ldr	r1, [r7, #0]
 8004392:	6878      	ldr	r0, [r7, #4]
 8004394:	f000 f936 	bl	8004604 <USBD_GetDescriptor>
    break;
 8004398:	e022      	b.n	80043e0 <USBD_StdDevReq+0x94>
    
  case USB_REQ_SET_ADDRESS:                      
    USBD_SetAddress(pdev, req);
 800439a:	6839      	ldr	r1, [r7, #0]
 800439c:	6878      	ldr	r0, [r7, #4]
 800439e:	f000 fa05 	bl	80047ac <USBD_SetAddress>
    break;
 80043a2:	e01d      	b.n	80043e0 <USBD_StdDevReq+0x94>
    
  case USB_REQ_SET_CONFIGURATION:                    
    USBD_SetConfig (pdev , req);
 80043a4:	6839      	ldr	r1, [r7, #0]
 80043a6:	6878      	ldr	r0, [r7, #4]
 80043a8:	f000 fa3e 	bl	8004828 <USBD_SetConfig>
    break;
 80043ac:	e018      	b.n	80043e0 <USBD_StdDevReq+0x94>
    
  case USB_REQ_GET_CONFIGURATION:                 
    USBD_GetConfig (pdev , req);
 80043ae:	6839      	ldr	r1, [r7, #0]
 80043b0:	6878      	ldr	r0, [r7, #4]
 80043b2:	f000 fab3 	bl	800491c <USBD_GetConfig>
    break;
 80043b6:	e013      	b.n	80043e0 <USBD_StdDevReq+0x94>
    
  case USB_REQ_GET_STATUS:                                  
    USBD_GetStatus (pdev , req);
 80043b8:	6839      	ldr	r1, [r7, #0]
 80043ba:	6878      	ldr	r0, [r7, #4]
 80043bc:	f000 fade 	bl	800497c <USBD_GetStatus>
    break;
 80043c0:	e00e      	b.n	80043e0 <USBD_StdDevReq+0x94>
    
    
  case USB_REQ_SET_FEATURE:   
    USBD_SetFeature (pdev , req);    
 80043c2:	6839      	ldr	r1, [r7, #0]
 80043c4:	6878      	ldr	r0, [r7, #4]
 80043c6:	f000 fb01 	bl	80049cc <USBD_SetFeature>
    break;
 80043ca:	e009      	b.n	80043e0 <USBD_StdDevReq+0x94>
    
  case USB_REQ_CLEAR_FEATURE:                                   
    USBD_ClrFeature (pdev , req);
 80043cc:	6839      	ldr	r1, [r7, #0]
 80043ce:	6878      	ldr	r0, [r7, #4]
 80043d0:	f000 fb64 	bl	8004a9c <USBD_ClrFeature>
    break;
 80043d4:	e004      	b.n	80043e0 <USBD_StdDevReq+0x94>
    
  default:  
    USBD_CtlError(pdev , req);
 80043d6:	6839      	ldr	r1, [r7, #0]
 80043d8:	6878      	ldr	r0, [r7, #4]
 80043da:	f000 fbd1 	bl	8004b80 <USBD_CtlError>
    break;
 80043de:	bf00      	nop
  }
  
  return ret;
 80043e0:	7bfb      	ldrb	r3, [r7, #15]
}
 80043e2:	4618      	mov	r0, r3
 80043e4:	3710      	adds	r7, #16
 80043e6:	46bd      	mov	sp, r7
 80043e8:	bd80      	pop	{r7, pc}
 80043ea:	bf00      	nop

080043ec <USBD_StdItfReq>:
* @param  pdev: USB OTG device instance
* @param  req: usb request
* @retval status
*/
USBD_Status  USBD_StdItfReq (USB_OTG_CORE_HANDLE  *pdev, USB_SETUP_REQ  *req)
{
 80043ec:	b580      	push	{r7, lr}
 80043ee:	b084      	sub	sp, #16
 80043f0:	af00      	add	r7, sp, #0
 80043f2:	6078      	str	r0, [r7, #4]
 80043f4:	6039      	str	r1, [r7, #0]
  USBD_Status ret = USBD_OK; 
 80043f6:	2300      	movs	r3, #0
 80043f8:	73fb      	strb	r3, [r7, #15]
  
  switch (pdev->dev.device_status) 
 80043fa:	687b      	ldr	r3, [r7, #4]
 80043fc:	f893 3112 	ldrb.w	r3, [r3, #274]	; 0x112
 8004400:	2b03      	cmp	r3, #3
 8004402:	d11b      	bne.n	800443c <USBD_StdItfReq+0x50>
  {
  case USB_OTG_CONFIGURED:
    
    if (LOBYTE(req->wIndex) <= USBD_ITF_MAX_NUM) 
 8004404:	683b      	ldr	r3, [r7, #0]
 8004406:	889b      	ldrh	r3, [r3, #4]
 8004408:	b2db      	uxtb	r3, r3
 800440a:	2b01      	cmp	r3, #1
 800440c:	d811      	bhi.n	8004432 <USBD_StdItfReq+0x46>
    {
      pdev->dev.class_cb->Setup (pdev, req); 
 800440e:	687b      	ldr	r3, [r7, #4]
 8004410:	f8d3 35e0 	ldr.w	r3, [r3, #1504]	; 0x5e0
 8004414:	689b      	ldr	r3, [r3, #8]
 8004416:	6839      	ldr	r1, [r7, #0]
 8004418:	6878      	ldr	r0, [r7, #4]
 800441a:	4798      	blx	r3
      
      if((req->wLength == 0)&& (ret == USBD_OK))
 800441c:	683b      	ldr	r3, [r7, #0]
 800441e:	88db      	ldrh	r3, [r3, #6]
 8004420:	2b00      	cmp	r3, #0
 8004422:	d110      	bne.n	8004446 <USBD_StdItfReq+0x5a>
 8004424:	7bfb      	ldrb	r3, [r7, #15]
 8004426:	2b00      	cmp	r3, #0
 8004428:	d10d      	bne.n	8004446 <USBD_StdItfReq+0x5a>
      {
         USBD_CtlSendStatus(pdev);
 800442a:	6878      	ldr	r0, [r7, #4]
 800442c:	f000 fc90 	bl	8004d50 <USBD_CtlSendStatus>
    } 
    else 
    {                                               
       USBD_CtlError(pdev , req);
    }
    break;
 8004430:	e009      	b.n	8004446 <USBD_StdItfReq+0x5a>
         USBD_CtlSendStatus(pdev);
      }
    } 
    else 
    {                                               
       USBD_CtlError(pdev , req);
 8004432:	6839      	ldr	r1, [r7, #0]
 8004434:	6878      	ldr	r0, [r7, #4]
 8004436:	f000 fba3 	bl	8004b80 <USBD_CtlError>
    }
    break;
 800443a:	e004      	b.n	8004446 <USBD_StdItfReq+0x5a>
    
  default:
     USBD_CtlError(pdev , req);
 800443c:	6839      	ldr	r1, [r7, #0]
 800443e:	6878      	ldr	r0, [r7, #4]
 8004440:	f000 fb9e 	bl	8004b80 <USBD_CtlError>
    break;
 8004444:	e000      	b.n	8004448 <USBD_StdItfReq+0x5c>
    } 
    else 
    {                                               
       USBD_CtlError(pdev , req);
    }
    break;
 8004446:	bf00      	nop
    
  default:
     USBD_CtlError(pdev , req);
    break;
  }
  return ret;
 8004448:	7bfb      	ldrb	r3, [r7, #15]
}
 800444a:	4618      	mov	r0, r3
 800444c:	3710      	adds	r7, #16
 800444e:	46bd      	mov	sp, r7
 8004450:	bd80      	pop	{r7, pc}
 8004452:	bf00      	nop

08004454 <USBD_StdEPReq>:
* @param  pdev: USB OTG device instance
* @param  req: usb request
* @retval status
*/
USBD_Status  USBD_StdEPReq (USB_OTG_CORE_HANDLE  *pdev, USB_SETUP_REQ  *req)
{
 8004454:	b580      	push	{r7, lr}
 8004456:	b084      	sub	sp, #16
 8004458:	af00      	add	r7, sp, #0
 800445a:	6078      	str	r0, [r7, #4]
 800445c:	6039      	str	r1, [r7, #0]
  
  uint8_t   ep_addr;
  USBD_Status ret = USBD_OK; 
 800445e:	2300      	movs	r3, #0
 8004460:	73fb      	strb	r3, [r7, #15]
  
  ep_addr  = LOBYTE(req->wIndex);   
 8004462:	683b      	ldr	r3, [r7, #0]
 8004464:	889b      	ldrh	r3, [r3, #4]
 8004466:	73bb      	strb	r3, [r7, #14]
  
  switch (req->bRequest) 
 8004468:	683b      	ldr	r3, [r7, #0]
 800446a:	785b      	ldrb	r3, [r3, #1]
 800446c:	2b01      	cmp	r3, #1
 800446e:	d039      	beq.n	80044e4 <USBD_StdEPReq+0x90>
 8004470:	2b03      	cmp	r3, #3
 8004472:	d002      	beq.n	800447a <USBD_StdEPReq+0x26>
 8004474:	2b00      	cmp	r3, #0
 8004476:	d06c      	beq.n	8004552 <USBD_StdEPReq+0xfe>
      break;
    }
    break;
    
  default:
    break;
 8004478:	e0bd      	b.n	80045f6 <USBD_StdEPReq+0x1a2>
  switch (req->bRequest) 
  {
    
  case USB_REQ_SET_FEATURE :
    
    switch (pdev->dev.device_status) 
 800447a:	687b      	ldr	r3, [r7, #4]
 800447c:	f893 3112 	ldrb.w	r3, [r3, #274]	; 0x112
 8004480:	2b02      	cmp	r3, #2
 8004482:	d002      	beq.n	800448a <USBD_StdEPReq+0x36>
 8004484:	2b03      	cmp	r3, #3
 8004486:	d00c      	beq.n	80044a2 <USBD_StdEPReq+0x4e>
 8004488:	e025      	b.n	80044d6 <USBD_StdEPReq+0x82>
    {
    case USB_OTG_ADDRESSED:          
      if ((ep_addr != 0x00) && (ep_addr != 0x80)) 
 800448a:	7bbb      	ldrb	r3, [r7, #14]
 800448c:	2b00      	cmp	r3, #0
 800448e:	d027      	beq.n	80044e0 <USBD_StdEPReq+0x8c>
 8004490:	7bbb      	ldrb	r3, [r7, #14]
 8004492:	2b80      	cmp	r3, #128	; 0x80
 8004494:	d024      	beq.n	80044e0 <USBD_StdEPReq+0x8c>
      {
        DCD_EP_Stall(pdev , ep_addr);
 8004496:	7bbb      	ldrb	r3, [r7, #14]
 8004498:	4619      	mov	r1, r3
 800449a:	6878      	ldr	r0, [r7, #4]
 800449c:	f7fe fd36 	bl	8002f0c <DCD_EP_Stall>
      }
      break;	
 80044a0:	e01e      	b.n	80044e0 <USBD_StdEPReq+0x8c>
      
    case USB_OTG_CONFIGURED:   
      if (req->wValue == USB_FEATURE_EP_HALT)
 80044a2:	683b      	ldr	r3, [r7, #0]
 80044a4:	885b      	ldrh	r3, [r3, #2]
 80044a6:	2b00      	cmp	r3, #0
 80044a8:	d10a      	bne.n	80044c0 <USBD_StdEPReq+0x6c>
      {
        if ((ep_addr != 0x00) && (ep_addr != 0x80)) 
 80044aa:	7bbb      	ldrb	r3, [r7, #14]
 80044ac:	2b00      	cmp	r3, #0
 80044ae:	d007      	beq.n	80044c0 <USBD_StdEPReq+0x6c>
 80044b0:	7bbb      	ldrb	r3, [r7, #14]
 80044b2:	2b80      	cmp	r3, #128	; 0x80
 80044b4:	d004      	beq.n	80044c0 <USBD_StdEPReq+0x6c>
        { 
          DCD_EP_Stall(pdev , ep_addr);
 80044b6:	7bbb      	ldrb	r3, [r7, #14]
 80044b8:	4619      	mov	r1, r3
 80044ba:	6878      	ldr	r0, [r7, #4]
 80044bc:	f7fe fd26 	bl	8002f0c <DCD_EP_Stall>
          
        }
      }
      pdev->dev.class_cb->Setup (pdev, req);   
 80044c0:	687b      	ldr	r3, [r7, #4]
 80044c2:	f8d3 35e0 	ldr.w	r3, [r3, #1504]	; 0x5e0
 80044c6:	689b      	ldr	r3, [r3, #8]
 80044c8:	6839      	ldr	r1, [r7, #0]
 80044ca:	6878      	ldr	r0, [r7, #4]
 80044cc:	4798      	blx	r3
      USBD_CtlSendStatus(pdev);
 80044ce:	6878      	ldr	r0, [r7, #4]
 80044d0:	f000 fc3e 	bl	8004d50 <USBD_CtlSendStatus>
      
      break;
 80044d4:	e005      	b.n	80044e2 <USBD_StdEPReq+0x8e>
      
    default:                         
      USBD_CtlError(pdev , req);
 80044d6:	6839      	ldr	r1, [r7, #0]
 80044d8:	6878      	ldr	r0, [r7, #4]
 80044da:	f000 fb51 	bl	8004b80 <USBD_CtlError>
      break;    
 80044de:	e000      	b.n	80044e2 <USBD_StdEPReq+0x8e>
    case USB_OTG_ADDRESSED:          
      if ((ep_addr != 0x00) && (ep_addr != 0x80)) 
      {
        DCD_EP_Stall(pdev , ep_addr);
      }
      break;	
 80044e0:	bf00      	nop
      
    default:                         
      USBD_CtlError(pdev , req);
      break;    
    }
    break;
 80044e2:	e088      	b.n	80045f6 <USBD_StdEPReq+0x1a2>
    
  case USB_REQ_CLEAR_FEATURE :
    
    switch (pdev->dev.device_status) 
 80044e4:	687b      	ldr	r3, [r7, #4]
 80044e6:	f893 3112 	ldrb.w	r3, [r3, #274]	; 0x112
 80044ea:	2b02      	cmp	r3, #2
 80044ec:	d002      	beq.n	80044f4 <USBD_StdEPReq+0xa0>
 80044ee:	2b03      	cmp	r3, #3
 80044f0:	d00c      	beq.n	800450c <USBD_StdEPReq+0xb8>
 80044f2:	e025      	b.n	8004540 <USBD_StdEPReq+0xec>
    {
    case USB_OTG_ADDRESSED:          
      if ((ep_addr != 0x00) && (ep_addr != 0x80)) 
 80044f4:	7bbb      	ldrb	r3, [r7, #14]
 80044f6:	2b00      	cmp	r3, #0
 80044f8:	d027      	beq.n	800454a <USBD_StdEPReq+0xf6>
 80044fa:	7bbb      	ldrb	r3, [r7, #14]
 80044fc:	2b80      	cmp	r3, #128	; 0x80
 80044fe:	d024      	beq.n	800454a <USBD_StdEPReq+0xf6>
      {
        DCD_EP_Stall(pdev , ep_addr);
 8004500:	7bbb      	ldrb	r3, [r7, #14]
 8004502:	4619      	mov	r1, r3
 8004504:	6878      	ldr	r0, [r7, #4]
 8004506:	f7fe fd01 	bl	8002f0c <DCD_EP_Stall>
      }
      break;	
 800450a:	e01e      	b.n	800454a <USBD_StdEPReq+0xf6>
      
    case USB_OTG_CONFIGURED:   
      if (req->wValue == USB_FEATURE_EP_HALT)
 800450c:	683b      	ldr	r3, [r7, #0]
 800450e:	885b      	ldrh	r3, [r3, #2]
 8004510:	2b00      	cmp	r3, #0
 8004512:	d11c      	bne.n	800454e <USBD_StdEPReq+0xfa>
      {
        if ((ep_addr != 0x00) && (ep_addr != 0x80)) 
 8004514:	7bbb      	ldrb	r3, [r7, #14]
 8004516:	2b00      	cmp	r3, #0
 8004518:	d00e      	beq.n	8004538 <USBD_StdEPReq+0xe4>
 800451a:	7bbb      	ldrb	r3, [r7, #14]
 800451c:	2b80      	cmp	r3, #128	; 0x80
 800451e:	d00b      	beq.n	8004538 <USBD_StdEPReq+0xe4>
        {        
          DCD_EP_ClrStall(pdev , ep_addr);
 8004520:	7bbb      	ldrb	r3, [r7, #14]
 8004522:	4619      	mov	r1, r3
 8004524:	6878      	ldr	r0, [r7, #4]
 8004526:	f7fe fd2d 	bl	8002f84 <DCD_EP_ClrStall>
          pdev->dev.class_cb->Setup (pdev, req);
 800452a:	687b      	ldr	r3, [r7, #4]
 800452c:	f8d3 35e0 	ldr.w	r3, [r3, #1504]	; 0x5e0
 8004530:	689b      	ldr	r3, [r3, #8]
 8004532:	6839      	ldr	r1, [r7, #0]
 8004534:	6878      	ldr	r0, [r7, #4]
 8004536:	4798      	blx	r3
        }
        USBD_CtlSendStatus(pdev);
 8004538:	6878      	ldr	r0, [r7, #4]
 800453a:	f000 fc09 	bl	8004d50 <USBD_CtlSendStatus>
      }
      break;
 800453e:	e006      	b.n	800454e <USBD_StdEPReq+0xfa>
      
    default:                         
       USBD_CtlError(pdev , req);
 8004540:	6839      	ldr	r1, [r7, #0]
 8004542:	6878      	ldr	r0, [r7, #4]
 8004544:	f000 fb1c 	bl	8004b80 <USBD_CtlError>
      break;    
 8004548:	e002      	b.n	8004550 <USBD_StdEPReq+0xfc>
    case USB_OTG_ADDRESSED:          
      if ((ep_addr != 0x00) && (ep_addr != 0x80)) 
      {
        DCD_EP_Stall(pdev , ep_addr);
      }
      break;	
 800454a:	bf00      	nop
 800454c:	e053      	b.n	80045f6 <USBD_StdEPReq+0x1a2>
          DCD_EP_ClrStall(pdev , ep_addr);
          pdev->dev.class_cb->Setup (pdev, req);
        }
        USBD_CtlSendStatus(pdev);
      }
      break;
 800454e:	bf00      	nop
      
    default:                         
       USBD_CtlError(pdev , req);
      break;    
    }
    break;
 8004550:	e051      	b.n	80045f6 <USBD_StdEPReq+0x1a2>
    
  case USB_REQ_GET_STATUS:                  
    switch (pdev->dev.device_status) 
 8004552:	687b      	ldr	r3, [r7, #4]
 8004554:	f893 3112 	ldrb.w	r3, [r3, #274]	; 0x112
 8004558:	2b02      	cmp	r3, #2
 800455a:	d002      	beq.n	8004562 <USBD_StdEPReq+0x10e>
 800455c:	2b03      	cmp	r3, #3
 800455e:	d00c      	beq.n	800457a <USBD_StdEPReq+0x126>
 8004560:	e042      	b.n	80045e8 <USBD_StdEPReq+0x194>
    {
    case USB_OTG_ADDRESSED:          
      if ((ep_addr != 0x00) && (ep_addr != 0x80)) 
 8004562:	7bbb      	ldrb	r3, [r7, #14]
 8004564:	2b00      	cmp	r3, #0
 8004566:	d044      	beq.n	80045f2 <USBD_StdEPReq+0x19e>
 8004568:	7bbb      	ldrb	r3, [r7, #14]
 800456a:	2b80      	cmp	r3, #128	; 0x80
 800456c:	d041      	beq.n	80045f2 <USBD_StdEPReq+0x19e>
      {
        DCD_EP_Stall(pdev , ep_addr);
 800456e:	7bbb      	ldrb	r3, [r7, #14]
 8004570:	4619      	mov	r1, r3
 8004572:	6878      	ldr	r0, [r7, #4]
 8004574:	f7fe fcca 	bl	8002f0c <DCD_EP_Stall>
      }
      break;	
 8004578:	e03b      	b.n	80045f2 <USBD_StdEPReq+0x19e>
      
    case USB_OTG_CONFIGURED:         
      
      
      if ((ep_addr & 0x80)== 0x80)
 800457a:	f997 300e 	ldrsb.w	r3, [r7, #14]
 800457e:	2b00      	cmp	r3, #0
 8004580:	da15      	bge.n	80045ae <USBD_StdEPReq+0x15a>
      {
        if(pdev->dev.in_ep[ep_addr & 0x7F].is_stall)
 8004582:	7bbb      	ldrb	r3, [r7, #14]
 8004584:	f003 027f 	and.w	r2, r3, #127	; 0x7f
 8004588:	6879      	ldr	r1, [r7, #4]
 800458a:	4613      	mov	r3, r2
 800458c:	009b      	lsls	r3, r3, #2
 800458e:	4413      	add	r3, r2
 8004590:	00db      	lsls	r3, r3, #3
 8004592:	440b      	add	r3, r1
 8004594:	f503 738d 	add.w	r3, r3, #282	; 0x11a
 8004598:	781b      	ldrb	r3, [r3, #0]
 800459a:	2b00      	cmp	r3, #0
 800459c:	d003      	beq.n	80045a6 <USBD_StdEPReq+0x152>
        {
          USBD_ep_status = 0x0001;     
 800459e:	4b18      	ldr	r3, [pc, #96]	; (8004600 <USBD_StdEPReq+0x1ac>)
 80045a0:	2201      	movs	r2, #1
 80045a2:	601a      	str	r2, [r3, #0]
 80045a4:	e01a      	b.n	80045dc <USBD_StdEPReq+0x188>
        }
        else
        {
          USBD_ep_status = 0x0000;  
 80045a6:	4b16      	ldr	r3, [pc, #88]	; (8004600 <USBD_StdEPReq+0x1ac>)
 80045a8:	2200      	movs	r2, #0
 80045aa:	601a      	str	r2, [r3, #0]
 80045ac:	e016      	b.n	80045dc <USBD_StdEPReq+0x188>
        }
      }
      else if ((ep_addr & 0x80)== 0x00)
 80045ae:	f997 300e 	ldrsb.w	r3, [r7, #14]
 80045b2:	2b00      	cmp	r3, #0
 80045b4:	db12      	blt.n	80045dc <USBD_StdEPReq+0x188>
      {
        if(pdev->dev.out_ep[ep_addr].is_stall)
 80045b6:	7bba      	ldrb	r2, [r7, #14]
 80045b8:	6879      	ldr	r1, [r7, #4]
 80045ba:	4613      	mov	r3, r2
 80045bc:	009b      	lsls	r3, r3, #2
 80045be:	4413      	add	r3, r2
 80045c0:	00db      	lsls	r3, r3, #3
 80045c2:	440b      	add	r3, r1
 80045c4:	f203 3372 	addw	r3, r3, #882	; 0x372
 80045c8:	781b      	ldrb	r3, [r3, #0]
 80045ca:	2b00      	cmp	r3, #0
 80045cc:	d003      	beq.n	80045d6 <USBD_StdEPReq+0x182>
        {
          USBD_ep_status = 0x0001;     
 80045ce:	4b0c      	ldr	r3, [pc, #48]	; (8004600 <USBD_StdEPReq+0x1ac>)
 80045d0:	2201      	movs	r2, #1
 80045d2:	601a      	str	r2, [r3, #0]
 80045d4:	e002      	b.n	80045dc <USBD_StdEPReq+0x188>
        }
        
        else 
        {
          USBD_ep_status = 0x0000;     
 80045d6:	4b0a      	ldr	r3, [pc, #40]	; (8004600 <USBD_StdEPReq+0x1ac>)
 80045d8:	2200      	movs	r2, #0
 80045da:	601a      	str	r2, [r3, #0]
        }      
      }
      USBD_CtlSendData (pdev,
 80045dc:	2202      	movs	r2, #2
 80045de:	4908      	ldr	r1, [pc, #32]	; (8004600 <USBD_StdEPReq+0x1ac>)
 80045e0:	6878      	ldr	r0, [r7, #4]
 80045e2:	f000 fb4d 	bl	8004c80 <USBD_CtlSendData>
                        (uint8_t *)&USBD_ep_status,
                        2);
      break;
 80045e6:	e005      	b.n	80045f4 <USBD_StdEPReq+0x1a0>
      
    default:                         
       USBD_CtlError(pdev , req);
 80045e8:	6839      	ldr	r1, [r7, #0]
 80045ea:	6878      	ldr	r0, [r7, #4]
 80045ec:	f000 fac8 	bl	8004b80 <USBD_CtlError>
      break;
 80045f0:	e000      	b.n	80045f4 <USBD_StdEPReq+0x1a0>
    case USB_OTG_ADDRESSED:          
      if ((ep_addr != 0x00) && (ep_addr != 0x80)) 
      {
        DCD_EP_Stall(pdev , ep_addr);
      }
      break;	
 80045f2:	bf00      	nop
      
    default:                         
       USBD_CtlError(pdev , req);
      break;
    }
    break;
 80045f4:	bf00      	nop
    
  default:
    break;
  }
  return ret;
 80045f6:	7bfb      	ldrb	r3, [r7, #15]
}
 80045f8:	4618      	mov	r0, r3
 80045fa:	3710      	adds	r7, #16
 80045fc:	46bd      	mov	sp, r7
 80045fe:	bd80      	pop	{r7, pc}
 8004600:	200007b8 	.word	0x200007b8

08004604 <USBD_GetDescriptor>:
* @param  req: usb request
* @retval status
*/
static void USBD_GetDescriptor(USB_OTG_CORE_HANDLE  *pdev, 
                               USB_SETUP_REQ *req)
{
 8004604:	b580      	push	{r7, lr}
 8004606:	b084      	sub	sp, #16
 8004608:	af00      	add	r7, sp, #0
 800460a:	6078      	str	r0, [r7, #4]
 800460c:	6039      	str	r1, [r7, #0]
  uint16_t len;
  uint8_t *pbuf;
  
  switch (req->wValue >> 8)
 800460e:	683b      	ldr	r3, [r7, #0]
 8004610:	885b      	ldrh	r3, [r3, #2]
 8004612:	0a1b      	lsrs	r3, r3, #8
 8004614:	b29b      	uxth	r3, r3
 8004616:	3b01      	subs	r3, #1
 8004618:	2b06      	cmp	r3, #6
 800461a:	f200 80a9 	bhi.w	8004770 <USBD_GetDescriptor+0x16c>
 800461e:	a201      	add	r2, pc, #4	; (adr r2, 8004624 <USBD_GetDescriptor+0x20>)
 8004620:	f852 f023 	ldr.w	pc, [r2, r3, lsl #2]
 8004624:	08004641 	.word	0x08004641
 8004628:	08004671 	.word	0x08004671
 800462c:	08004699 	.word	0x08004699
 8004630:	08004771 	.word	0x08004771
 8004634:	08004771 	.word	0x08004771
 8004638:	0800475d 	.word	0x0800475d
 800463c:	08004767 	.word	0x08004767
  {
  case USB_DESC_TYPE_DEVICE:
    pbuf = pdev->dev.usr_device->GetDeviceDescriptor(pdev->cfg.speed, &len);
 8004640:	687b      	ldr	r3, [r7, #4]
 8004642:	f8d3 35e8 	ldr.w	r3, [r3, #1512]	; 0x5e8
 8004646:	681b      	ldr	r3, [r3, #0]
 8004648:	687a      	ldr	r2, [r7, #4]
 800464a:	7892      	ldrb	r2, [r2, #2]
 800464c:	f107 010a 	add.w	r1, r7, #10
 8004650:	4610      	mov	r0, r2
 8004652:	4798      	blx	r3
 8004654:	60f8      	str	r0, [r7, #12]
    if ((req->wLength == 64) ||( pdev->dev.device_status == USB_OTG_DEFAULT))  
 8004656:	683b      	ldr	r3, [r7, #0]
 8004658:	88db      	ldrh	r3, [r3, #6]
 800465a:	2b40      	cmp	r3, #64	; 0x40
 800465c:	d005      	beq.n	800466a <USBD_GetDescriptor+0x66>
 800465e:	687b      	ldr	r3, [r7, #4]
 8004660:	f893 3112 	ldrb.w	r3, [r3, #274]	; 0x112
 8004664:	2b01      	cmp	r3, #1
 8004666:	f040 8088 	bne.w	800477a <USBD_GetDescriptor+0x176>
    {                  
      len = 8;
 800466a:	2308      	movs	r3, #8
 800466c:	817b      	strh	r3, [r7, #10]
    }
    break;
 800466e:	e084      	b.n	800477a <USBD_GetDescriptor+0x176>
    
  case USB_DESC_TYPE_CONFIGURATION:
      pbuf   = (uint8_t *)pdev->dev.class_cb->GetConfigDescriptor(pdev->cfg.speed, &len);
 8004670:	687b      	ldr	r3, [r7, #4]
 8004672:	f8d3 35e0 	ldr.w	r3, [r3, #1504]	; 0x5e0
 8004676:	6a9b      	ldr	r3, [r3, #40]	; 0x28
 8004678:	687a      	ldr	r2, [r7, #4]
 800467a:	7892      	ldrb	r2, [r2, #2]
 800467c:	f107 010a 	add.w	r1, r7, #10
 8004680:	4610      	mov	r0, r2
 8004682:	4798      	blx	r3
 8004684:	60f8      	str	r0, [r7, #12]
       (pdev->cfg.phy_itface  == USB_OTG_ULPI_PHY))
    {
      pbuf   = (uint8_t *)pdev->dev.class_cb->GetOtherConfigDescriptor(pdev->cfg.speed, &len);
    }
#endif  
    pbuf[1] = USB_DESC_TYPE_CONFIGURATION;
 8004686:	68fb      	ldr	r3, [r7, #12]
 8004688:	3301      	adds	r3, #1
 800468a:	2202      	movs	r2, #2
 800468c:	701a      	strb	r2, [r3, #0]
    pdev->dev.pConfig_descriptor = pbuf;    
 800468e:	687b      	ldr	r3, [r7, #4]
 8004690:	68fa      	ldr	r2, [r7, #12]
 8004692:	f8c3 25ec 	str.w	r2, [r3, #1516]	; 0x5ec
    break;
 8004696:	e071      	b.n	800477c <USBD_GetDescriptor+0x178>
    
  case USB_DESC_TYPE_STRING:
    switch ((uint8_t)(req->wValue))
 8004698:	683b      	ldr	r3, [r7, #0]
 800469a:	885b      	ldrh	r3, [r3, #2]
 800469c:	b2db      	uxtb	r3, r3
 800469e:	2b05      	cmp	r3, #5
 80046a0:	d856      	bhi.n	8004750 <USBD_GetDescriptor+0x14c>
 80046a2:	a201      	add	r2, pc, #4	; (adr r2, 80046a8 <USBD_GetDescriptor+0xa4>)
 80046a4:	f852 f023 	ldr.w	pc, [r2, r3, lsl #2]
 80046a8:	080046c1 	.word	0x080046c1
 80046ac:	080046d9 	.word	0x080046d9
 80046b0:	080046f1 	.word	0x080046f1
 80046b4:	08004709 	.word	0x08004709
 80046b8:	08004721 	.word	0x08004721
 80046bc:	08004739 	.word	0x08004739
    {
    case USBD_IDX_LANGID_STR:
     pbuf = pdev->dev.usr_device->GetLangIDStrDescriptor(pdev->cfg.speed, &len);        
 80046c0:	687b      	ldr	r3, [r7, #4]
 80046c2:	f8d3 35e8 	ldr.w	r3, [r3, #1512]	; 0x5e8
 80046c6:	685b      	ldr	r3, [r3, #4]
 80046c8:	687a      	ldr	r2, [r7, #4]
 80046ca:	7892      	ldrb	r2, [r2, #2]
 80046cc:	f107 010a 	add.w	r1, r7, #10
 80046d0:	4610      	mov	r0, r2
 80046d2:	4798      	blx	r3
 80046d4:	60f8      	str	r0, [r7, #12]
      break;
 80046d6:	e040      	b.n	800475a <USBD_GetDescriptor+0x156>
      
    case USBD_IDX_MFC_STR:
      pbuf = pdev->dev.usr_device->GetManufacturerStrDescriptor(pdev->cfg.speed, &len);
 80046d8:	687b      	ldr	r3, [r7, #4]
 80046da:	f8d3 35e8 	ldr.w	r3, [r3, #1512]	; 0x5e8
 80046de:	689b      	ldr	r3, [r3, #8]
 80046e0:	687a      	ldr	r2, [r7, #4]
 80046e2:	7892      	ldrb	r2, [r2, #2]
 80046e4:	f107 010a 	add.w	r1, r7, #10
 80046e8:	4610      	mov	r0, r2
 80046ea:	4798      	blx	r3
 80046ec:	60f8      	str	r0, [r7, #12]
      break;
 80046ee:	e034      	b.n	800475a <USBD_GetDescriptor+0x156>
      
    case USBD_IDX_PRODUCT_STR:
      pbuf = pdev->dev.usr_device->GetProductStrDescriptor(pdev->cfg.speed, &len);
 80046f0:	687b      	ldr	r3, [r7, #4]
 80046f2:	f8d3 35e8 	ldr.w	r3, [r3, #1512]	; 0x5e8
 80046f6:	68db      	ldr	r3, [r3, #12]
 80046f8:	687a      	ldr	r2, [r7, #4]
 80046fa:	7892      	ldrb	r2, [r2, #2]
 80046fc:	f107 010a 	add.w	r1, r7, #10
 8004700:	4610      	mov	r0, r2
 8004702:	4798      	blx	r3
 8004704:	60f8      	str	r0, [r7, #12]
      break;
 8004706:	e028      	b.n	800475a <USBD_GetDescriptor+0x156>
      
    case USBD_IDX_SERIAL_STR:
      pbuf = pdev->dev.usr_device->GetSerialStrDescriptor(pdev->cfg.speed, &len);
 8004708:	687b      	ldr	r3, [r7, #4]
 800470a:	f8d3 35e8 	ldr.w	r3, [r3, #1512]	; 0x5e8
 800470e:	691b      	ldr	r3, [r3, #16]
 8004710:	687a      	ldr	r2, [r7, #4]
 8004712:	7892      	ldrb	r2, [r2, #2]
 8004714:	f107 010a 	add.w	r1, r7, #10
 8004718:	4610      	mov	r0, r2
 800471a:	4798      	blx	r3
 800471c:	60f8      	str	r0, [r7, #12]
      break;
 800471e:	e01c      	b.n	800475a <USBD_GetDescriptor+0x156>
      
    case USBD_IDX_CONFIG_STR:
      pbuf = pdev->dev.usr_device->GetConfigurationStrDescriptor(pdev->cfg.speed, &len);
 8004720:	687b      	ldr	r3, [r7, #4]
 8004722:	f8d3 35e8 	ldr.w	r3, [r3, #1512]	; 0x5e8
 8004726:	695b      	ldr	r3, [r3, #20]
 8004728:	687a      	ldr	r2, [r7, #4]
 800472a:	7892      	ldrb	r2, [r2, #2]
 800472c:	f107 010a 	add.w	r1, r7, #10
 8004730:	4610      	mov	r0, r2
 8004732:	4798      	blx	r3
 8004734:	60f8      	str	r0, [r7, #12]
      break;
 8004736:	e010      	b.n	800475a <USBD_GetDescriptor+0x156>
      
    case USBD_IDX_INTERFACE_STR:
      pbuf = pdev->dev.usr_device->GetInterfaceStrDescriptor(pdev->cfg.speed, &len);
 8004738:	687b      	ldr	r3, [r7, #4]
 800473a:	f8d3 35e8 	ldr.w	r3, [r3, #1512]	; 0x5e8
 800473e:	699b      	ldr	r3, [r3, #24]
 8004740:	687a      	ldr	r2, [r7, #4]
 8004742:	7892      	ldrb	r2, [r2, #2]
 8004744:	f107 010a 	add.w	r1, r7, #10
 8004748:	4610      	mov	r0, r2
 800474a:	4798      	blx	r3
 800474c:	60f8      	str	r0, [r7, #12]
      break;
 800474e:	e004      	b.n	800475a <USBD_GetDescriptor+0x156>
    default:
#ifdef USB_SUPPORT_USER_STRING_DESC
      pbuf = pdev->dev.class_cb->GetUsrStrDescriptor(pdev->cfg.speed, (req->wValue) , &len);
      break;
#else      
       USBD_CtlError(pdev , req);
 8004750:	6839      	ldr	r1, [r7, #0]
 8004752:	6878      	ldr	r0, [r7, #4]
 8004754:	f000 fa14 	bl	8004b80 <USBD_CtlError>
      return;
 8004758:	e025      	b.n	80047a6 <USBD_GetDescriptor+0x1a2>
#endif /* USBD_CtlError(pdev , req); */      
    }
    break;
 800475a:	e00f      	b.n	800477c <USBD_GetDescriptor+0x178>
    {
      USBD_CtlError(pdev , req);
      return;
    }
#else
      USBD_CtlError(pdev , req);
 800475c:	6839      	ldr	r1, [r7, #0]
 800475e:	6878      	ldr	r0, [r7, #4]
 8004760:	f000 fa0e 	bl	8004b80 <USBD_CtlError>
      return;
 8004764:	e01f      	b.n	80047a6 <USBD_GetDescriptor+0x1a2>
    {
      USBD_CtlError(pdev , req);
      return;
    }
#else
      USBD_CtlError(pdev , req);
 8004766:	6839      	ldr	r1, [r7, #0]
 8004768:	6878      	ldr	r0, [r7, #4]
 800476a:	f000 fa09 	bl	8004b80 <USBD_CtlError>
      return;
 800476e:	e01a      	b.n	80047a6 <USBD_GetDescriptor+0x1a2>
#endif     

    
  default: 
     USBD_CtlError(pdev , req);
 8004770:	6839      	ldr	r1, [r7, #0]
 8004772:	6878      	ldr	r0, [r7, #4]
 8004774:	f000 fa04 	bl	8004b80 <USBD_CtlError>
    return;
 8004778:	e015      	b.n	80047a6 <USBD_GetDescriptor+0x1a2>
    pbuf = pdev->dev.usr_device->GetDeviceDescriptor(pdev->cfg.speed, &len);
    if ((req->wLength == 64) ||( pdev->dev.device_status == USB_OTG_DEFAULT))  
    {                  
      len = 8;
    }
    break;
 800477a:	bf00      	nop
  default: 
     USBD_CtlError(pdev , req);
    return;
  }
  
  if((len != 0)&& (req->wLength != 0))
 800477c:	897b      	ldrh	r3, [r7, #10]
 800477e:	2b00      	cmp	r3, #0
 8004780:	d011      	beq.n	80047a6 <USBD_GetDescriptor+0x1a2>
 8004782:	683b      	ldr	r3, [r7, #0]
 8004784:	88db      	ldrh	r3, [r3, #6]
 8004786:	2b00      	cmp	r3, #0
 8004788:	d00d      	beq.n	80047a6 <USBD_GetDescriptor+0x1a2>
  {
    
    len = MIN(len , req->wLength);
 800478a:	683b      	ldr	r3, [r7, #0]
 800478c:	88da      	ldrh	r2, [r3, #6]
 800478e:	897b      	ldrh	r3, [r7, #10]
 8004790:	4293      	cmp	r3, r2
 8004792:	bf28      	it	cs
 8004794:	4613      	movcs	r3, r2
 8004796:	b29b      	uxth	r3, r3
 8004798:	817b      	strh	r3, [r7, #10]
    
    USBD_CtlSendData (pdev, 
 800479a:	897b      	ldrh	r3, [r7, #10]
 800479c:	461a      	mov	r2, r3
 800479e:	68f9      	ldr	r1, [r7, #12]
 80047a0:	6878      	ldr	r0, [r7, #4]
 80047a2:	f000 fa6d 	bl	8004c80 <USBD_CtlSendData>
                      pbuf,
                      len);
  }
  
}
 80047a6:	3710      	adds	r7, #16
 80047a8:	46bd      	mov	sp, r7
 80047aa:	bd80      	pop	{r7, pc}

080047ac <USBD_SetAddress>:
* @param  req: usb request
* @retval status
*/
static void USBD_SetAddress(USB_OTG_CORE_HANDLE  *pdev, 
                            USB_SETUP_REQ *req)
{
 80047ac:	b580      	push	{r7, lr}
 80047ae:	b084      	sub	sp, #16
 80047b0:	af00      	add	r7, sp, #0
 80047b2:	6078      	str	r0, [r7, #4]
 80047b4:	6039      	str	r1, [r7, #0]
  uint8_t  dev_addr; 
  
  if ((req->wIndex == 0) && (req->wLength == 0)) 
 80047b6:	683b      	ldr	r3, [r7, #0]
 80047b8:	889b      	ldrh	r3, [r3, #4]
 80047ba:	2b00      	cmp	r3, #0
 80047bc:	d12c      	bne.n	8004818 <USBD_SetAddress+0x6c>
 80047be:	683b      	ldr	r3, [r7, #0]
 80047c0:	88db      	ldrh	r3, [r3, #6]
 80047c2:	2b00      	cmp	r3, #0
 80047c4:	d128      	bne.n	8004818 <USBD_SetAddress+0x6c>
  {
    dev_addr = (uint8_t)(req->wValue) & 0x7F;     
 80047c6:	683b      	ldr	r3, [r7, #0]
 80047c8:	885b      	ldrh	r3, [r3, #2]
 80047ca:	b2db      	uxtb	r3, r3
 80047cc:	f003 037f 	and.w	r3, r3, #127	; 0x7f
 80047d0:	73fb      	strb	r3, [r7, #15]
    
    if (pdev->dev.device_status == USB_OTG_CONFIGURED) 
 80047d2:	687b      	ldr	r3, [r7, #4]
 80047d4:	f893 3112 	ldrb.w	r3, [r3, #274]	; 0x112
 80047d8:	2b03      	cmp	r3, #3
 80047da:	d104      	bne.n	80047e6 <USBD_SetAddress+0x3a>
    {
      USBD_CtlError(pdev , req);
 80047dc:	6839      	ldr	r1, [r7, #0]
 80047de:	6878      	ldr	r0, [r7, #4]
 80047e0:	f000 f9ce 	bl	8004b80 <USBD_CtlError>
  
  if ((req->wIndex == 0) && (req->wLength == 0)) 
  {
    dev_addr = (uint8_t)(req->wValue) & 0x7F;     
    
    if (pdev->dev.device_status == USB_OTG_CONFIGURED) 
 80047e4:	e01c      	b.n	8004820 <USBD_SetAddress+0x74>
    {
      USBD_CtlError(pdev , req);
    } 
    else 
    {
      pdev->dev.device_address = dev_addr;
 80047e6:	687b      	ldr	r3, [r7, #4]
 80047e8:	7bfa      	ldrb	r2, [r7, #15]
 80047ea:	f883 2113 	strb.w	r2, [r3, #275]	; 0x113
      DCD_EP_SetAddress(pdev, dev_addr);               
 80047ee:	7bfb      	ldrb	r3, [r7, #15]
 80047f0:	4619      	mov	r1, r3
 80047f2:	6878      	ldr	r0, [r7, #4]
 80047f4:	f7fe fc02 	bl	8002ffc <DCD_EP_SetAddress>
      USBD_CtlSendStatus(pdev);                         
 80047f8:	6878      	ldr	r0, [r7, #4]
 80047fa:	f000 faa9 	bl	8004d50 <USBD_CtlSendStatus>
      
      if (dev_addr != 0) 
 80047fe:	7bfb      	ldrb	r3, [r7, #15]
 8004800:	2b00      	cmp	r3, #0
 8004802:	d004      	beq.n	800480e <USBD_SetAddress+0x62>
      {
        pdev->dev.device_status  = USB_OTG_ADDRESSED;
 8004804:	687b      	ldr	r3, [r7, #4]
 8004806:	2202      	movs	r2, #2
 8004808:	f883 2112 	strb.w	r2, [r3, #274]	; 0x112
  
  if ((req->wIndex == 0) && (req->wLength == 0)) 
  {
    dev_addr = (uint8_t)(req->wValue) & 0x7F;     
    
    if (pdev->dev.device_status == USB_OTG_CONFIGURED) 
 800480c:	e008      	b.n	8004820 <USBD_SetAddress+0x74>
      {
        pdev->dev.device_status  = USB_OTG_ADDRESSED;
      } 
      else 
      {
        pdev->dev.device_status  = USB_OTG_DEFAULT; 
 800480e:	687b      	ldr	r3, [r7, #4]
 8004810:	2201      	movs	r2, #1
 8004812:	f883 2112 	strb.w	r2, [r3, #274]	; 0x112
  
  if ((req->wIndex == 0) && (req->wLength == 0)) 
  {
    dev_addr = (uint8_t)(req->wValue) & 0x7F;     
    
    if (pdev->dev.device_status == USB_OTG_CONFIGURED) 
 8004816:	e003      	b.n	8004820 <USBD_SetAddress+0x74>
      }
    }
  } 
  else 
  {
     USBD_CtlError(pdev , req);                        
 8004818:	6839      	ldr	r1, [r7, #0]
 800481a:	6878      	ldr	r0, [r7, #4]
 800481c:	f000 f9b0 	bl	8004b80 <USBD_CtlError>
  } 
}
 8004820:	bf00      	nop
 8004822:	3710      	adds	r7, #16
 8004824:	46bd      	mov	sp, r7
 8004826:	bd80      	pop	{r7, pc}

08004828 <USBD_SetConfig>:
* @param  req: usb request
* @retval status
*/
static void USBD_SetConfig(USB_OTG_CORE_HANDLE  *pdev, 
                           USB_SETUP_REQ *req)
{
 8004828:	b580      	push	{r7, lr}
 800482a:	b082      	sub	sp, #8
 800482c:	af00      	add	r7, sp, #0
 800482e:	6078      	str	r0, [r7, #4]
 8004830:	6039      	str	r1, [r7, #0]
  
  static uint8_t  cfgidx;
  
  cfgidx = (uint8_t)(req->wValue);                 
 8004832:	683b      	ldr	r3, [r7, #0]
 8004834:	885b      	ldrh	r3, [r3, #2]
 8004836:	b2da      	uxtb	r2, r3
 8004838:	4b37      	ldr	r3, [pc, #220]	; (8004918 <USBD_SetConfig+0xf0>)
 800483a:	701a      	strb	r2, [r3, #0]
  
  if (cfgidx > USBD_CFG_MAX_NUM ) 
 800483c:	4b36      	ldr	r3, [pc, #216]	; (8004918 <USBD_SetConfig+0xf0>)
 800483e:	781b      	ldrb	r3, [r3, #0]
 8004840:	2b01      	cmp	r3, #1
 8004842:	d904      	bls.n	800484e <USBD_SetConfig+0x26>
  {            
     USBD_CtlError(pdev , req);                              
 8004844:	6839      	ldr	r1, [r7, #0]
 8004846:	6878      	ldr	r0, [r7, #4]
 8004848:	f000 f99a 	bl	8004b80 <USBD_CtlError>
    default:					
       USBD_CtlError(pdev , req);                     
      break;
    }
  }
}
 800484c:	e05f      	b.n	800490e <USBD_SetConfig+0xe6>
  {            
     USBD_CtlError(pdev , req);                              
  } 
  else 
  {
    switch (pdev->dev.device_status) 
 800484e:	687b      	ldr	r3, [r7, #4]
 8004850:	f893 3112 	ldrb.w	r3, [r3, #274]	; 0x112
 8004854:	2b02      	cmp	r3, #2
 8004856:	d002      	beq.n	800485e <USBD_SetConfig+0x36>
 8004858:	2b03      	cmp	r3, #3
 800485a:	d01b      	beq.n	8004894 <USBD_SetConfig+0x6c>
 800485c:	e052      	b.n	8004904 <USBD_SetConfig+0xdc>
    {
    case USB_OTG_ADDRESSED:
      if (cfgidx) 
 800485e:	4b2e      	ldr	r3, [pc, #184]	; (8004918 <USBD_SetConfig+0xf0>)
 8004860:	781b      	ldrb	r3, [r3, #0]
 8004862:	2b00      	cmp	r3, #0
 8004864:	d012      	beq.n	800488c <USBD_SetConfig+0x64>
      {                                			   							   							   				
        pdev->dev.device_config = cfgidx;
 8004866:	4b2c      	ldr	r3, [pc, #176]	; (8004918 <USBD_SetConfig+0xf0>)
 8004868:	781a      	ldrb	r2, [r3, #0]
 800486a:	687b      	ldr	r3, [r7, #4]
 800486c:	f883 2110 	strb.w	r2, [r3, #272]	; 0x110
        pdev->dev.device_status = USB_OTG_CONFIGURED;
 8004870:	687b      	ldr	r3, [r7, #4]
 8004872:	2203      	movs	r2, #3
 8004874:	f883 2112 	strb.w	r2, [r3, #274]	; 0x112
        USBD_SetCfg(pdev , cfgidx);
 8004878:	4b27      	ldr	r3, [pc, #156]	; (8004918 <USBD_SetConfig+0xf0>)
 800487a:	781b      	ldrb	r3, [r3, #0]
 800487c:	4619      	mov	r1, r3
 800487e:	6878      	ldr	r0, [r7, #4]
 8004880:	f000 fc48 	bl	8005114 <USBD_SetCfg>
        USBD_CtlSendStatus(pdev);
 8004884:	6878      	ldr	r0, [r7, #4]
 8004886:	f000 fa63 	bl	8004d50 <USBD_CtlSendStatus>
      }
      else 
      {
         USBD_CtlSendStatus(pdev);
      }
      break;
 800488a:	e040      	b.n	800490e <USBD_SetConfig+0xe6>
        USBD_SetCfg(pdev , cfgidx);
        USBD_CtlSendStatus(pdev);
      }
      else 
      {
         USBD_CtlSendStatus(pdev);
 800488c:	6878      	ldr	r0, [r7, #4]
 800488e:	f000 fa5f 	bl	8004d50 <USBD_CtlSendStatus>
      }
      break;
 8004892:	e03c      	b.n	800490e <USBD_SetConfig+0xe6>
      
    case USB_OTG_CONFIGURED:
      if (cfgidx == 0) 
 8004894:	4b20      	ldr	r3, [pc, #128]	; (8004918 <USBD_SetConfig+0xf0>)
 8004896:	781b      	ldrb	r3, [r3, #0]
 8004898:	2b00      	cmp	r3, #0
 800489a:	d112      	bne.n	80048c2 <USBD_SetConfig+0x9a>
      {                           
        pdev->dev.device_status = USB_OTG_ADDRESSED;
 800489c:	687b      	ldr	r3, [r7, #4]
 800489e:	2202      	movs	r2, #2
 80048a0:	f883 2112 	strb.w	r2, [r3, #274]	; 0x112
        pdev->dev.device_config = cfgidx;          
 80048a4:	4b1c      	ldr	r3, [pc, #112]	; (8004918 <USBD_SetConfig+0xf0>)
 80048a6:	781a      	ldrb	r2, [r3, #0]
 80048a8:	687b      	ldr	r3, [r7, #4]
 80048aa:	f883 2110 	strb.w	r2, [r3, #272]	; 0x110
        USBD_ClrCfg(pdev , cfgidx);
 80048ae:	4b1a      	ldr	r3, [pc, #104]	; (8004918 <USBD_SetConfig+0xf0>)
 80048b0:	781b      	ldrb	r3, [r3, #0]
 80048b2:	4619      	mov	r1, r3
 80048b4:	6878      	ldr	r0, [r7, #4]
 80048b6:	f000 fc45 	bl	8005144 <USBD_ClrCfg>
        USBD_CtlSendStatus(pdev);
 80048ba:	6878      	ldr	r0, [r7, #4]
 80048bc:	f000 fa48 	bl	8004d50 <USBD_CtlSendStatus>
      }
      else
      {
        USBD_CtlSendStatus(pdev);
      }
      break;
 80048c0:	e025      	b.n	800490e <USBD_SetConfig+0xe6>
        pdev->dev.device_config = cfgidx;          
        USBD_ClrCfg(pdev , cfgidx);
        USBD_CtlSendStatus(pdev);
        
      } 
      else  if (cfgidx != pdev->dev.device_config) 
 80048c2:	687b      	ldr	r3, [r7, #4]
 80048c4:	f893 2110 	ldrb.w	r2, [r3, #272]	; 0x110
 80048c8:	4b13      	ldr	r3, [pc, #76]	; (8004918 <USBD_SetConfig+0xf0>)
 80048ca:	781b      	ldrb	r3, [r3, #0]
 80048cc:	429a      	cmp	r2, r3
 80048ce:	d015      	beq.n	80048fc <USBD_SetConfig+0xd4>
      {
        /* Clear old configuration */
        USBD_ClrCfg(pdev , pdev->dev.device_config);
 80048d0:	687b      	ldr	r3, [r7, #4]
 80048d2:	f893 3110 	ldrb.w	r3, [r3, #272]	; 0x110
 80048d6:	4619      	mov	r1, r3
 80048d8:	6878      	ldr	r0, [r7, #4]
 80048da:	f000 fc33 	bl	8005144 <USBD_ClrCfg>
        
        /* set new configuration */
        pdev->dev.device_config = cfgidx;
 80048de:	4b0e      	ldr	r3, [pc, #56]	; (8004918 <USBD_SetConfig+0xf0>)
 80048e0:	781a      	ldrb	r2, [r3, #0]
 80048e2:	687b      	ldr	r3, [r7, #4]
 80048e4:	f883 2110 	strb.w	r2, [r3, #272]	; 0x110
        USBD_SetCfg(pdev , cfgidx);
 80048e8:	4b0b      	ldr	r3, [pc, #44]	; (8004918 <USBD_SetConfig+0xf0>)
 80048ea:	781b      	ldrb	r3, [r3, #0]
 80048ec:	4619      	mov	r1, r3
 80048ee:	6878      	ldr	r0, [r7, #4]
 80048f0:	f000 fc10 	bl	8005114 <USBD_SetCfg>
        USBD_CtlSendStatus(pdev);
 80048f4:	6878      	ldr	r0, [r7, #4]
 80048f6:	f000 fa2b 	bl	8004d50 <USBD_CtlSendStatus>
      }
      else
      {
        USBD_CtlSendStatus(pdev);
      }
      break;
 80048fa:	e008      	b.n	800490e <USBD_SetConfig+0xe6>
        USBD_SetCfg(pdev , cfgidx);
        USBD_CtlSendStatus(pdev);
      }
      else
      {
        USBD_CtlSendStatus(pdev);
 80048fc:	6878      	ldr	r0, [r7, #4]
 80048fe:	f000 fa27 	bl	8004d50 <USBD_CtlSendStatus>
      }
      break;
 8004902:	e004      	b.n	800490e <USBD_SetConfig+0xe6>
      
    default:					
       USBD_CtlError(pdev , req);                     
 8004904:	6839      	ldr	r1, [r7, #0]
 8004906:	6878      	ldr	r0, [r7, #4]
 8004908:	f000 f93a 	bl	8004b80 <USBD_CtlError>
      break;
 800490c:	bf00      	nop
    }
  }
}
 800490e:	bf00      	nop
 8004910:	3708      	adds	r7, #8
 8004912:	46bd      	mov	sp, r7
 8004914:	bd80      	pop	{r7, pc}
 8004916:	bf00      	nop
 8004918:	200007c4 	.word	0x200007c4

0800491c <USBD_GetConfig>:
* @param  req: usb request
* @retval status
*/
static void USBD_GetConfig(USB_OTG_CORE_HANDLE  *pdev, 
                           USB_SETUP_REQ *req)
{
 800491c:	b580      	push	{r7, lr}
 800491e:	b082      	sub	sp, #8
 8004920:	af00      	add	r7, sp, #0
 8004922:	6078      	str	r0, [r7, #4]
 8004924:	6039      	str	r1, [r7, #0]
 
  if (req->wLength != 1) 
 8004926:	683b      	ldr	r3, [r7, #0]
 8004928:	88db      	ldrh	r3, [r3, #6]
 800492a:	2b01      	cmp	r3, #1
 800492c:	d004      	beq.n	8004938 <USBD_GetConfig+0x1c>
  {                   
     USBD_CtlError(pdev , req);
 800492e:	6839      	ldr	r1, [r7, #0]
 8004930:	6878      	ldr	r0, [r7, #4]
 8004932:	f000 f925 	bl	8004b80 <USBD_CtlError>
    default:
       USBD_CtlError(pdev , req);
      break;
    }
  }
}
 8004936:	e01b      	b.n	8004970 <USBD_GetConfig+0x54>
  {                   
     USBD_CtlError(pdev , req);
  }
  else 
  {
    switch (pdev->dev.device_status )  
 8004938:	687b      	ldr	r3, [r7, #4]
 800493a:	f893 3112 	ldrb.w	r3, [r3, #274]	; 0x112
 800493e:	2b02      	cmp	r3, #2
 8004940:	d002      	beq.n	8004948 <USBD_GetConfig+0x2c>
 8004942:	2b03      	cmp	r3, #3
 8004944:	d006      	beq.n	8004954 <USBD_GetConfig+0x38>
 8004946:	e00e      	b.n	8004966 <USBD_GetConfig+0x4a>
    {
    case USB_OTG_ADDRESSED:                     
      
      USBD_CtlSendData (pdev, 
 8004948:	2201      	movs	r2, #1
 800494a:	490b      	ldr	r1, [pc, #44]	; (8004978 <USBD_GetConfig+0x5c>)
 800494c:	6878      	ldr	r0, [r7, #4]
 800494e:	f000 f997 	bl	8004c80 <USBD_CtlSendData>
                        (uint8_t *)&USBD_default_cfg,
                        1);
      break;
 8004952:	e00d      	b.n	8004970 <USBD_GetConfig+0x54>
      
    case USB_OTG_CONFIGURED:                   
      
      USBD_CtlSendData (pdev, 
 8004954:	687b      	ldr	r3, [r7, #4]
 8004956:	f503 7388 	add.w	r3, r3, #272	; 0x110
 800495a:	2201      	movs	r2, #1
 800495c:	4619      	mov	r1, r3
 800495e:	6878      	ldr	r0, [r7, #4]
 8004960:	f000 f98e 	bl	8004c80 <USBD_CtlSendData>
                        &pdev->dev.device_config,
                        1);
      break;
 8004964:	e004      	b.n	8004970 <USBD_GetConfig+0x54>
      
    default:
       USBD_CtlError(pdev , req);
 8004966:	6839      	ldr	r1, [r7, #0]
 8004968:	6878      	ldr	r0, [r7, #4]
 800496a:	f000 f909 	bl	8004b80 <USBD_CtlError>
      break;
 800496e:	bf00      	nop
    }
  }
}
 8004970:	bf00      	nop
 8004972:	3708      	adds	r7, #8
 8004974:	46bd      	mov	sp, r7
 8004976:	bd80      	pop	{r7, pc}
 8004978:	200007bc 	.word	0x200007bc

0800497c <USBD_GetStatus>:
* @param  req: usb request
* @retval status
*/
static void USBD_GetStatus(USB_OTG_CORE_HANDLE  *pdev, 
                           USB_SETUP_REQ *req)
{
 800497c:	b580      	push	{r7, lr}
 800497e:	b082      	sub	sp, #8
 8004980:	af00      	add	r7, sp, #0
 8004982:	6078      	str	r0, [r7, #4]
 8004984:	6039      	str	r1, [r7, #0]
  
  switch (pdev->dev.device_status) 
 8004986:	687b      	ldr	r3, [r7, #4]
 8004988:	f893 3112 	ldrb.w	r3, [r3, #274]	; 0x112
 800498c:	3b02      	subs	r3, #2
 800498e:	2b01      	cmp	r3, #1
 8004990:	d811      	bhi.n	80049b6 <USBD_GetStatus+0x3a>
  {
  case USB_OTG_ADDRESSED:
  case USB_OTG_CONFIGURED:
    
    if (pdev->dev.DevRemoteWakeup) 
 8004992:	687b      	ldr	r3, [r7, #4]
 8004994:	f8d3 3114 	ldr.w	r3, [r3, #276]	; 0x114
 8004998:	2b00      	cmp	r3, #0
 800499a:	d003      	beq.n	80049a4 <USBD_GetStatus+0x28>
    {
      USBD_cfg_status = USB_CONFIG_SELF_POWERED | USB_CONFIG_REMOTE_WAKEUP;                                
 800499c:	4b0a      	ldr	r3, [pc, #40]	; (80049c8 <USBD_GetStatus+0x4c>)
 800499e:	2203      	movs	r2, #3
 80049a0:	601a      	str	r2, [r3, #0]
 80049a2:	e002      	b.n	80049aa <USBD_GetStatus+0x2e>
    }
    else
    {
      USBD_cfg_status = USB_CONFIG_SELF_POWERED;   
 80049a4:	4b08      	ldr	r3, [pc, #32]	; (80049c8 <USBD_GetStatus+0x4c>)
 80049a6:	2201      	movs	r2, #1
 80049a8:	601a      	str	r2, [r3, #0]
    }
    
    USBD_CtlSendData (pdev, 
 80049aa:	2201      	movs	r2, #1
 80049ac:	4906      	ldr	r1, [pc, #24]	; (80049c8 <USBD_GetStatus+0x4c>)
 80049ae:	6878      	ldr	r0, [r7, #4]
 80049b0:	f000 f966 	bl	8004c80 <USBD_CtlSendData>
                      (uint8_t *)&USBD_cfg_status,
                      1);
    break;
 80049b4:	e004      	b.n	80049c0 <USBD_GetStatus+0x44>
    
  default :
    USBD_CtlError(pdev , req);                        
 80049b6:	6839      	ldr	r1, [r7, #0]
 80049b8:	6878      	ldr	r0, [r7, #4]
 80049ba:	f000 f8e1 	bl	8004b80 <USBD_CtlError>
    break;
 80049be:	bf00      	nop
  }
}
 80049c0:	bf00      	nop
 80049c2:	3708      	adds	r7, #8
 80049c4:	46bd      	mov	sp, r7
 80049c6:	bd80      	pop	{r7, pc}
 80049c8:	200007c0 	.word	0x200007c0

080049cc <USBD_SetFeature>:
* @param  req: usb request
* @retval status
*/
static void USBD_SetFeature(USB_OTG_CORE_HANDLE  *pdev, 
                            USB_SETUP_REQ *req)
{
 80049cc:	b580      	push	{r7, lr}
 80049ce:	b084      	sub	sp, #16
 80049d0:	af00      	add	r7, sp, #0
 80049d2:	6078      	str	r0, [r7, #4]
 80049d4:	6039      	str	r1, [r7, #0]

  USB_OTG_DCTL_TypeDef     dctl;
  uint8_t test_mode = 0;
 80049d6:	2300      	movs	r3, #0
 80049d8:	73fb      	strb	r3, [r7, #15]
 
  if (req->wValue == USB_FEATURE_REMOTE_WAKEUP)
 80049da:	683b      	ldr	r3, [r7, #0]
 80049dc:	885b      	ldrh	r3, [r3, #2]
 80049de:	2b01      	cmp	r3, #1
 80049e0:	d10e      	bne.n	8004a00 <USBD_SetFeature+0x34>
  {
    pdev->dev.DevRemoteWakeup = 1;  
 80049e2:	687b      	ldr	r3, [r7, #4]
 80049e4:	2201      	movs	r2, #1
 80049e6:	f8c3 2114 	str.w	r2, [r3, #276]	; 0x114
    pdev->dev.class_cb->Setup (pdev, req);   
 80049ea:	687b      	ldr	r3, [r7, #4]
 80049ec:	f8d3 35e0 	ldr.w	r3, [r3, #1504]	; 0x5e0
 80049f0:	689b      	ldr	r3, [r3, #8]
 80049f2:	6839      	ldr	r1, [r7, #0]
 80049f4:	6878      	ldr	r0, [r7, #4]
 80049f6:	4798      	blx	r3
    USBD_CtlSendStatus(pdev);
 80049f8:	6878      	ldr	r0, [r7, #4]
 80049fa:	f000 f9a9 	bl	8004d50 <USBD_CtlSendStatus>
    }
    USB_OTG_WRITE_REG32(&pdev->regs.DREGS->DCTL, dctl.d32);
    USBD_CtlSendStatus(pdev);
  }

}
 80049fe:	e048      	b.n	8004a92 <USBD_SetFeature+0xc6>
    pdev->dev.DevRemoteWakeup = 1;  
    pdev->dev.class_cb->Setup (pdev, req);   
    USBD_CtlSendStatus(pdev);
  }

  else if ((req->wValue == USB_FEATURE_TEST_MODE) && 
 8004a00:	683b      	ldr	r3, [r7, #0]
 8004a02:	885b      	ldrh	r3, [r3, #2]
 8004a04:	2b02      	cmp	r3, #2
 8004a06:	d144      	bne.n	8004a92 <USBD_SetFeature+0xc6>
           ((req->wIndex & 0xFF) == 0))
 8004a08:	683b      	ldr	r3, [r7, #0]
 8004a0a:	889b      	ldrh	r3, [r3, #4]
 8004a0c:	b2db      	uxtb	r3, r3
    pdev->dev.DevRemoteWakeup = 1;  
    pdev->dev.class_cb->Setup (pdev, req);   
    USBD_CtlSendStatus(pdev);
  }

  else if ((req->wValue == USB_FEATURE_TEST_MODE) && 
 8004a0e:	2b00      	cmp	r3, #0
 8004a10:	d13f      	bne.n	8004a92 <USBD_SetFeature+0xc6>
           ((req->wIndex & 0xFF) == 0))
  {
    dctl.d32 = USB_OTG_READ_REG32(&pdev->regs.DREGS->DCTL);
 8004a12:	687b      	ldr	r3, [r7, #4]
 8004a14:	691b      	ldr	r3, [r3, #16]
 8004a16:	685b      	ldr	r3, [r3, #4]
 8004a18:	60bb      	str	r3, [r7, #8]
    
    test_mode = req->wIndex >> 8;
 8004a1a:	683b      	ldr	r3, [r7, #0]
 8004a1c:	889b      	ldrh	r3, [r3, #4]
 8004a1e:	0a1b      	lsrs	r3, r3, #8
 8004a20:	b29b      	uxth	r3, r3
 8004a22:	73fb      	strb	r3, [r7, #15]
    switch (test_mode) 
 8004a24:	7bfb      	ldrb	r3, [r7, #15]
 8004a26:	3b01      	subs	r3, #1
 8004a28:	2b04      	cmp	r3, #4
 8004a2a:	d82b      	bhi.n	8004a84 <USBD_SetFeature+0xb8>
 8004a2c:	a201      	add	r2, pc, #4	; (adr r2, 8004a34 <USBD_SetFeature+0x68>)
 8004a2e:	f852 f023 	ldr.w	pc, [r2, r3, lsl #2]
 8004a32:	bf00      	nop
 8004a34:	08004a49 	.word	0x08004a49
 8004a38:	08004a55 	.word	0x08004a55
 8004a3c:	08004a61 	.word	0x08004a61
 8004a40:	08004a6d 	.word	0x08004a6d
 8004a44:	08004a79 	.word	0x08004a79
    {
    case 1: // TEST_J
      dctl.b.tstctl = 1;
 8004a48:	7a3b      	ldrb	r3, [r7, #8]
 8004a4a:	2201      	movs	r2, #1
 8004a4c:	f362 1306 	bfi	r3, r2, #4, #3
 8004a50:	723b      	strb	r3, [r7, #8]
      break;
 8004a52:	e017      	b.n	8004a84 <USBD_SetFeature+0xb8>
      
    case 2: // TEST_K	
      dctl.b.tstctl = 2;
 8004a54:	7a3b      	ldrb	r3, [r7, #8]
 8004a56:	2202      	movs	r2, #2
 8004a58:	f362 1306 	bfi	r3, r2, #4, #3
 8004a5c:	723b      	strb	r3, [r7, #8]
      break;
 8004a5e:	e011      	b.n	8004a84 <USBD_SetFeature+0xb8>
      
    case 3: // TEST_SE0_NAK
      dctl.b.tstctl = 3;
 8004a60:	7a3b      	ldrb	r3, [r7, #8]
 8004a62:	2203      	movs	r2, #3
 8004a64:	f362 1306 	bfi	r3, r2, #4, #3
 8004a68:	723b      	strb	r3, [r7, #8]
      break;
 8004a6a:	e00b      	b.n	8004a84 <USBD_SetFeature+0xb8>
      
    case 4: // TEST_PACKET
      dctl.b.tstctl = 4;
 8004a6c:	7a3b      	ldrb	r3, [r7, #8]
 8004a6e:	2204      	movs	r2, #4
 8004a70:	f362 1306 	bfi	r3, r2, #4, #3
 8004a74:	723b      	strb	r3, [r7, #8]
      break;
 8004a76:	e005      	b.n	8004a84 <USBD_SetFeature+0xb8>
      
    case 5: // TEST_FORCE_ENABLE
      dctl.b.tstctl = 5;
 8004a78:	7a3b      	ldrb	r3, [r7, #8]
 8004a7a:	2205      	movs	r2, #5
 8004a7c:	f362 1306 	bfi	r3, r2, #4, #3
 8004a80:	723b      	strb	r3, [r7, #8]
      break;
 8004a82:	bf00      	nop
    }
    USB_OTG_WRITE_REG32(&pdev->regs.DREGS->DCTL, dctl.d32);
 8004a84:	687b      	ldr	r3, [r7, #4]
 8004a86:	691b      	ldr	r3, [r3, #16]
 8004a88:	68ba      	ldr	r2, [r7, #8]
 8004a8a:	605a      	str	r2, [r3, #4]
    USBD_CtlSendStatus(pdev);
 8004a8c:	6878      	ldr	r0, [r7, #4]
 8004a8e:	f000 f95f 	bl	8004d50 <USBD_CtlSendStatus>
  }

}
 8004a92:	bf00      	nop
 8004a94:	3710      	adds	r7, #16
 8004a96:	46bd      	mov	sp, r7
 8004a98:	bd80      	pop	{r7, pc}
 8004a9a:	bf00      	nop

08004a9c <USBD_ClrFeature>:
* @param  req: usb request
* @retval status
*/
static void USBD_ClrFeature(USB_OTG_CORE_HANDLE  *pdev, 
                            USB_SETUP_REQ *req)
{
 8004a9c:	b580      	push	{r7, lr}
 8004a9e:	b082      	sub	sp, #8
 8004aa0:	af00      	add	r7, sp, #0
 8004aa2:	6078      	str	r0, [r7, #4]
 8004aa4:	6039      	str	r1, [r7, #0]
  switch (pdev->dev.device_status)
 8004aa6:	687b      	ldr	r3, [r7, #4]
 8004aa8:	f893 3112 	ldrb.w	r3, [r3, #274]	; 0x112
 8004aac:	3b02      	subs	r3, #2
 8004aae:	2b01      	cmp	r3, #1
 8004ab0:	d812      	bhi.n	8004ad8 <USBD_ClrFeature+0x3c>
  {
  case USB_OTG_ADDRESSED:
  case USB_OTG_CONFIGURED:
    if (req->wValue == USB_FEATURE_REMOTE_WAKEUP) 
 8004ab2:	683b      	ldr	r3, [r7, #0]
 8004ab4:	885b      	ldrh	r3, [r3, #2]
 8004ab6:	2b01      	cmp	r3, #1
 8004ab8:	d113      	bne.n	8004ae2 <USBD_ClrFeature+0x46>
    {
      pdev->dev.DevRemoteWakeup = 0; 
 8004aba:	687b      	ldr	r3, [r7, #4]
 8004abc:	2200      	movs	r2, #0
 8004abe:	f8c3 2114 	str.w	r2, [r3, #276]	; 0x114
      pdev->dev.class_cb->Setup (pdev, req);   
 8004ac2:	687b      	ldr	r3, [r7, #4]
 8004ac4:	f8d3 35e0 	ldr.w	r3, [r3, #1504]	; 0x5e0
 8004ac8:	689b      	ldr	r3, [r3, #8]
 8004aca:	6839      	ldr	r1, [r7, #0]
 8004acc:	6878      	ldr	r0, [r7, #4]
 8004ace:	4798      	blx	r3
      USBD_CtlSendStatus(pdev);
 8004ad0:	6878      	ldr	r0, [r7, #4]
 8004ad2:	f000 f93d 	bl	8004d50 <USBD_CtlSendStatus>
    }
    break;
 8004ad6:	e004      	b.n	8004ae2 <USBD_ClrFeature+0x46>
    
  default :
     USBD_CtlError(pdev , req);
 8004ad8:	6839      	ldr	r1, [r7, #0]
 8004ada:	6878      	ldr	r0, [r7, #4]
 8004adc:	f000 f850 	bl	8004b80 <USBD_CtlError>
    break;
 8004ae0:	e000      	b.n	8004ae4 <USBD_ClrFeature+0x48>
    {
      pdev->dev.DevRemoteWakeup = 0; 
      pdev->dev.class_cb->Setup (pdev, req);   
      USBD_CtlSendStatus(pdev);
    }
    break;
 8004ae2:	bf00      	nop
    
  default :
     USBD_CtlError(pdev , req);
    break;
  }
}
 8004ae4:	bf00      	nop
 8004ae6:	3708      	adds	r7, #8
 8004ae8:	46bd      	mov	sp, r7
 8004aea:	bd80      	pop	{r7, pc}

08004aec <USBD_ParseSetupRequest>:
* @retval None
*/

void USBD_ParseSetupRequest( USB_OTG_CORE_HANDLE  *pdev,
                            USB_SETUP_REQ *req)
{
 8004aec:	b480      	push	{r7}
 8004aee:	b083      	sub	sp, #12
 8004af0:	af00      	add	r7, sp, #0
 8004af2:	6078      	str	r0, [r7, #4]
 8004af4:	6039      	str	r1, [r7, #0]
  req->bmRequest     = *(uint8_t *)  (pdev->dev.setup_packet);
 8004af6:	687b      	ldr	r3, [r7, #4]
 8004af8:	f893 25c8 	ldrb.w	r2, [r3, #1480]	; 0x5c8
 8004afc:	683b      	ldr	r3, [r7, #0]
 8004afe:	701a      	strb	r2, [r3, #0]
  req->bRequest      = *(uint8_t *)  (pdev->dev.setup_packet +  1);
 8004b00:	687b      	ldr	r3, [r7, #4]
 8004b02:	f893 25c9 	ldrb.w	r2, [r3, #1481]	; 0x5c9
 8004b06:	683b      	ldr	r3, [r7, #0]
 8004b08:	705a      	strb	r2, [r3, #1]
  req->wValue        = SWAPBYTE      (pdev->dev.setup_packet +  2);
 8004b0a:	687b      	ldr	r3, [r7, #4]
 8004b0c:	f893 35ca 	ldrb.w	r3, [r3, #1482]	; 0x5ca
 8004b10:	b29a      	uxth	r2, r3
 8004b12:	687b      	ldr	r3, [r7, #4]
 8004b14:	f893 35cb 	ldrb.w	r3, [r3, #1483]	; 0x5cb
 8004b18:	b29b      	uxth	r3, r3
 8004b1a:	021b      	lsls	r3, r3, #8
 8004b1c:	b29b      	uxth	r3, r3
 8004b1e:	4413      	add	r3, r2
 8004b20:	b29a      	uxth	r2, r3
 8004b22:	683b      	ldr	r3, [r7, #0]
 8004b24:	805a      	strh	r2, [r3, #2]
  req->wIndex        = SWAPBYTE      (pdev->dev.setup_packet +  4);
 8004b26:	687b      	ldr	r3, [r7, #4]
 8004b28:	f893 35cc 	ldrb.w	r3, [r3, #1484]	; 0x5cc
 8004b2c:	b29a      	uxth	r2, r3
 8004b2e:	687b      	ldr	r3, [r7, #4]
 8004b30:	f893 35cd 	ldrb.w	r3, [r3, #1485]	; 0x5cd
 8004b34:	b29b      	uxth	r3, r3
 8004b36:	021b      	lsls	r3, r3, #8
 8004b38:	b29b      	uxth	r3, r3
 8004b3a:	4413      	add	r3, r2
 8004b3c:	b29a      	uxth	r2, r3
 8004b3e:	683b      	ldr	r3, [r7, #0]
 8004b40:	809a      	strh	r2, [r3, #4]
  req->wLength       = SWAPBYTE      (pdev->dev.setup_packet +  6);
 8004b42:	687b      	ldr	r3, [r7, #4]
 8004b44:	f893 35ce 	ldrb.w	r3, [r3, #1486]	; 0x5ce
 8004b48:	b29a      	uxth	r2, r3
 8004b4a:	687b      	ldr	r3, [r7, #4]
 8004b4c:	f893 35cf 	ldrb.w	r3, [r3, #1487]	; 0x5cf
 8004b50:	b29b      	uxth	r3, r3
 8004b52:	021b      	lsls	r3, r3, #8
 8004b54:	b29b      	uxth	r3, r3
 8004b56:	4413      	add	r3, r2
 8004b58:	b29a      	uxth	r2, r3
 8004b5a:	683b      	ldr	r3, [r7, #0]
 8004b5c:	80da      	strh	r2, [r3, #6]
  
  pdev->dev.in_ep[0].ctl_data_len = req->wLength  ;
 8004b5e:	683b      	ldr	r3, [r7, #0]
 8004b60:	88db      	ldrh	r3, [r3, #6]
 8004b62:	461a      	mov	r2, r3
 8004b64:	687b      	ldr	r3, [r7, #4]
 8004b66:	f8c3 213c 	str.w	r2, [r3, #316]	; 0x13c
  pdev->dev.device_state = USB_OTG_EP0_SETUP;
 8004b6a:	687b      	ldr	r3, [r7, #4]
 8004b6c:	2201      	movs	r2, #1
 8004b6e:	f883 2111 	strb.w	r2, [r3, #273]	; 0x111
}
 8004b72:	bf00      	nop
 8004b74:	370c      	adds	r7, #12
 8004b76:	46bd      	mov	sp, r7
 8004b78:	f85d 7b04 	ldr.w	r7, [sp], #4
 8004b7c:	4770      	bx	lr
 8004b7e:	bf00      	nop

08004b80 <USBD_CtlError>:
* @retval None
*/

void USBD_CtlError( USB_OTG_CORE_HANDLE  *pdev,
                            USB_SETUP_REQ *req)
{
 8004b80:	b580      	push	{r7, lr}
 8004b82:	b082      	sub	sp, #8
 8004b84:	af00      	add	r7, sp, #0
 8004b86:	6078      	str	r0, [r7, #4]
 8004b88:	6039      	str	r1, [r7, #0]
  if((req->bmRequest & 0x80) == 0x80)
 8004b8a:	683b      	ldr	r3, [r7, #0]
 8004b8c:	781b      	ldrb	r3, [r3, #0]
 8004b8e:	b25b      	sxtb	r3, r3
 8004b90:	2b00      	cmp	r3, #0
 8004b92:	da04      	bge.n	8004b9e <USBD_CtlError+0x1e>
  {
    DCD_EP_Stall(pdev , 0x80);
 8004b94:	2180      	movs	r1, #128	; 0x80
 8004b96:	6878      	ldr	r0, [r7, #4]
 8004b98:	f7fe f9b8 	bl	8002f0c <DCD_EP_Stall>
 8004b9c:	e00c      	b.n	8004bb8 <USBD_CtlError+0x38>
  }
  else 
  {
    if(req->wLength == 0)
 8004b9e:	683b      	ldr	r3, [r7, #0]
 8004ba0:	88db      	ldrh	r3, [r3, #6]
 8004ba2:	2b00      	cmp	r3, #0
 8004ba4:	d104      	bne.n	8004bb0 <USBD_CtlError+0x30>
    {
       DCD_EP_Stall(pdev , 0x80);
 8004ba6:	2180      	movs	r1, #128	; 0x80
 8004ba8:	6878      	ldr	r0, [r7, #4]
 8004baa:	f7fe f9af 	bl	8002f0c <DCD_EP_Stall>
 8004bae:	e003      	b.n	8004bb8 <USBD_CtlError+0x38>
    }
    else
    {
      DCD_EP_Stall(pdev , 0);
 8004bb0:	2100      	movs	r1, #0
 8004bb2:	6878      	ldr	r0, [r7, #4]
 8004bb4:	f7fe f9aa 	bl	8002f0c <DCD_EP_Stall>
    }
  }
  USB_OTG_EP0_OutStart(pdev);  
 8004bb8:	6878      	ldr	r0, [r7, #4]
 8004bba:	f7ff fb63 	bl	8004284 <USB_OTG_EP0_OutStart>
}
 8004bbe:	bf00      	nop
 8004bc0:	3708      	adds	r7, #8
 8004bc2:	46bd      	mov	sp, r7
 8004bc4:	bd80      	pop	{r7, pc}
 8004bc6:	bf00      	nop

08004bc8 <USBD_GetString>:
  * @param  unicode : Formatted string buffer (unicode)
  * @param  len : descriptor length
  * @retval None
  */
void USBD_GetString(uint8_t *desc, uint8_t *unicode, uint16_t *len)
{
 8004bc8:	b580      	push	{r7, lr}
 8004bca:	b086      	sub	sp, #24
 8004bcc:	af00      	add	r7, sp, #0
 8004bce:	60f8      	str	r0, [r7, #12]
 8004bd0:	60b9      	str	r1, [r7, #8]
 8004bd2:	607a      	str	r2, [r7, #4]
  uint8_t idx = 0;
 8004bd4:	2300      	movs	r3, #0
 8004bd6:	75fb      	strb	r3, [r7, #23]
  
  if (desc != NULL) 
 8004bd8:	68fb      	ldr	r3, [r7, #12]
 8004bda:	2b00      	cmp	r3, #0
 8004bdc:	d033      	beq.n	8004c46 <USBD_GetString+0x7e>
  {
    *len =  USBD_GetLen(desc) * 2 + 2;    
 8004bde:	68f8      	ldr	r0, [r7, #12]
 8004be0:	f000 f836 	bl	8004c50 <USBD_GetLen>
 8004be4:	4603      	mov	r3, r0
 8004be6:	3301      	adds	r3, #1
 8004be8:	b29b      	uxth	r3, r3
 8004bea:	005b      	lsls	r3, r3, #1
 8004bec:	b29a      	uxth	r2, r3
 8004bee:	687b      	ldr	r3, [r7, #4]
 8004bf0:	801a      	strh	r2, [r3, #0]
    unicode[idx++] = *len;
 8004bf2:	7dfb      	ldrb	r3, [r7, #23]
 8004bf4:	1c5a      	adds	r2, r3, #1
 8004bf6:	75fa      	strb	r2, [r7, #23]
 8004bf8:	461a      	mov	r2, r3
 8004bfa:	68bb      	ldr	r3, [r7, #8]
 8004bfc:	4413      	add	r3, r2
 8004bfe:	687a      	ldr	r2, [r7, #4]
 8004c00:	8812      	ldrh	r2, [r2, #0]
 8004c02:	b2d2      	uxtb	r2, r2
 8004c04:	701a      	strb	r2, [r3, #0]
    unicode[idx++] =  USB_DESC_TYPE_STRING;
 8004c06:	7dfb      	ldrb	r3, [r7, #23]
 8004c08:	1c5a      	adds	r2, r3, #1
 8004c0a:	75fa      	strb	r2, [r7, #23]
 8004c0c:	461a      	mov	r2, r3
 8004c0e:	68bb      	ldr	r3, [r7, #8]
 8004c10:	4413      	add	r3, r2
 8004c12:	2203      	movs	r2, #3
 8004c14:	701a      	strb	r2, [r3, #0]
    
    while (*desc != NULL) 
 8004c16:	e012      	b.n	8004c3e <USBD_GetString+0x76>
    {
      unicode[idx++] = *desc++;
 8004c18:	7dfb      	ldrb	r3, [r7, #23]
 8004c1a:	1c5a      	adds	r2, r3, #1
 8004c1c:	75fa      	strb	r2, [r7, #23]
 8004c1e:	461a      	mov	r2, r3
 8004c20:	68bb      	ldr	r3, [r7, #8]
 8004c22:	441a      	add	r2, r3
 8004c24:	68fb      	ldr	r3, [r7, #12]
 8004c26:	1c59      	adds	r1, r3, #1
 8004c28:	60f9      	str	r1, [r7, #12]
 8004c2a:	781b      	ldrb	r3, [r3, #0]
 8004c2c:	7013      	strb	r3, [r2, #0]
      unicode[idx++] =  0x00;
 8004c2e:	7dfb      	ldrb	r3, [r7, #23]
 8004c30:	1c5a      	adds	r2, r3, #1
 8004c32:	75fa      	strb	r2, [r7, #23]
 8004c34:	461a      	mov	r2, r3
 8004c36:	68bb      	ldr	r3, [r7, #8]
 8004c38:	4413      	add	r3, r2
 8004c3a:	2200      	movs	r2, #0
 8004c3c:	701a      	strb	r2, [r3, #0]
  {
    *len =  USBD_GetLen(desc) * 2 + 2;    
    unicode[idx++] = *len;
    unicode[idx++] =  USB_DESC_TYPE_STRING;
    
    while (*desc != NULL) 
 8004c3e:	68fb      	ldr	r3, [r7, #12]
 8004c40:	781b      	ldrb	r3, [r3, #0]
 8004c42:	2b00      	cmp	r3, #0
 8004c44:	d1e8      	bne.n	8004c18 <USBD_GetString+0x50>
    {
      unicode[idx++] = *desc++;
      unicode[idx++] =  0x00;
    }
  } 
}
 8004c46:	bf00      	nop
 8004c48:	3718      	adds	r7, #24
 8004c4a:	46bd      	mov	sp, r7
 8004c4c:	bd80      	pop	{r7, pc}
 8004c4e:	bf00      	nop

08004c50 <USBD_GetLen>:
  *         return the string length
   * @param  buf : pointer to the ascii string buffer
  * @retval string length
  */
static uint8_t USBD_GetLen(uint8_t *buf)
{
 8004c50:	b480      	push	{r7}
 8004c52:	b085      	sub	sp, #20
 8004c54:	af00      	add	r7, sp, #0
 8004c56:	6078      	str	r0, [r7, #4]
    uint8_t  len = 0;
 8004c58:	2300      	movs	r3, #0
 8004c5a:	73fb      	strb	r3, [r7, #15]

    while (*buf != NULL) 
 8004c5c:	e005      	b.n	8004c6a <USBD_GetLen+0x1a>
    {
        len++;
 8004c5e:	7bfb      	ldrb	r3, [r7, #15]
 8004c60:	3301      	adds	r3, #1
 8004c62:	73fb      	strb	r3, [r7, #15]
        buf++;
 8004c64:	687b      	ldr	r3, [r7, #4]
 8004c66:	3301      	adds	r3, #1
 8004c68:	607b      	str	r3, [r7, #4]
  */
static uint8_t USBD_GetLen(uint8_t *buf)
{
    uint8_t  len = 0;

    while (*buf != NULL) 
 8004c6a:	687b      	ldr	r3, [r7, #4]
 8004c6c:	781b      	ldrb	r3, [r3, #0]
 8004c6e:	2b00      	cmp	r3, #0
 8004c70:	d1f5      	bne.n	8004c5e <USBD_GetLen+0xe>
    {
        len++;
        buf++;
    }

    return len;
 8004c72:	7bfb      	ldrb	r3, [r7, #15]
}
 8004c74:	4618      	mov	r0, r3
 8004c76:	3714      	adds	r7, #20
 8004c78:	46bd      	mov	sp, r7
 8004c7a:	f85d 7b04 	ldr.w	r7, [sp], #4
 8004c7e:	4770      	bx	lr

08004c80 <USBD_CtlSendData>:
* @retval status
*/
USBD_Status  USBD_CtlSendData (USB_OTG_CORE_HANDLE  *pdev, 
                               uint8_t *pbuf,
                               uint16_t len)
{
 8004c80:	b580      	push	{r7, lr}
 8004c82:	b086      	sub	sp, #24
 8004c84:	af00      	add	r7, sp, #0
 8004c86:	60f8      	str	r0, [r7, #12]
 8004c88:	60b9      	str	r1, [r7, #8]
 8004c8a:	4613      	mov	r3, r2
 8004c8c:	80fb      	strh	r3, [r7, #6]
  USBD_Status ret = USBD_OK;
 8004c8e:	2300      	movs	r3, #0
 8004c90:	75fb      	strb	r3, [r7, #23]
  
  pdev->dev.in_ep[0].total_data_len = len;
 8004c92:	88fa      	ldrh	r2, [r7, #6]
 8004c94:	68fb      	ldr	r3, [r7, #12]
 8004c96:	f8c3 2138 	str.w	r2, [r3, #312]	; 0x138
  pdev->dev.in_ep[0].rem_data_len   = len;
 8004c9a:	88fa      	ldrh	r2, [r7, #6]
 8004c9c:	68fb      	ldr	r3, [r7, #12]
 8004c9e:	f8c3 2134 	str.w	r2, [r3, #308]	; 0x134
  pdev->dev.device_state = USB_OTG_EP0_DATA_IN;
 8004ca2:	68fb      	ldr	r3, [r7, #12]
 8004ca4:	2202      	movs	r2, #2
 8004ca6:	f883 2111 	strb.w	r2, [r3, #273]	; 0x111

  DCD_EP_Tx (pdev, 0, pbuf, len);
 8004caa:	88fb      	ldrh	r3, [r7, #6]
 8004cac:	68ba      	ldr	r2, [r7, #8]
 8004cae:	2100      	movs	r1, #0
 8004cb0:	68f8      	ldr	r0, [r7, #12]
 8004cb2:	f7fe f8ef 	bl	8002e94 <DCD_EP_Tx>
 
  return ret;
 8004cb6:	7dfb      	ldrb	r3, [r7, #23]
}
 8004cb8:	4618      	mov	r0, r3
 8004cba:	3718      	adds	r7, #24
 8004cbc:	46bd      	mov	sp, r7
 8004cbe:	bd80      	pop	{r7, pc}

08004cc0 <USBD_CtlContinueSendData>:
* @retval status
*/
USBD_Status  USBD_CtlContinueSendData (USB_OTG_CORE_HANDLE  *pdev, 
                                       uint8_t *pbuf,
                                       uint16_t len)
{
 8004cc0:	b580      	push	{r7, lr}
 8004cc2:	b086      	sub	sp, #24
 8004cc4:	af00      	add	r7, sp, #0
 8004cc6:	60f8      	str	r0, [r7, #12]
 8004cc8:	60b9      	str	r1, [r7, #8]
 8004cca:	4613      	mov	r3, r2
 8004ccc:	80fb      	strh	r3, [r7, #6]
  USBD_Status ret = USBD_OK;
 8004cce:	2300      	movs	r3, #0
 8004cd0:	75fb      	strb	r3, [r7, #23]
  
  DCD_EP_Tx (pdev, 0, pbuf, len);
 8004cd2:	88fb      	ldrh	r3, [r7, #6]
 8004cd4:	68ba      	ldr	r2, [r7, #8]
 8004cd6:	2100      	movs	r1, #0
 8004cd8:	68f8      	ldr	r0, [r7, #12]
 8004cda:	f7fe f8db 	bl	8002e94 <DCD_EP_Tx>
  
  
  return ret;
 8004cde:	7dfb      	ldrb	r3, [r7, #23]
}
 8004ce0:	4618      	mov	r0, r3
 8004ce2:	3718      	adds	r7, #24
 8004ce4:	46bd      	mov	sp, r7
 8004ce6:	bd80      	pop	{r7, pc}

08004ce8 <USBD_CtlPrepareRx>:
* @retval status
*/
USBD_Status  USBD_CtlPrepareRx (USB_OTG_CORE_HANDLE  *pdev,
                                  uint8_t *pbuf,                                  
                                  uint16_t len)
{
 8004ce8:	b580      	push	{r7, lr}
 8004cea:	b086      	sub	sp, #24
 8004cec:	af00      	add	r7, sp, #0
 8004cee:	60f8      	str	r0, [r7, #12]
 8004cf0:	60b9      	str	r1, [r7, #8]
 8004cf2:	4613      	mov	r3, r2
 8004cf4:	80fb      	strh	r3, [r7, #6]
  USBD_Status ret = USBD_OK;
 8004cf6:	2300      	movs	r3, #0
 8004cf8:	75fb      	strb	r3, [r7, #23]
  
  pdev->dev.out_ep[0].total_data_len = len;
 8004cfa:	88fa      	ldrh	r2, [r7, #6]
 8004cfc:	68fb      	ldr	r3, [r7, #12]
 8004cfe:	f8c3 2390 	str.w	r2, [r3, #912]	; 0x390
  pdev->dev.out_ep[0].rem_data_len   = len;
 8004d02:	88fa      	ldrh	r2, [r7, #6]
 8004d04:	68fb      	ldr	r3, [r7, #12]
 8004d06:	f8c3 238c 	str.w	r2, [r3, #908]	; 0x38c
  pdev->dev.device_state = USB_OTG_EP0_DATA_OUT;
 8004d0a:	68fb      	ldr	r3, [r7, #12]
 8004d0c:	2203      	movs	r2, #3
 8004d0e:	f883 2111 	strb.w	r2, [r3, #273]	; 0x111
  
  DCD_EP_PrepareRx (pdev,
 8004d12:	88fb      	ldrh	r3, [r7, #6]
 8004d14:	68ba      	ldr	r2, [r7, #8]
 8004d16:	2100      	movs	r1, #0
 8004d18:	68f8      	ldr	r0, [r7, #12]
 8004d1a:	f7fe f879 	bl	8002e10 <DCD_EP_PrepareRx>
                    0,
                    pbuf,
                    len);
  

  return ret;
 8004d1e:	7dfb      	ldrb	r3, [r7, #23]
}
 8004d20:	4618      	mov	r0, r3
 8004d22:	3718      	adds	r7, #24
 8004d24:	46bd      	mov	sp, r7
 8004d26:	bd80      	pop	{r7, pc}

08004d28 <USBD_CtlContinueRx>:
* @retval status
*/
USBD_Status  USBD_CtlContinueRx (USB_OTG_CORE_HANDLE  *pdev, 
                                          uint8_t *pbuf,                                          
                                          uint16_t len)
{
 8004d28:	b580      	push	{r7, lr}
 8004d2a:	b086      	sub	sp, #24
 8004d2c:	af00      	add	r7, sp, #0
 8004d2e:	60f8      	str	r0, [r7, #12]
 8004d30:	60b9      	str	r1, [r7, #8]
 8004d32:	4613      	mov	r3, r2
 8004d34:	80fb      	strh	r3, [r7, #6]
  USBD_Status ret = USBD_OK;
 8004d36:	2300      	movs	r3, #0
 8004d38:	75fb      	strb	r3, [r7, #23]
  
  DCD_EP_PrepareRx (pdev,
 8004d3a:	88fb      	ldrh	r3, [r7, #6]
 8004d3c:	68ba      	ldr	r2, [r7, #8]
 8004d3e:	2100      	movs	r1, #0
 8004d40:	68f8      	ldr	r0, [r7, #12]
 8004d42:	f7fe f865 	bl	8002e10 <DCD_EP_PrepareRx>
                    0,                     
                    pbuf,                         
                    len);
  return ret;
 8004d46:	7dfb      	ldrb	r3, [r7, #23]
}
 8004d48:	4618      	mov	r0, r3
 8004d4a:	3718      	adds	r7, #24
 8004d4c:	46bd      	mov	sp, r7
 8004d4e:	bd80      	pop	{r7, pc}

08004d50 <USBD_CtlSendStatus>:
*         send zero lzngth packet on the ctl pipe
* @param  pdev: USB OTG device instance
* @retval status
*/
USBD_Status  USBD_CtlSendStatus (USB_OTG_CORE_HANDLE  *pdev)
{
 8004d50:	b580      	push	{r7, lr}
 8004d52:	b084      	sub	sp, #16
 8004d54:	af00      	add	r7, sp, #0
 8004d56:	6078      	str	r0, [r7, #4]
  USBD_Status ret = USBD_OK;
 8004d58:	2300      	movs	r3, #0
 8004d5a:	73fb      	strb	r3, [r7, #15]
  pdev->dev.device_state = USB_OTG_EP0_STATUS_IN;
 8004d5c:	687b      	ldr	r3, [r7, #4]
 8004d5e:	2204      	movs	r2, #4
 8004d60:	f883 2111 	strb.w	r2, [r3, #273]	; 0x111
  DCD_EP_Tx (pdev,
 8004d64:	2300      	movs	r3, #0
 8004d66:	2200      	movs	r2, #0
 8004d68:	2100      	movs	r1, #0
 8004d6a:	6878      	ldr	r0, [r7, #4]
 8004d6c:	f7fe f892 	bl	8002e94 <DCD_EP_Tx>
             0,
             NULL, 
             0); 
  
  USB_OTG_EP0_OutStart(pdev);  
 8004d70:	6878      	ldr	r0, [r7, #4]
 8004d72:	f7ff fa87 	bl	8004284 <USB_OTG_EP0_OutStart>
  
  return ret;
 8004d76:	7bfb      	ldrb	r3, [r7, #15]
}
 8004d78:	4618      	mov	r0, r3
 8004d7a:	3710      	adds	r7, #16
 8004d7c:	46bd      	mov	sp, r7
 8004d7e:	bd80      	pop	{r7, pc}

08004d80 <USBD_CtlReceiveStatus>:
*         receive zero lzngth packet on the ctl pipe
* @param  pdev: USB OTG device instance
* @retval status
*/
USBD_Status  USBD_CtlReceiveStatus (USB_OTG_CORE_HANDLE  *pdev)
{
 8004d80:	b580      	push	{r7, lr}
 8004d82:	b084      	sub	sp, #16
 8004d84:	af00      	add	r7, sp, #0
 8004d86:	6078      	str	r0, [r7, #4]
  USBD_Status ret = USBD_OK;
 8004d88:	2300      	movs	r3, #0
 8004d8a:	73fb      	strb	r3, [r7, #15]
  pdev->dev.device_state = USB_OTG_EP0_STATUS_OUT;  
 8004d8c:	687b      	ldr	r3, [r7, #4]
 8004d8e:	2205      	movs	r2, #5
 8004d90:	f883 2111 	strb.w	r2, [r3, #273]	; 0x111
  DCD_EP_PrepareRx ( pdev,
 8004d94:	2300      	movs	r3, #0
 8004d96:	2200      	movs	r2, #0
 8004d98:	2100      	movs	r1, #0
 8004d9a:	6878      	ldr	r0, [r7, #4]
 8004d9c:	f7fe f838 	bl	8002e10 <DCD_EP_PrepareRx>
                    0,
                    NULL,
                    0);  

  USB_OTG_EP0_OutStart(pdev);
 8004da0:	6878      	ldr	r0, [r7, #4]
 8004da2:	f7ff fa6f 	bl	8004284 <USB_OTG_EP0_OutStart>
  
  return ret;
 8004da6:	7bfb      	ldrb	r3, [r7, #15]
}
 8004da8:	4618      	mov	r0, r3
 8004daa:	3710      	adds	r7, #16
 8004dac:	46bd      	mov	sp, r7
 8004dae:	bd80      	pop	{r7, pc}

08004db0 <USBD_Init>:
void USBD_Init(USB_OTG_CORE_HANDLE *pdev,
               USB_OTG_CORE_ID_TypeDef coreID,
               USBD_DEVICE *pDevice,                  
               USBD_Class_cb_TypeDef *class_cb, 
               USBD_Usr_cb_TypeDef *usr_cb)
{
 8004db0:	b580      	push	{r7, lr}
 8004db2:	b084      	sub	sp, #16
 8004db4:	af00      	add	r7, sp, #0
 8004db6:	60f8      	str	r0, [r7, #12]
 8004db8:	607a      	str	r2, [r7, #4]
 8004dba:	603b      	str	r3, [r7, #0]
 8004dbc:	460b      	mov	r3, r1
 8004dbe:	72fb      	strb	r3, [r7, #11]
  /* Hardware Init */
  USB_OTG_BSP_Init(pdev);  
 8004dc0:	68f8      	ldr	r0, [r7, #12]
 8004dc2:	f000 fe39 	bl	8005a38 <USB_OTG_BSP_Init>
  
  USBD_DeInit(pdev);
 8004dc6:	68f8      	ldr	r0, [r7, #12]
 8004dc8:	f000 f81e 	bl	8004e08 <USBD_DeInit>
  
  /*Register class and user callbacks */
  pdev->dev.class_cb = class_cb;
 8004dcc:	68fb      	ldr	r3, [r7, #12]
 8004dce:	683a      	ldr	r2, [r7, #0]
 8004dd0:	f8c3 25e0 	str.w	r2, [r3, #1504]	; 0x5e0
  pdev->dev.usr_cb = usr_cb;  
 8004dd4:	68fb      	ldr	r3, [r7, #12]
 8004dd6:	69ba      	ldr	r2, [r7, #24]
 8004dd8:	f8c3 25e4 	str.w	r2, [r3, #1508]	; 0x5e4
  pdev->dev.usr_device = pDevice;    
 8004ddc:	68fb      	ldr	r3, [r7, #12]
 8004dde:	687a      	ldr	r2, [r7, #4]
 8004de0:	f8c3 25e8 	str.w	r2, [r3, #1512]	; 0x5e8
  
  /* set USB OTG core params */
  DCD_Init(pdev , coreID);
 8004de4:	7afb      	ldrb	r3, [r7, #11]
 8004de6:	4619      	mov	r1, r3
 8004de8:	68f8      	ldr	r0, [r7, #12]
 8004dea:	f7fd feff 	bl	8002bec <DCD_Init>
  
  /* Upon Init call usr callback */
  pdev->dev.usr_cb->Init();
 8004dee:	68fb      	ldr	r3, [r7, #12]
 8004df0:	f8d3 35e4 	ldr.w	r3, [r3, #1508]	; 0x5e4
 8004df4:	681b      	ldr	r3, [r3, #0]
 8004df6:	4798      	blx	r3
  
  /* Enable Interrupts */
  USB_OTG_BSP_EnableInterrupt(pdev);
 8004df8:	68f8      	ldr	r0, [r7, #12]
 8004dfa:	f000 fe75 	bl	8005ae8 <USB_OTG_BSP_EnableInterrupt>
}
 8004dfe:	bf00      	nop
 8004e00:	3710      	adds	r7, #16
 8004e02:	46bd      	mov	sp, r7
 8004e04:	bd80      	pop	{r7, pc}
 8004e06:	bf00      	nop

08004e08 <USBD_DeInit>:
*         Re-Initialize th deviuce library
* @param  pdev: device instance
* @retval status: status
*/
USBD_Status USBD_DeInit(USB_OTG_CORE_HANDLE *pdev)
{
 8004e08:	b480      	push	{r7}
 8004e0a:	b083      	sub	sp, #12
 8004e0c:	af00      	add	r7, sp, #0
 8004e0e:	6078      	str	r0, [r7, #4]
  /* Software Init */
  
  return USBD_OK;
 8004e10:	2300      	movs	r3, #0
}
 8004e12:	4618      	mov	r0, r3
 8004e14:	370c      	adds	r7, #12
 8004e16:	46bd      	mov	sp, r7
 8004e18:	f85d 7b04 	ldr.w	r7, [sp], #4
 8004e1c:	4770      	bx	lr
 8004e1e:	bf00      	nop

08004e20 <USBD_SetupStage>:
*         Handle the setup stage
* @param  pdev: device instance
* @retval status
*/
static uint8_t USBD_SetupStage(USB_OTG_CORE_HANDLE *pdev)
{
 8004e20:	b580      	push	{r7, lr}
 8004e22:	b084      	sub	sp, #16
 8004e24:	af00      	add	r7, sp, #0
 8004e26:	6078      	str	r0, [r7, #4]
  USB_SETUP_REQ req;
  
  USBD_ParseSetupRequest(pdev , &req);
 8004e28:	f107 0308 	add.w	r3, r7, #8
 8004e2c:	4619      	mov	r1, r3
 8004e2e:	6878      	ldr	r0, [r7, #4]
 8004e30:	f7ff fe5c 	bl	8004aec <USBD_ParseSetupRequest>
  
  switch (req.bmRequest & 0x1F) 
 8004e34:	7a3b      	ldrb	r3, [r7, #8]
 8004e36:	f003 031f 	and.w	r3, r3, #31
 8004e3a:	2b01      	cmp	r3, #1
 8004e3c:	d00a      	beq.n	8004e54 <USBD_SetupStage+0x34>
 8004e3e:	2b02      	cmp	r3, #2
 8004e40:	d00f      	beq.n	8004e62 <USBD_SetupStage+0x42>
 8004e42:	2b00      	cmp	r3, #0
 8004e44:	d114      	bne.n	8004e70 <USBD_SetupStage+0x50>
  {
  case USB_REQ_RECIPIENT_DEVICE:   
    USBD_StdDevReq (pdev, &req);
 8004e46:	f107 0308 	add.w	r3, r7, #8
 8004e4a:	4619      	mov	r1, r3
 8004e4c:	6878      	ldr	r0, [r7, #4]
 8004e4e:	f7ff fa7d 	bl	800434c <USBD_StdDevReq>
    break;
 8004e52:	e016      	b.n	8004e82 <USBD_SetupStage+0x62>
    
  case USB_REQ_RECIPIENT_INTERFACE:     
    USBD_StdItfReq(pdev, &req);
 8004e54:	f107 0308 	add.w	r3, r7, #8
 8004e58:	4619      	mov	r1, r3
 8004e5a:	6878      	ldr	r0, [r7, #4]
 8004e5c:	f7ff fac6 	bl	80043ec <USBD_StdItfReq>
    break;
 8004e60:	e00f      	b.n	8004e82 <USBD_SetupStage+0x62>
    
  case USB_REQ_RECIPIENT_ENDPOINT:        
    USBD_StdEPReq(pdev, &req);   
 8004e62:	f107 0308 	add.w	r3, r7, #8
 8004e66:	4619      	mov	r1, r3
 8004e68:	6878      	ldr	r0, [r7, #4]
 8004e6a:	f7ff faf3 	bl	8004454 <USBD_StdEPReq>
    break;
 8004e6e:	e008      	b.n	8004e82 <USBD_SetupStage+0x62>
    
  default:           
    DCD_EP_Stall(pdev , req.bmRequest & 0x80);
 8004e70:	7a3b      	ldrb	r3, [r7, #8]
 8004e72:	f023 037f 	bic.w	r3, r3, #127	; 0x7f
 8004e76:	b2db      	uxtb	r3, r3
 8004e78:	4619      	mov	r1, r3
 8004e7a:	6878      	ldr	r0, [r7, #4]
 8004e7c:	f7fe f846 	bl	8002f0c <DCD_EP_Stall>
    break;
 8004e80:	bf00      	nop
  }  
  return USBD_OK;
 8004e82:	2300      	movs	r3, #0
}
 8004e84:	4618      	mov	r0, r3
 8004e86:	3710      	adds	r7, #16
 8004e88:	46bd      	mov	sp, r7
 8004e8a:	bd80      	pop	{r7, pc}

08004e8c <USBD_DataOutStage>:
* @param  pdev: device instance
* @param  epnum: endpoint index
* @retval status
*/
static uint8_t USBD_DataOutStage(USB_OTG_CORE_HANDLE *pdev , uint8_t epnum)
{
 8004e8c:	b580      	push	{r7, lr}
 8004e8e:	b084      	sub	sp, #16
 8004e90:	af00      	add	r7, sp, #0
 8004e92:	6078      	str	r0, [r7, #4]
 8004e94:	460b      	mov	r3, r1
 8004e96:	70fb      	strb	r3, [r7, #3]
  USB_OTG_EP *ep;
  
  if(epnum == 0) 
 8004e98:	78fb      	ldrb	r3, [r7, #3]
 8004e9a:	2b00      	cmp	r3, #0
 8004e9c:	d144      	bne.n	8004f28 <USBD_DataOutStage+0x9c>
  {
    ep = &pdev->dev.out_ep[0];
 8004e9e:	687b      	ldr	r3, [r7, #4]
 8004ea0:	f503 735c 	add.w	r3, r3, #880	; 0x370
 8004ea4:	60fb      	str	r3, [r7, #12]
    if ( pdev->dev.device_state == USB_OTG_EP0_DATA_OUT)
 8004ea6:	687b      	ldr	r3, [r7, #4]
 8004ea8:	f893 3111 	ldrb.w	r3, [r3, #273]	; 0x111
 8004eac:	2b03      	cmp	r3, #3
 8004eae:	d14e      	bne.n	8004f4e <USBD_DataOutStage+0xc2>
    {
      if(ep->rem_data_len > ep->maxpacket)
 8004eb0:	68fb      	ldr	r3, [r7, #12]
 8004eb2:	69da      	ldr	r2, [r3, #28]
 8004eb4:	68fb      	ldr	r3, [r7, #12]
 8004eb6:	689b      	ldr	r3, [r3, #8]
 8004eb8:	429a      	cmp	r2, r3
 8004eba:	d920      	bls.n	8004efe <USBD_DataOutStage+0x72>
      {
        ep->rem_data_len -=  ep->maxpacket;
 8004ebc:	68fb      	ldr	r3, [r7, #12]
 8004ebe:	69da      	ldr	r2, [r3, #28]
 8004ec0:	68fb      	ldr	r3, [r7, #12]
 8004ec2:	689b      	ldr	r3, [r3, #8]
 8004ec4:	1ad2      	subs	r2, r2, r3
 8004ec6:	68fb      	ldr	r3, [r7, #12]
 8004ec8:	61da      	str	r2, [r3, #28]
        
        if(pdev->cfg.dma_enable == 1)
 8004eca:	687b      	ldr	r3, [r7, #4]
 8004ecc:	78db      	ldrb	r3, [r3, #3]
 8004ece:	2b01      	cmp	r3, #1
 8004ed0:	d106      	bne.n	8004ee0 <USBD_DataOutStage+0x54>
        {
          /* in slave mode this, is handled by the RxSTSQLvl ISR */
          ep->xfer_buff += ep->maxpacket; 
 8004ed2:	68fb      	ldr	r3, [r7, #12]
 8004ed4:	68da      	ldr	r2, [r3, #12]
 8004ed6:	68fb      	ldr	r3, [r7, #12]
 8004ed8:	689b      	ldr	r3, [r3, #8]
 8004eda:	441a      	add	r2, r3
 8004edc:	68fb      	ldr	r3, [r7, #12]
 8004ede:	60da      	str	r2, [r3, #12]
        }        
        USBD_CtlContinueRx (pdev, 
 8004ee0:	68fb      	ldr	r3, [r7, #12]
 8004ee2:	68d9      	ldr	r1, [r3, #12]
                            ep->xfer_buff,
                            MIN(ep->rem_data_len ,ep->maxpacket));
 8004ee4:	68fb      	ldr	r3, [r7, #12]
 8004ee6:	689a      	ldr	r2, [r3, #8]
 8004ee8:	68fb      	ldr	r3, [r7, #12]
 8004eea:	69db      	ldr	r3, [r3, #28]
 8004eec:	4293      	cmp	r3, r2
 8004eee:	bf28      	it	cs
 8004ef0:	4613      	movcs	r3, r2
        if(pdev->cfg.dma_enable == 1)
        {
          /* in slave mode this, is handled by the RxSTSQLvl ISR */
          ep->xfer_buff += ep->maxpacket; 
        }        
        USBD_CtlContinueRx (pdev, 
 8004ef2:	b29b      	uxth	r3, r3
 8004ef4:	461a      	mov	r2, r3
 8004ef6:	6878      	ldr	r0, [r7, #4]
 8004ef8:	f7ff ff16 	bl	8004d28 <USBD_CtlContinueRx>
 8004efc:	e027      	b.n	8004f4e <USBD_DataOutStage+0xc2>
                            ep->xfer_buff,
                            MIN(ep->rem_data_len ,ep->maxpacket));
      }
      else
      {
        if((pdev->dev.class_cb->EP0_RxReady != NULL)&&
 8004efe:	687b      	ldr	r3, [r7, #4]
 8004f00:	f8d3 35e0 	ldr.w	r3, [r3, #1504]	; 0x5e0
 8004f04:	691b      	ldr	r3, [r3, #16]
 8004f06:	2b00      	cmp	r3, #0
 8004f08:	d00a      	beq.n	8004f20 <USBD_DataOutStage+0x94>
           (pdev->dev.device_status == USB_OTG_CONFIGURED))
 8004f0a:	687b      	ldr	r3, [r7, #4]
 8004f0c:	f893 3112 	ldrb.w	r3, [r3, #274]	; 0x112
                            ep->xfer_buff,
                            MIN(ep->rem_data_len ,ep->maxpacket));
      }
      else
      {
        if((pdev->dev.class_cb->EP0_RxReady != NULL)&&
 8004f10:	2b03      	cmp	r3, #3
 8004f12:	d105      	bne.n	8004f20 <USBD_DataOutStage+0x94>
           (pdev->dev.device_status == USB_OTG_CONFIGURED))
        {
          pdev->dev.class_cb->EP0_RxReady(pdev); 
 8004f14:	687b      	ldr	r3, [r7, #4]
 8004f16:	f8d3 35e0 	ldr.w	r3, [r3, #1504]	; 0x5e0
 8004f1a:	691b      	ldr	r3, [r3, #16]
 8004f1c:	6878      	ldr	r0, [r7, #4]
 8004f1e:	4798      	blx	r3
        }
        USBD_CtlSendStatus(pdev);
 8004f20:	6878      	ldr	r0, [r7, #4]
 8004f22:	f7ff ff15 	bl	8004d50 <USBD_CtlSendStatus>
 8004f26:	e012      	b.n	8004f4e <USBD_DataOutStage+0xc2>
      }
    }
  }
  else if((pdev->dev.class_cb->DataOut != NULL)&&
 8004f28:	687b      	ldr	r3, [r7, #4]
 8004f2a:	f8d3 35e0 	ldr.w	r3, [r3, #1504]	; 0x5e0
 8004f2e:	699b      	ldr	r3, [r3, #24]
 8004f30:	2b00      	cmp	r3, #0
 8004f32:	d00c      	beq.n	8004f4e <USBD_DataOutStage+0xc2>
          (pdev->dev.device_status == USB_OTG_CONFIGURED))
 8004f34:	687b      	ldr	r3, [r7, #4]
 8004f36:	f893 3112 	ldrb.w	r3, [r3, #274]	; 0x112
        }
        USBD_CtlSendStatus(pdev);
      }
    }
  }
  else if((pdev->dev.class_cb->DataOut != NULL)&&
 8004f3a:	2b03      	cmp	r3, #3
 8004f3c:	d107      	bne.n	8004f4e <USBD_DataOutStage+0xc2>
          (pdev->dev.device_status == USB_OTG_CONFIGURED))
  {
    pdev->dev.class_cb->DataOut(pdev, epnum); 
 8004f3e:	687b      	ldr	r3, [r7, #4]
 8004f40:	f8d3 35e0 	ldr.w	r3, [r3, #1504]	; 0x5e0
 8004f44:	699b      	ldr	r3, [r3, #24]
 8004f46:	78fa      	ldrb	r2, [r7, #3]
 8004f48:	4611      	mov	r1, r2
 8004f4a:	6878      	ldr	r0, [r7, #4]
 8004f4c:	4798      	blx	r3
  }  
  return USBD_OK;
 8004f4e:	2300      	movs	r3, #0
}
 8004f50:	4618      	mov	r0, r3
 8004f52:	3710      	adds	r7, #16
 8004f54:	46bd      	mov	sp, r7
 8004f56:	bd80      	pop	{r7, pc}

08004f58 <USBD_DataInStage>:
* @param  pdev: device instance
* @param  epnum: endpoint index
* @retval status
*/
static uint8_t USBD_DataInStage(USB_OTG_CORE_HANDLE *pdev , uint8_t epnum)
{
 8004f58:	b580      	push	{r7, lr}
 8004f5a:	b084      	sub	sp, #16
 8004f5c:	af00      	add	r7, sp, #0
 8004f5e:	6078      	str	r0, [r7, #4]
 8004f60:	460b      	mov	r3, r1
 8004f62:	70fb      	strb	r3, [r7, #3]
  USB_OTG_EP *ep;
  
  if(epnum == 0) 
 8004f64:	78fb      	ldrb	r3, [r7, #3]
 8004f66:	2b00      	cmp	r3, #0
 8004f68:	d15f      	bne.n	800502a <USBD_DataInStage+0xd2>
  {
    ep = &pdev->dev.in_ep[0];
 8004f6a:	687b      	ldr	r3, [r7, #4]
 8004f6c:	f503 738c 	add.w	r3, r3, #280	; 0x118
 8004f70:	60fb      	str	r3, [r7, #12]
    if ( pdev->dev.device_state == USB_OTG_EP0_DATA_IN)
 8004f72:	687b      	ldr	r3, [r7, #4]
 8004f74:	f893 3111 	ldrb.w	r3, [r3, #273]	; 0x111
 8004f78:	2b02      	cmp	r3, #2
 8004f7a:	d169      	bne.n	8005050 <USBD_DataInStage+0xf8>
    {
      if(ep->rem_data_len > ep->maxpacket)
 8004f7c:	68fb      	ldr	r3, [r7, #12]
 8004f7e:	69da      	ldr	r2, [r3, #28]
 8004f80:	68fb      	ldr	r3, [r7, #12]
 8004f82:	689b      	ldr	r3, [r3, #8]
 8004f84:	429a      	cmp	r2, r3
 8004f86:	d91b      	bls.n	8004fc0 <USBD_DataInStage+0x68>
      {
        ep->rem_data_len -=  ep->maxpacket;
 8004f88:	68fb      	ldr	r3, [r7, #12]
 8004f8a:	69da      	ldr	r2, [r3, #28]
 8004f8c:	68fb      	ldr	r3, [r7, #12]
 8004f8e:	689b      	ldr	r3, [r3, #8]
 8004f90:	1ad2      	subs	r2, r2, r3
 8004f92:	68fb      	ldr	r3, [r7, #12]
 8004f94:	61da      	str	r2, [r3, #28]
        if(pdev->cfg.dma_enable == 1)
 8004f96:	687b      	ldr	r3, [r7, #4]
 8004f98:	78db      	ldrb	r3, [r3, #3]
 8004f9a:	2b01      	cmp	r3, #1
 8004f9c:	d106      	bne.n	8004fac <USBD_DataInStage+0x54>
        {
          /* in slave mode this, is handled by the TxFifoEmpty ISR */
          ep->xfer_buff += ep->maxpacket;
 8004f9e:	68fb      	ldr	r3, [r7, #12]
 8004fa0:	68da      	ldr	r2, [r3, #12]
 8004fa2:	68fb      	ldr	r3, [r7, #12]
 8004fa4:	689b      	ldr	r3, [r3, #8]
 8004fa6:	441a      	add	r2, r3
 8004fa8:	68fb      	ldr	r3, [r7, #12]
 8004faa:	60da      	str	r2, [r3, #12]
        }
        USBD_CtlContinueSendData (pdev, 
 8004fac:	68fb      	ldr	r3, [r7, #12]
 8004fae:	68d9      	ldr	r1, [r3, #12]
                                  ep->xfer_buff, 
                                  ep->rem_data_len);
 8004fb0:	68fb      	ldr	r3, [r7, #12]
 8004fb2:	69db      	ldr	r3, [r3, #28]
        if(pdev->cfg.dma_enable == 1)
        {
          /* in slave mode this, is handled by the TxFifoEmpty ISR */
          ep->xfer_buff += ep->maxpacket;
        }
        USBD_CtlContinueSendData (pdev, 
 8004fb4:	b29b      	uxth	r3, r3
 8004fb6:	461a      	mov	r2, r3
 8004fb8:	6878      	ldr	r0, [r7, #4]
 8004fba:	f7ff fe81 	bl	8004cc0 <USBD_CtlContinueSendData>
 8004fbe:	e047      	b.n	8005050 <USBD_DataInStage+0xf8>
                                  ep->xfer_buff, 
                                  ep->rem_data_len);
      }
      else
      { /* last packet is MPS multiple, so send ZLP packet */
        if((ep->total_data_len % ep->maxpacket == 0) &&
 8004fc0:	68fb      	ldr	r3, [r7, #12]
 8004fc2:	6a1b      	ldr	r3, [r3, #32]
 8004fc4:	68fa      	ldr	r2, [r7, #12]
 8004fc6:	6892      	ldr	r2, [r2, #8]
 8004fc8:	fbb3 f1f2 	udiv	r1, r3, r2
 8004fcc:	fb02 f201 	mul.w	r2, r2, r1
 8004fd0:	1a9b      	subs	r3, r3, r2
 8004fd2:	2b00      	cmp	r3, #0
 8004fd4:	d114      	bne.n	8005000 <USBD_DataInStage+0xa8>
           (ep->total_data_len >= ep->maxpacket) &&
 8004fd6:	68fb      	ldr	r3, [r7, #12]
 8004fd8:	6a1a      	ldr	r2, [r3, #32]
 8004fda:	68fb      	ldr	r3, [r7, #12]
 8004fdc:	689b      	ldr	r3, [r3, #8]
                                  ep->xfer_buff, 
                                  ep->rem_data_len);
      }
      else
      { /* last packet is MPS multiple, so send ZLP packet */
        if((ep->total_data_len % ep->maxpacket == 0) &&
 8004fde:	429a      	cmp	r2, r3
 8004fe0:	d30e      	bcc.n	8005000 <USBD_DataInStage+0xa8>
           (ep->total_data_len >= ep->maxpacket) &&
             (ep->total_data_len < ep->ctl_data_len ))
 8004fe2:	68fb      	ldr	r3, [r7, #12]
 8004fe4:	6a1a      	ldr	r2, [r3, #32]
 8004fe6:	68fb      	ldr	r3, [r7, #12]
 8004fe8:	6a5b      	ldr	r3, [r3, #36]	; 0x24
                                  ep->rem_data_len);
      }
      else
      { /* last packet is MPS multiple, so send ZLP packet */
        if((ep->total_data_len % ep->maxpacket == 0) &&
           (ep->total_data_len >= ep->maxpacket) &&
 8004fea:	429a      	cmp	r2, r3
 8004fec:	d208      	bcs.n	8005000 <USBD_DataInStage+0xa8>
             (ep->total_data_len < ep->ctl_data_len ))
        {
          
          USBD_CtlContinueSendData(pdev , NULL, 0);
 8004fee:	2200      	movs	r2, #0
 8004ff0:	2100      	movs	r1, #0
 8004ff2:	6878      	ldr	r0, [r7, #4]
 8004ff4:	f7ff fe64 	bl	8004cc0 <USBD_CtlContinueSendData>
          ep->ctl_data_len = 0;
 8004ff8:	68fb      	ldr	r3, [r7, #12]
 8004ffa:	2200      	movs	r2, #0
 8004ffc:	625a      	str	r2, [r3, #36]	; 0x24
 8004ffe:	e027      	b.n	8005050 <USBD_DataInStage+0xf8>
        }
        else
        {
          if((pdev->dev.class_cb->EP0_TxSent != NULL)&&
 8005000:	687b      	ldr	r3, [r7, #4]
 8005002:	f8d3 35e0 	ldr.w	r3, [r3, #1504]	; 0x5e0
 8005006:	68db      	ldr	r3, [r3, #12]
 8005008:	2b00      	cmp	r3, #0
 800500a:	d00a      	beq.n	8005022 <USBD_DataInStage+0xca>
             (pdev->dev.device_status == USB_OTG_CONFIGURED))
 800500c:	687b      	ldr	r3, [r7, #4]
 800500e:	f893 3112 	ldrb.w	r3, [r3, #274]	; 0x112
          USBD_CtlContinueSendData(pdev , NULL, 0);
          ep->ctl_data_len = 0;
        }
        else
        {
          if((pdev->dev.class_cb->EP0_TxSent != NULL)&&
 8005012:	2b03      	cmp	r3, #3
 8005014:	d105      	bne.n	8005022 <USBD_DataInStage+0xca>
             (pdev->dev.device_status == USB_OTG_CONFIGURED))
          {
            pdev->dev.class_cb->EP0_TxSent(pdev); 
 8005016:	687b      	ldr	r3, [r7, #4]
 8005018:	f8d3 35e0 	ldr.w	r3, [r3, #1504]	; 0x5e0
 800501c:	68db      	ldr	r3, [r3, #12]
 800501e:	6878      	ldr	r0, [r7, #4]
 8005020:	4798      	blx	r3
          }          
          USBD_CtlReceiveStatus(pdev);
 8005022:	6878      	ldr	r0, [r7, #4]
 8005024:	f7ff feac 	bl	8004d80 <USBD_CtlReceiveStatus>
 8005028:	e012      	b.n	8005050 <USBD_DataInStage+0xf8>
        }
      }
    }
  }
  else if((pdev->dev.class_cb->DataIn != NULL)&& 
 800502a:	687b      	ldr	r3, [r7, #4]
 800502c:	f8d3 35e0 	ldr.w	r3, [r3, #1504]	; 0x5e0
 8005030:	695b      	ldr	r3, [r3, #20]
 8005032:	2b00      	cmp	r3, #0
 8005034:	d00c      	beq.n	8005050 <USBD_DataInStage+0xf8>
          (pdev->dev.device_status == USB_OTG_CONFIGURED))
 8005036:	687b      	ldr	r3, [r7, #4]
 8005038:	f893 3112 	ldrb.w	r3, [r3, #274]	; 0x112
          USBD_CtlReceiveStatus(pdev);
        }
      }
    }
  }
  else if((pdev->dev.class_cb->DataIn != NULL)&& 
 800503c:	2b03      	cmp	r3, #3
 800503e:	d107      	bne.n	8005050 <USBD_DataInStage+0xf8>
          (pdev->dev.device_status == USB_OTG_CONFIGURED))
  {
    pdev->dev.class_cb->DataIn(pdev, epnum); 
 8005040:	687b      	ldr	r3, [r7, #4]
 8005042:	f8d3 35e0 	ldr.w	r3, [r3, #1504]	; 0x5e0
 8005046:	695b      	ldr	r3, [r3, #20]
 8005048:	78fa      	ldrb	r2, [r7, #3]
 800504a:	4611      	mov	r1, r2
 800504c:	6878      	ldr	r0, [r7, #4]
 800504e:	4798      	blx	r3
  }  
  return USBD_OK;
 8005050:	2300      	movs	r3, #0
}
 8005052:	4618      	mov	r0, r3
 8005054:	3710      	adds	r7, #16
 8005056:	46bd      	mov	sp, r7
 8005058:	bd80      	pop	{r7, pc}
 800505a:	bf00      	nop

0800505c <USBD_Reset>:
* @param  pdev: device instance
* @retval status
*/

static uint8_t USBD_Reset(USB_OTG_CORE_HANDLE  *pdev)
{
 800505c:	b580      	push	{r7, lr}
 800505e:	b082      	sub	sp, #8
 8005060:	af00      	add	r7, sp, #0
 8005062:	6078      	str	r0, [r7, #4]
  /* Open EP0 OUT */
  DCD_EP_Open(pdev,
 8005064:	2300      	movs	r3, #0
 8005066:	2240      	movs	r2, #64	; 0x40
 8005068:	2100      	movs	r1, #0
 800506a:	6878      	ldr	r0, [r7, #4]
 800506c:	f7fd fe40 	bl	8002cf0 <DCD_EP_Open>
              0x00,
              USB_OTG_MAX_EP0_SIZE,
              EP_TYPE_CTRL);
  
  /* Open EP0 IN */
  DCD_EP_Open(pdev,
 8005070:	2300      	movs	r3, #0
 8005072:	2240      	movs	r2, #64	; 0x40
 8005074:	2180      	movs	r1, #128	; 0x80
 8005076:	6878      	ldr	r0, [r7, #4]
 8005078:	f7fd fe3a 	bl	8002cf0 <DCD_EP_Open>
              0x80,
              USB_OTG_MAX_EP0_SIZE,
              EP_TYPE_CTRL);
  
  /* Upon Reset call usr call back */
  pdev->dev.device_status = USB_OTG_DEFAULT;
 800507c:	687b      	ldr	r3, [r7, #4]
 800507e:	2201      	movs	r2, #1
 8005080:	f883 2112 	strb.w	r2, [r3, #274]	; 0x112
  pdev->dev.usr_cb->DeviceReset(pdev->cfg.speed);
 8005084:	687b      	ldr	r3, [r7, #4]
 8005086:	f8d3 35e4 	ldr.w	r3, [r3, #1508]	; 0x5e4
 800508a:	685b      	ldr	r3, [r3, #4]
 800508c:	687a      	ldr	r2, [r7, #4]
 800508e:	7892      	ldrb	r2, [r2, #2]
 8005090:	4610      	mov	r0, r2
 8005092:	4798      	blx	r3
  
  return USBD_OK;
 8005094:	2300      	movs	r3, #0
}
 8005096:	4618      	mov	r0, r3
 8005098:	3708      	adds	r7, #8
 800509a:	46bd      	mov	sp, r7
 800509c:	bd80      	pop	{r7, pc}
 800509e:	bf00      	nop

080050a0 <USBD_Resume>:
* @param  pdev: device instance
* @retval status
*/

static uint8_t USBD_Resume(USB_OTG_CORE_HANDLE  *pdev)
{
 80050a0:	b580      	push	{r7, lr}
 80050a2:	b082      	sub	sp, #8
 80050a4:	af00      	add	r7, sp, #0
 80050a6:	6078      	str	r0, [r7, #4]
  /* Upon Resume call usr call back */
  pdev->dev.usr_cb->DeviceResumed(); 
 80050a8:	687b      	ldr	r3, [r7, #4]
 80050aa:	f8d3 35e4 	ldr.w	r3, [r3, #1508]	; 0x5e4
 80050ae:	691b      	ldr	r3, [r3, #16]
 80050b0:	4798      	blx	r3
  pdev->dev.device_status = USB_OTG_CONFIGURED;  
 80050b2:	687b      	ldr	r3, [r7, #4]
 80050b4:	2203      	movs	r2, #3
 80050b6:	f883 2112 	strb.w	r2, [r3, #274]	; 0x112
  return USBD_OK;
 80050ba:	2300      	movs	r3, #0
}
 80050bc:	4618      	mov	r0, r3
 80050be:	3708      	adds	r7, #8
 80050c0:	46bd      	mov	sp, r7
 80050c2:	bd80      	pop	{r7, pc}

080050c4 <USBD_Suspend>:
* @param  pdev: device instance
* @retval status
*/

static uint8_t USBD_Suspend(USB_OTG_CORE_HANDLE  *pdev)
{
 80050c4:	b580      	push	{r7, lr}
 80050c6:	b082      	sub	sp, #8
 80050c8:	af00      	add	r7, sp, #0
 80050ca:	6078      	str	r0, [r7, #4]
  
  pdev->dev.device_status  = USB_OTG_SUSPENDED;
 80050cc:	687b      	ldr	r3, [r7, #4]
 80050ce:	2204      	movs	r2, #4
 80050d0:	f883 2112 	strb.w	r2, [r3, #274]	; 0x112
  /* Upon Resume call usr call back */
  pdev->dev.usr_cb->DeviceSuspended(); 
 80050d4:	687b      	ldr	r3, [r7, #4]
 80050d6:	f8d3 35e4 	ldr.w	r3, [r3, #1508]	; 0x5e4
 80050da:	68db      	ldr	r3, [r3, #12]
 80050dc:	4798      	blx	r3
  return USBD_OK;
 80050de:	2300      	movs	r3, #0
}
 80050e0:	4618      	mov	r0, r3
 80050e2:	3708      	adds	r7, #8
 80050e4:	46bd      	mov	sp, r7
 80050e6:	bd80      	pop	{r7, pc}

080050e8 <USBD_SOF>:
* @param  pdev: device instance
* @retval status
*/

static uint8_t USBD_SOF(USB_OTG_CORE_HANDLE  *pdev)
{
 80050e8:	b580      	push	{r7, lr}
 80050ea:	b082      	sub	sp, #8
 80050ec:	af00      	add	r7, sp, #0
 80050ee:	6078      	str	r0, [r7, #4]
  if(pdev->dev.class_cb->SOF)
 80050f0:	687b      	ldr	r3, [r7, #4]
 80050f2:	f8d3 35e0 	ldr.w	r3, [r3, #1504]	; 0x5e0
 80050f6:	69db      	ldr	r3, [r3, #28]
 80050f8:	2b00      	cmp	r3, #0
 80050fa:	d005      	beq.n	8005108 <USBD_SOF+0x20>
  {
    pdev->dev.class_cb->SOF(pdev); 
 80050fc:	687b      	ldr	r3, [r7, #4]
 80050fe:	f8d3 35e0 	ldr.w	r3, [r3, #1504]	; 0x5e0
 8005102:	69db      	ldr	r3, [r3, #28]
 8005104:	6878      	ldr	r0, [r7, #4]
 8005106:	4798      	blx	r3
  }
  return USBD_OK;
 8005108:	2300      	movs	r3, #0
}
 800510a:	4618      	mov	r0, r3
 800510c:	3708      	adds	r7, #8
 800510e:	46bd      	mov	sp, r7
 8005110:	bd80      	pop	{r7, pc}
 8005112:	bf00      	nop

08005114 <USBD_SetCfg>:
* @param  cfgidx: configuration index
* @retval status
*/

USBD_Status USBD_SetCfg(USB_OTG_CORE_HANDLE  *pdev, uint8_t cfgidx)
{
 8005114:	b580      	push	{r7, lr}
 8005116:	b082      	sub	sp, #8
 8005118:	af00      	add	r7, sp, #0
 800511a:	6078      	str	r0, [r7, #4]
 800511c:	460b      	mov	r3, r1
 800511e:	70fb      	strb	r3, [r7, #3]
  pdev->dev.class_cb->Init(pdev, cfgidx); 
 8005120:	687b      	ldr	r3, [r7, #4]
 8005122:	f8d3 35e0 	ldr.w	r3, [r3, #1504]	; 0x5e0
 8005126:	681b      	ldr	r3, [r3, #0]
 8005128:	78fa      	ldrb	r2, [r7, #3]
 800512a:	4611      	mov	r1, r2
 800512c:	6878      	ldr	r0, [r7, #4]
 800512e:	4798      	blx	r3
  
  /* Upon set config call usr call back */
  pdev->dev.usr_cb->DeviceConfigured();
 8005130:	687b      	ldr	r3, [r7, #4]
 8005132:	f8d3 35e4 	ldr.w	r3, [r3, #1508]	; 0x5e4
 8005136:	689b      	ldr	r3, [r3, #8]
 8005138:	4798      	blx	r3
  return USBD_OK; 
 800513a:	2300      	movs	r3, #0
}
 800513c:	4618      	mov	r0, r3
 800513e:	3708      	adds	r7, #8
 8005140:	46bd      	mov	sp, r7
 8005142:	bd80      	pop	{r7, pc}

08005144 <USBD_ClrCfg>:
* @param  pdev: device instance
* @param  cfgidx: configuration index
* @retval status: USBD_Status
*/
USBD_Status USBD_ClrCfg(USB_OTG_CORE_HANDLE  *pdev, uint8_t cfgidx)
{
 8005144:	b580      	push	{r7, lr}
 8005146:	b082      	sub	sp, #8
 8005148:	af00      	add	r7, sp, #0
 800514a:	6078      	str	r0, [r7, #4]
 800514c:	460b      	mov	r3, r1
 800514e:	70fb      	strb	r3, [r7, #3]
  pdev->dev.class_cb->DeInit(pdev, cfgidx);   
 8005150:	687b      	ldr	r3, [r7, #4]
 8005152:	f8d3 35e0 	ldr.w	r3, [r3, #1504]	; 0x5e0
 8005156:	685b      	ldr	r3, [r3, #4]
 8005158:	78fa      	ldrb	r2, [r7, #3]
 800515a:	4611      	mov	r1, r2
 800515c:	6878      	ldr	r0, [r7, #4]
 800515e:	4798      	blx	r3
  return USBD_OK;
 8005160:	2300      	movs	r3, #0
}
 8005162:	4618      	mov	r0, r3
 8005164:	3708      	adds	r7, #8
 8005166:	46bd      	mov	sp, r7
 8005168:	bd80      	pop	{r7, pc}
 800516a:	bf00      	nop

0800516c <USBD_IsoINIncomplete>:
*         Handle iso in incomplete event
* @param  pdev: device instance
* @retval status
*/
static uint8_t USBD_IsoINIncomplete(USB_OTG_CORE_HANDLE  *pdev)
{
 800516c:	b580      	push	{r7, lr}
 800516e:	b082      	sub	sp, #8
 8005170:	af00      	add	r7, sp, #0
 8005172:	6078      	str	r0, [r7, #4]
  pdev->dev.class_cb->IsoINIncomplete(pdev);   
 8005174:	687b      	ldr	r3, [r7, #4]
 8005176:	f8d3 35e0 	ldr.w	r3, [r3, #1504]	; 0x5e0
 800517a:	6a1b      	ldr	r3, [r3, #32]
 800517c:	6878      	ldr	r0, [r7, #4]
 800517e:	4798      	blx	r3
  return USBD_OK;
 8005180:	2300      	movs	r3, #0
}
 8005182:	4618      	mov	r0, r3
 8005184:	3708      	adds	r7, #8
 8005186:	46bd      	mov	sp, r7
 8005188:	bd80      	pop	{r7, pc}
 800518a:	bf00      	nop

0800518c <USBD_IsoOUTIncomplete>:
*         Handle iso out incomplete event
* @param  pdev: device instance
* @retval status
*/
static uint8_t USBD_IsoOUTIncomplete(USB_OTG_CORE_HANDLE  *pdev)
{
 800518c:	b580      	push	{r7, lr}
 800518e:	b082      	sub	sp, #8
 8005190:	af00      	add	r7, sp, #0
 8005192:	6078      	str	r0, [r7, #4]
  pdev->dev.class_cb->IsoOUTIncomplete(pdev);   
 8005194:	687b      	ldr	r3, [r7, #4]
 8005196:	f8d3 35e0 	ldr.w	r3, [r3, #1504]	; 0x5e0
 800519a:	6a5b      	ldr	r3, [r3, #36]	; 0x24
 800519c:	6878      	ldr	r0, [r7, #4]
 800519e:	4798      	blx	r3
  return USBD_OK;
 80051a0:	2300      	movs	r3, #0
}
 80051a2:	4618      	mov	r0, r3
 80051a4:	3708      	adds	r7, #8
 80051a6:	46bd      	mov	sp, r7
 80051a8:	bd80      	pop	{r7, pc}
 80051aa:	bf00      	nop

080051ac <VCP_Init>:
 * @brief  VCP_Init
 *         Initializes the Media on the STM32
 * @param  None
 * @retval Result of the opeartion (USBD_OK in all cases)
 */
static uint16_t VCP_Init(void) {
 80051ac:	b480      	push	{r7}
 80051ae:	af00      	add	r7, sp, #0
	return USBD_OK;
 80051b0:	2300      	movs	r3, #0
}
 80051b2:	4618      	mov	r0, r3
 80051b4:	46bd      	mov	sp, r7
 80051b6:	f85d 7b04 	ldr.w	r7, [sp], #4
 80051ba:	4770      	bx	lr

080051bc <VCP_DeInit>:
 * @brief  VCP_DeInit
 *         DeInitializes the Media on the STM32
 * @param  None
 * @retval Result of the opeartion (USBD_OK in all cases)
 */
static uint16_t VCP_DeInit(void) {
 80051bc:	b480      	push	{r7}
 80051be:	af00      	add	r7, sp, #0
	return USBD_OK;
 80051c0:	2300      	movs	r3, #0
}
 80051c2:	4618      	mov	r0, r3
 80051c4:	46bd      	mov	sp, r7
 80051c6:	f85d 7b04 	ldr.w	r7, [sp], #4
 80051ca:	4770      	bx	lr

080051cc <VCP_Ctrl>:
 * @param  Cmd: Command code
 * @param  Buf: Buffer containing command data (request parameters)
 * @param  Len: Number of data to be sent (in bytes)
 * @retval Result of the operation (USBD_OK in all cases)
 */
static uint16_t VCP_Ctrl(uint32_t Cmd, uint8_t* Buf, uint32_t Len) {
 80051cc:	b480      	push	{r7}
 80051ce:	b085      	sub	sp, #20
 80051d0:	af00      	add	r7, sp, #0
 80051d2:	60f8      	str	r0, [r7, #12]
 80051d4:	60b9      	str	r1, [r7, #8]
 80051d6:	607a      	str	r2, [r7, #4]
	switch (Cmd) {
 80051d8:	68fb      	ldr	r3, [r7, #12]
 80051da:	2b23      	cmp	r3, #35	; 0x23
 80051dc:	d874      	bhi.n	80052c8 <VCP_Ctrl+0xfc>
 80051de:	a201      	add	r2, pc, #4	; (adr r2, 80051e4 <VCP_Ctrl+0x18>)
 80051e0:	f852 f023 	ldr.w	pc, [r2, r3, lsl #2]
 80051e4:	080052c9 	.word	0x080052c9
 80051e8:	080052c9 	.word	0x080052c9
 80051ec:	080052c9 	.word	0x080052c9
 80051f0:	080052c9 	.word	0x080052c9
 80051f4:	080052c9 	.word	0x080052c9
 80051f8:	080052c9 	.word	0x080052c9
 80051fc:	080052c9 	.word	0x080052c9
 8005200:	080052c9 	.word	0x080052c9
 8005204:	080052c9 	.word	0x080052c9
 8005208:	080052c9 	.word	0x080052c9
 800520c:	080052c9 	.word	0x080052c9
 8005210:	080052c9 	.word	0x080052c9
 8005214:	080052c9 	.word	0x080052c9
 8005218:	080052c9 	.word	0x080052c9
 800521c:	080052c9 	.word	0x080052c9
 8005220:	080052c9 	.word	0x080052c9
 8005224:	080052c9 	.word	0x080052c9
 8005228:	080052c9 	.word	0x080052c9
 800522c:	080052c9 	.word	0x080052c9
 8005230:	080052c9 	.word	0x080052c9
 8005234:	080052c9 	.word	0x080052c9
 8005238:	080052c9 	.word	0x080052c9
 800523c:	080052c9 	.word	0x080052c9
 8005240:	080052c9 	.word	0x080052c9
 8005244:	080052c9 	.word	0x080052c9
 8005248:	080052c9 	.word	0x080052c9
 800524c:	080052c9 	.word	0x080052c9
 8005250:	080052c9 	.word	0x080052c9
 8005254:	080052c9 	.word	0x080052c9
 8005258:	080052c9 	.word	0x080052c9
 800525c:	080052c9 	.word	0x080052c9
 8005260:	080052c9 	.word	0x080052c9
 8005264:	080052c9 	.word	0x080052c9
 8005268:	08005275 	.word	0x08005275
 800526c:	080052c9 	.word	0x080052c9
 8005270:	080052c9 	.word	0x080052c9
	case SET_LINE_CODING:
		/* Not  needed for this driver */
		break;

	case GET_LINE_CODING:
		Buf[0] = (uint8_t) (linecoding.bitrate);
 8005274:	4b18      	ldr	r3, [pc, #96]	; (80052d8 <VCP_Ctrl+0x10c>)
 8005276:	681b      	ldr	r3, [r3, #0]
 8005278:	b2da      	uxtb	r2, r3
 800527a:	68bb      	ldr	r3, [r7, #8]
 800527c:	701a      	strb	r2, [r3, #0]
		Buf[1] = (uint8_t) (linecoding.bitrate >> 8);
 800527e:	68bb      	ldr	r3, [r7, #8]
 8005280:	3301      	adds	r3, #1
 8005282:	4a15      	ldr	r2, [pc, #84]	; (80052d8 <VCP_Ctrl+0x10c>)
 8005284:	6812      	ldr	r2, [r2, #0]
 8005286:	0a12      	lsrs	r2, r2, #8
 8005288:	b2d2      	uxtb	r2, r2
 800528a:	701a      	strb	r2, [r3, #0]
		Buf[2] = (uint8_t) (linecoding.bitrate >> 16);
 800528c:	68bb      	ldr	r3, [r7, #8]
 800528e:	3302      	adds	r3, #2
 8005290:	4a11      	ldr	r2, [pc, #68]	; (80052d8 <VCP_Ctrl+0x10c>)
 8005292:	6812      	ldr	r2, [r2, #0]
 8005294:	0c12      	lsrs	r2, r2, #16
 8005296:	b2d2      	uxtb	r2, r2
 8005298:	701a      	strb	r2, [r3, #0]
		Buf[3] = (uint8_t) (linecoding.bitrate >> 24);
 800529a:	68bb      	ldr	r3, [r7, #8]
 800529c:	3303      	adds	r3, #3
 800529e:	4a0e      	ldr	r2, [pc, #56]	; (80052d8 <VCP_Ctrl+0x10c>)
 80052a0:	6812      	ldr	r2, [r2, #0]
 80052a2:	0e12      	lsrs	r2, r2, #24
 80052a4:	b2d2      	uxtb	r2, r2
 80052a6:	701a      	strb	r2, [r3, #0]
		Buf[4] = linecoding.format;
 80052a8:	68bb      	ldr	r3, [r7, #8]
 80052aa:	3304      	adds	r3, #4
 80052ac:	4a0a      	ldr	r2, [pc, #40]	; (80052d8 <VCP_Ctrl+0x10c>)
 80052ae:	7912      	ldrb	r2, [r2, #4]
 80052b0:	701a      	strb	r2, [r3, #0]
		Buf[5] = linecoding.paritytype;
 80052b2:	68bb      	ldr	r3, [r7, #8]
 80052b4:	3305      	adds	r3, #5
 80052b6:	4a08      	ldr	r2, [pc, #32]	; (80052d8 <VCP_Ctrl+0x10c>)
 80052b8:	7952      	ldrb	r2, [r2, #5]
 80052ba:	701a      	strb	r2, [r3, #0]
		Buf[6] = linecoding.datatype;
 80052bc:	68bb      	ldr	r3, [r7, #8]
 80052be:	3306      	adds	r3, #6
 80052c0:	4a05      	ldr	r2, [pc, #20]	; (80052d8 <VCP_Ctrl+0x10c>)
 80052c2:	7992      	ldrb	r2, [r2, #6]
 80052c4:	701a      	strb	r2, [r3, #0]
		break;
 80052c6:	e000      	b.n	80052ca <VCP_Ctrl+0xfe>
	case SEND_BREAK:
		/* Not  needed for this driver */
		break;

	default:
		break;
 80052c8:	bf00      	nop
	}

	return USBD_OK;
 80052ca:	2300      	movs	r3, #0
}
 80052cc:	4618      	mov	r0, r3
 80052ce:	3714      	adds	r7, #20
 80052d0:	46bd      	mov	sp, r7
 80052d2:	f85d 7b04 	ldr.w	r7, [sp], #4
 80052d6:	4770      	bx	lr
 80052d8:	20000054 	.word	0x20000054

080052dc <VCP_send_buffer>:
		i++;
	}
	VCP_DataTx(buf, i);
}

void VCP_send_buffer(uint8_t* buf, int len) {
 80052dc:	b580      	push	{r7, lr}
 80052de:	b082      	sub	sp, #8
 80052e0:	af00      	add	r7, sp, #0
 80052e2:	6078      	str	r0, [r7, #4]
 80052e4:	6039      	str	r1, [r7, #0]
	VCP_DataTx(buf, len);
 80052e6:	683b      	ldr	r3, [r7, #0]
 80052e8:	4619      	mov	r1, r3
 80052ea:	6878      	ldr	r0, [r7, #4]
 80052ec:	f000 f804 	bl	80052f8 <VCP_DataTx>
}
 80052f0:	bf00      	nop
 80052f2:	3708      	adds	r7, #8
 80052f4:	46bd      	mov	sp, r7
 80052f6:	bd80      	pop	{r7, pc}

080052f8 <VCP_DataTx>:
 *         this function.
 * @param  Buf: Buffer of data to be sent
 * @param  Len: Number of data to be sent (in bytes)
 * @retval Result of the opeartion: USBD_OK if all operations are OK else VCP_FAIL
 */
static uint16_t VCP_DataTx(uint8_t* Buf, uint32_t Len) {
 80052f8:	b480      	push	{r7}
 80052fa:	b085      	sub	sp, #20
 80052fc:	af00      	add	r7, sp, #0
 80052fe:	6078      	str	r0, [r7, #4]
 8005300:	6039      	str	r1, [r7, #0]
	uint32_t i = 0;
 8005302:	2300      	movs	r3, #0
 8005304:	60fb      	str	r3, [r7, #12]
	while (i < Len) {
 8005306:	e017      	b.n	8005338 <VCP_DataTx+0x40>
		APP_Rx_Buffer[APP_Rx_ptr_in] = *(Buf + i);
 8005308:	4b11      	ldr	r3, [pc, #68]	; (8005350 <VCP_DataTx+0x58>)
 800530a:	681b      	ldr	r3, [r3, #0]
 800530c:	6879      	ldr	r1, [r7, #4]
 800530e:	68fa      	ldr	r2, [r7, #12]
 8005310:	440a      	add	r2, r1
 8005312:	7811      	ldrb	r1, [r2, #0]
 8005314:	4a0f      	ldr	r2, [pc, #60]	; (8005354 <VCP_DataTx+0x5c>)
 8005316:	54d1      	strb	r1, [r2, r3]
		APP_Rx_ptr_in++;
 8005318:	4b0d      	ldr	r3, [pc, #52]	; (8005350 <VCP_DataTx+0x58>)
 800531a:	681b      	ldr	r3, [r3, #0]
 800531c:	3301      	adds	r3, #1
 800531e:	4a0c      	ldr	r2, [pc, #48]	; (8005350 <VCP_DataTx+0x58>)
 8005320:	6013      	str	r3, [r2, #0]
		i++;
 8005322:	68fb      	ldr	r3, [r7, #12]
 8005324:	3301      	adds	r3, #1
 8005326:	60fb      	str	r3, [r7, #12]
		/* To avoid buffer overflow */
		if (APP_Rx_ptr_in == APP_RX_DATA_SIZE) {
 8005328:	4b09      	ldr	r3, [pc, #36]	; (8005350 <VCP_DataTx+0x58>)
 800532a:	681b      	ldr	r3, [r3, #0]
 800532c:	f5b3 6f00 	cmp.w	r3, #2048	; 0x800
 8005330:	d102      	bne.n	8005338 <VCP_DataTx+0x40>
			APP_Rx_ptr_in = 0;
 8005332:	4b07      	ldr	r3, [pc, #28]	; (8005350 <VCP_DataTx+0x58>)
 8005334:	2200      	movs	r2, #0
 8005336:	601a      	str	r2, [r3, #0]
 * @param  Len: Number of data to be sent (in bytes)
 * @retval Result of the opeartion: USBD_OK if all operations are OK else VCP_FAIL
 */
static uint16_t VCP_DataTx(uint8_t* Buf, uint32_t Len) {
	uint32_t i = 0;
	while (i < Len) {
 8005338:	68fa      	ldr	r2, [r7, #12]
 800533a:	683b      	ldr	r3, [r7, #0]
 800533c:	429a      	cmp	r2, r3
 800533e:	d3e3      	bcc.n	8005308 <VCP_DataTx+0x10>
		if (APP_Rx_ptr_in == APP_RX_DATA_SIZE) {
			APP_Rx_ptr_in = 0;
		}
	}

	return USBD_OK;
 8005340:	2300      	movs	r3, #0
}
 8005342:	4618      	mov	r0, r3
 8005344:	3714      	adds	r7, #20
 8005346:	46bd      	mov	sp, r7
 8005348:	f85d 7b04 	ldr.w	r7, [sp], #4
 800534c:	4770      	bx	lr
 800534e:	bf00      	nop
 8005350:	200007cc 	.word	0x200007cc
 8005354:	200009b8 	.word	0x200009b8

08005358 <VCP_DataRx>:
#define APP_TX_BUF_SIZE 128
uint8_t APP_Tx_Buffer[APP_TX_BUF_SIZE];
uint32_t APP_tx_ptr_head;
uint32_t APP_tx_ptr_tail;

static uint16_t VCP_DataRx(uint8_t* Buf, uint32_t Len) {
 8005358:	b480      	push	{r7}
 800535a:	b085      	sub	sp, #20
 800535c:	af00      	add	r7, sp, #0
 800535e:	6078      	str	r0, [r7, #4]
 8005360:	6039      	str	r1, [r7, #0]
	uint32_t i;

	for (i = 0; i < Len; i++) {
 8005362:	2300      	movs	r3, #0
 8005364:	60fb      	str	r3, [r7, #12]
 8005366:	e01e      	b.n	80053a6 <VCP_DataRx+0x4e>
		APP_Tx_Buffer[APP_tx_ptr_head] = *(Buf + i);
 8005368:	4b14      	ldr	r3, [pc, #80]	; (80053bc <VCP_DataRx+0x64>)
 800536a:	681b      	ldr	r3, [r3, #0]
 800536c:	6879      	ldr	r1, [r7, #4]
 800536e:	68fa      	ldr	r2, [r7, #12]
 8005370:	440a      	add	r2, r1
 8005372:	7811      	ldrb	r1, [r2, #0]
 8005374:	4a12      	ldr	r2, [pc, #72]	; (80053c0 <VCP_DataRx+0x68>)
 8005376:	54d1      	strb	r1, [r2, r3]
		APP_tx_ptr_head++;
 8005378:	4b10      	ldr	r3, [pc, #64]	; (80053bc <VCP_DataRx+0x64>)
 800537a:	681b      	ldr	r3, [r3, #0]
 800537c:	3301      	adds	r3, #1
 800537e:	4a0f      	ldr	r2, [pc, #60]	; (80053bc <VCP_DataRx+0x64>)
 8005380:	6013      	str	r3, [r2, #0]
		if (APP_tx_ptr_head == APP_TX_BUF_SIZE)
 8005382:	4b0e      	ldr	r3, [pc, #56]	; (80053bc <VCP_DataRx+0x64>)
 8005384:	681b      	ldr	r3, [r3, #0]
 8005386:	2b80      	cmp	r3, #128	; 0x80
 8005388:	d102      	bne.n	8005390 <VCP_DataRx+0x38>
			APP_tx_ptr_head = 0;
 800538a:	4b0c      	ldr	r3, [pc, #48]	; (80053bc <VCP_DataRx+0x64>)
 800538c:	2200      	movs	r2, #0
 800538e:	601a      	str	r2, [r3, #0]

		if (APP_tx_ptr_head == APP_tx_ptr_tail)
 8005390:	4b0a      	ldr	r3, [pc, #40]	; (80053bc <VCP_DataRx+0x64>)
 8005392:	681a      	ldr	r2, [r3, #0]
 8005394:	4b0b      	ldr	r3, [pc, #44]	; (80053c4 <VCP_DataRx+0x6c>)
 8005396:	681b      	ldr	r3, [r3, #0]
 8005398:	429a      	cmp	r2, r3
 800539a:	d101      	bne.n	80053a0 <VCP_DataRx+0x48>
			return USBD_FAIL;
 800539c:	2302      	movs	r3, #2
 800539e:	e007      	b.n	80053b0 <VCP_DataRx+0x58>
uint32_t APP_tx_ptr_tail;

static uint16_t VCP_DataRx(uint8_t* Buf, uint32_t Len) {
	uint32_t i;

	for (i = 0; i < Len; i++) {
 80053a0:	68fb      	ldr	r3, [r7, #12]
 80053a2:	3301      	adds	r3, #1
 80053a4:	60fb      	str	r3, [r7, #12]
 80053a6:	68fa      	ldr	r2, [r7, #12]
 80053a8:	683b      	ldr	r3, [r7, #0]
 80053aa:	429a      	cmp	r2, r3
 80053ac:	d3dc      	bcc.n	8005368 <VCP_DataRx+0x10>

		if (APP_tx_ptr_head == APP_tx_ptr_tail)
			return USBD_FAIL;
	}

	return USBD_OK;
 80053ae:	2300      	movs	r3, #0
}
 80053b0:	4618      	mov	r0, r3
 80053b2:	3714      	adds	r7, #20
 80053b4:	46bd      	mov	sp, r7
 80053b6:	f85d 7b04 	ldr.w	r7, [sp], #4
 80053ba:	4770      	bx	lr
 80053bc:	20000928 	.word	0x20000928
 80053c0:	20000894 	.word	0x20000894
 80053c4:	20000914 	.word	0x20000914

080053c8 <usbd_cdc_Init>:
  * @param  cfgidx: Configuration index
  * @retval status
  */
static uint8_t  usbd_cdc_Init (void  *pdev, 
                               uint8_t cfgidx)
{
 80053c8:	b580      	push	{r7, lr}
 80053ca:	b084      	sub	sp, #16
 80053cc:	af00      	add	r7, sp, #0
 80053ce:	6078      	str	r0, [r7, #4]
 80053d0:	460b      	mov	r3, r1
 80053d2:	70fb      	strb	r3, [r7, #3]
  uint8_t *pbuf;

  /* Open EP IN */
  DCD_EP_Open(pdev,
              CDC_IN_EP,
              CDC_DATA_IN_PACKET_SIZE,
 80053d4:	687b      	ldr	r3, [r7, #4]
 80053d6:	f8d3 35ec 	ldr.w	r3, [r3, #1516]	; 0x5ec
 80053da:	3339      	adds	r3, #57	; 0x39
                               uint8_t cfgidx)
{
  uint8_t *pbuf;

  /* Open EP IN */
  DCD_EP_Open(pdev,
 80053dc:	881a      	ldrh	r2, [r3, #0]
 80053de:	2302      	movs	r3, #2
 80053e0:	2181      	movs	r1, #129	; 0x81
 80053e2:	6878      	ldr	r0, [r7, #4]
 80053e4:	f7fd fc84 	bl	8002cf0 <DCD_EP_Open>
              USB_OTG_EP_BULK);
  
  /* Open EP OUT */
  DCD_EP_Open(pdev,
              CDC_OUT_EP,
              CDC_DATA_OUT_PACKET_SIZE,
 80053e8:	687b      	ldr	r3, [r7, #4]
 80053ea:	f8d3 35ec 	ldr.w	r3, [r3, #1516]	; 0x5ec
 80053ee:	3340      	adds	r3, #64	; 0x40
              CDC_IN_EP,
              CDC_DATA_IN_PACKET_SIZE,
              USB_OTG_EP_BULK);
  
  /* Open EP OUT */
  DCD_EP_Open(pdev,
 80053f0:	881a      	ldrh	r2, [r3, #0]
 80053f2:	2302      	movs	r3, #2
 80053f4:	2101      	movs	r1, #1
 80053f6:	6878      	ldr	r0, [r7, #4]
 80053f8:	f7fd fc7a 	bl	8002cf0 <DCD_EP_Open>
              CDC_OUT_EP,
              CDC_DATA_OUT_PACKET_SIZE,
              USB_OTG_EP_BULK);
  
  /* Open Command IN EP */
  DCD_EP_Open(pdev,
 80053fc:	2303      	movs	r3, #3
 80053fe:	2208      	movs	r2, #8
 8005400:	2182      	movs	r1, #130	; 0x82
 8005402:	6878      	ldr	r0, [r7, #4]
 8005404:	f7fd fc74 	bl	8002cf0 <DCD_EP_Open>
              CDC_CMD_EP,
              CDC_CMD_PACKET_SZE,
              USB_OTG_EP_INT);
  
  pbuf = (uint8_t *)USBD_DeviceDesc;
 8005408:	4b0d      	ldr	r3, [pc, #52]	; (8005440 <usbd_cdc_Init+0x78>)
 800540a:	60fb      	str	r3, [r7, #12]
  pbuf[4] = DEVICE_CLASS_CDC;
 800540c:	68fb      	ldr	r3, [r7, #12]
 800540e:	3304      	adds	r3, #4
 8005410:	2202      	movs	r2, #2
 8005412:	701a      	strb	r2, [r3, #0]
  pbuf[5] = DEVICE_SUBCLASS_CDC;
 8005414:	68fb      	ldr	r3, [r7, #12]
 8005416:	3305      	adds	r3, #5
 8005418:	2200      	movs	r2, #0
 800541a:	701a      	strb	r2, [r3, #0]
  
  /* Initialize the Interface physical components */
  APP_FOPS.pIf_Init();
 800541c:	4b09      	ldr	r3, [pc, #36]	; (8005444 <usbd_cdc_Init+0x7c>)
 800541e:	681b      	ldr	r3, [r3, #0]
 8005420:	4798      	blx	r3

  /* Prepare Out endpoint to receive next packet */
  DCD_EP_PrepareRx(pdev,
                   CDC_OUT_EP,
                   (uint8_t*)(USB_Rx_Buffer),
                   CDC_DATA_OUT_PACKET_SIZE);
 8005422:	687b      	ldr	r3, [r7, #4]
 8005424:	f8d3 35ec 	ldr.w	r3, [r3, #1516]	; 0x5ec
 8005428:	3340      	adds	r3, #64	; 0x40
  
  /* Initialize the Interface physical components */
  APP_FOPS.pIf_Init();

  /* Prepare Out endpoint to receive next packet */
  DCD_EP_PrepareRx(pdev,
 800542a:	881b      	ldrh	r3, [r3, #0]
 800542c:	4a06      	ldr	r2, [pc, #24]	; (8005448 <usbd_cdc_Init+0x80>)
 800542e:	2101      	movs	r1, #1
 8005430:	6878      	ldr	r0, [r7, #4]
 8005432:	f7fd fced 	bl	8002e10 <DCD_EP_PrepareRx>
                   CDC_OUT_EP,
                   (uint8_t*)(USB_Rx_Buffer),
                   CDC_DATA_OUT_PACKET_SIZE);
  
  return USBD_OK;
 8005436:	2300      	movs	r3, #0
}
 8005438:	4618      	mov	r0, r3
 800543a:	3710      	adds	r7, #16
 800543c:	46bd      	mov	sp, r7
 800543e:	bd80      	pop	{r7, pc}
 8005440:	2000011c 	.word	0x2000011c
 8005444:	2000005c 	.word	0x2000005c
 8005448:	20000970 	.word	0x20000970

0800544c <usbd_cdc_DeInit>:
  * @param  cfgidx: Configuration index
  * @retval status
  */
static uint8_t  usbd_cdc_DeInit (void  *pdev, 
                                 uint8_t cfgidx)
{
 800544c:	b580      	push	{r7, lr}
 800544e:	b082      	sub	sp, #8
 8005450:	af00      	add	r7, sp, #0
 8005452:	6078      	str	r0, [r7, #4]
 8005454:	460b      	mov	r3, r1
 8005456:	70fb      	strb	r3, [r7, #3]
  /* Open EP IN */
  DCD_EP_Close(pdev,
 8005458:	2181      	movs	r1, #129	; 0x81
 800545a:	6878      	ldr	r0, [r7, #4]
 800545c:	f7fd fc9e 	bl	8002d9c <DCD_EP_Close>
              CDC_IN_EP);
  
  /* Open EP OUT */
  DCD_EP_Close(pdev,
 8005460:	2101      	movs	r1, #1
 8005462:	6878      	ldr	r0, [r7, #4]
 8005464:	f7fd fc9a 	bl	8002d9c <DCD_EP_Close>
              CDC_OUT_EP);
  
  /* Open Command IN EP */
  DCD_EP_Close(pdev,
 8005468:	2182      	movs	r1, #130	; 0x82
 800546a:	6878      	ldr	r0, [r7, #4]
 800546c:	f7fd fc96 	bl	8002d9c <DCD_EP_Close>
              CDC_CMD_EP);

  /* Restore default state of the Interface physical components */
  APP_FOPS.pIf_DeInit();
 8005470:	4b03      	ldr	r3, [pc, #12]	; (8005480 <usbd_cdc_DeInit+0x34>)
 8005472:	685b      	ldr	r3, [r3, #4]
 8005474:	4798      	blx	r3
  
  return USBD_OK;
 8005476:	2300      	movs	r3, #0
}
 8005478:	4618      	mov	r0, r3
 800547a:	3708      	adds	r7, #8
 800547c:	46bd      	mov	sp, r7
 800547e:	bd80      	pop	{r7, pc}
 8005480:	2000005c 	.word	0x2000005c

08005484 <usbd_cdc_Setup>:
  * @param  req: usb requests
  * @retval status
  */
static uint8_t  usbd_cdc_Setup (void  *pdev, 
                                USB_SETUP_REQ *req)
{
 8005484:	b580      	push	{r7, lr}
 8005486:	b084      	sub	sp, #16
 8005488:	af00      	add	r7, sp, #0
 800548a:	6078      	str	r0, [r7, #4]
 800548c:	6039      	str	r1, [r7, #0]
  uint16_t len;
  uint8_t  *pbuf;
  
  switch (req->bmRequest & USB_REQ_TYPE_MASK)
 800548e:	683b      	ldr	r3, [r7, #0]
 8005490:	781b      	ldrb	r3, [r3, #0]
 8005492:	f003 0360 	and.w	r3, r3, #96	; 0x60
 8005496:	2b00      	cmp	r3, #0
 8005498:	d03d      	beq.n	8005516 <usbd_cdc_Setup+0x92>
 800549a:	2b20      	cmp	r3, #32
 800549c:	d135      	bne.n	800550a <usbd_cdc_Setup+0x86>
  {
    /* CDC Class Requests -------------------------------*/
  case USB_REQ_TYPE_CLASS :
      /* Check if the request is a data setup packet */
      if (req->wLength)
 800549e:	683b      	ldr	r3, [r7, #0]
 80054a0:	88db      	ldrh	r3, [r3, #6]
 80054a2:	2b00      	cmp	r3, #0
 80054a4:	d027      	beq.n	80054f6 <usbd_cdc_Setup+0x72>
      {
        /* Check if the request is Device-to-Host */
        if (req->bmRequest & 0x80)
 80054a6:	683b      	ldr	r3, [r7, #0]
 80054a8:	781b      	ldrb	r3, [r3, #0]
 80054aa:	b25b      	sxtb	r3, r3
 80054ac:	2b00      	cmp	r3, #0
 80054ae:	da10      	bge.n	80054d2 <usbd_cdc_Setup+0x4e>
        {
          /* Get the data to be sent to Host from interface layer */
          APP_FOPS.pIf_Ctrl(req->bRequest, CmdBuff, req->wLength);
 80054b0:	4b35      	ldr	r3, [pc, #212]	; (8005588 <usbd_cdc_Setup+0x104>)
 80054b2:	689b      	ldr	r3, [r3, #8]
 80054b4:	683a      	ldr	r2, [r7, #0]
 80054b6:	7852      	ldrb	r2, [r2, #1]
 80054b8:	4610      	mov	r0, r2
 80054ba:	683a      	ldr	r2, [r7, #0]
 80054bc:	88d2      	ldrh	r2, [r2, #6]
 80054be:	4933      	ldr	r1, [pc, #204]	; (800558c <usbd_cdc_Setup+0x108>)
 80054c0:	4798      	blx	r3
          
          /* Send the data to the host */
          USBD_CtlSendData (pdev, 
 80054c2:	683b      	ldr	r3, [r7, #0]
 80054c4:	88db      	ldrh	r3, [r3, #6]
 80054c6:	461a      	mov	r2, r3
 80054c8:	4930      	ldr	r1, [pc, #192]	; (800558c <usbd_cdc_Setup+0x108>)
 80054ca:	6878      	ldr	r0, [r7, #4]
 80054cc:	f7ff fbd8 	bl	8004c80 <USBD_CtlSendData>
 80054d0:	e019      	b.n	8005506 <usbd_cdc_Setup+0x82>
                            req->wLength);          
        }
        else /* Host-to-Device requeset */
        {
          /* Set the value of the current command to be processed */
          cdcCmd = req->bRequest;
 80054d2:	683b      	ldr	r3, [r7, #0]
 80054d4:	785b      	ldrb	r3, [r3, #1]
 80054d6:	461a      	mov	r2, r3
 80054d8:	4b2d      	ldr	r3, [pc, #180]	; (8005590 <usbd_cdc_Setup+0x10c>)
 80054da:	601a      	str	r2, [r3, #0]
          cdcLen = req->wLength;
 80054dc:	683b      	ldr	r3, [r7, #0]
 80054de:	88db      	ldrh	r3, [r3, #6]
 80054e0:	461a      	mov	r2, r3
 80054e2:	4b2c      	ldr	r3, [pc, #176]	; (8005594 <usbd_cdc_Setup+0x110>)
 80054e4:	601a      	str	r2, [r3, #0]
          
          /* Prepare the reception of the buffer over EP0
          Next step: the received data will be managed in usbd_cdc_EP0_TxSent() 
          function. */
          USBD_CtlPrepareRx (pdev,
 80054e6:	683b      	ldr	r3, [r7, #0]
 80054e8:	88db      	ldrh	r3, [r3, #6]
 80054ea:	461a      	mov	r2, r3
 80054ec:	4927      	ldr	r1, [pc, #156]	; (800558c <usbd_cdc_Setup+0x108>)
 80054ee:	6878      	ldr	r0, [r7, #4]
 80054f0:	f7ff fbfa 	bl	8004ce8 <USBD_CtlPrepareRx>
 80054f4:	e007      	b.n	8005506 <usbd_cdc_Setup+0x82>
        }
      }
      else /* No Data request */
      {
        /* Transfer the command to the interface layer */
        APP_FOPS.pIf_Ctrl(req->bRequest, NULL, 0);
 80054f6:	4b24      	ldr	r3, [pc, #144]	; (8005588 <usbd_cdc_Setup+0x104>)
 80054f8:	689b      	ldr	r3, [r3, #8]
 80054fa:	683a      	ldr	r2, [r7, #0]
 80054fc:	7852      	ldrb	r2, [r2, #1]
 80054fe:	4610      	mov	r0, r2
 8005500:	2200      	movs	r2, #0
 8005502:	2100      	movs	r1, #0
 8005504:	4798      	blx	r3
      }
      
      return USBD_OK;
 8005506:	2300      	movs	r3, #0
 8005508:	e03a      	b.n	8005580 <usbd_cdc_Setup+0xfc>
      
    default:
      USBD_CtlError (pdev, req);
 800550a:	6839      	ldr	r1, [r7, #0]
 800550c:	6878      	ldr	r0, [r7, #4]
 800550e:	f7ff fb37 	bl	8004b80 <USBD_CtlError>
      return USBD_FAIL;
 8005512:	2302      	movs	r3, #2
 8005514:	e034      	b.n	8005580 <usbd_cdc_Setup+0xfc>
    
      
      
    /* Standard Requests -------------------------------*/
  case USB_REQ_TYPE_STANDARD:
    switch (req->bRequest)
 8005516:	683b      	ldr	r3, [r7, #0]
 8005518:	785b      	ldrb	r3, [r3, #1]
 800551a:	2b0a      	cmp	r3, #10
 800551c:	d018      	beq.n	8005550 <usbd_cdc_Setup+0xcc>
 800551e:	2b0b      	cmp	r3, #11
 8005520:	d01c      	beq.n	800555c <usbd_cdc_Setup+0xd8>
 8005522:	2b06      	cmp	r3, #6
 8005524:	d12b      	bne.n	800557e <usbd_cdc_Setup+0xfa>
    {
    case USB_REQ_GET_DESCRIPTOR: 
      if( (req->wValue >> 8) == CDC_DESCRIPTOR_TYPE)
 8005526:	683b      	ldr	r3, [r7, #0]
 8005528:	885b      	ldrh	r3, [r3, #2]
 800552a:	0a1b      	lsrs	r3, r3, #8
 800552c:	b29b      	uxth	r3, r3
 800552e:	2b21      	cmp	r3, #33	; 0x21
 8005530:	d107      	bne.n	8005542 <usbd_cdc_Setup+0xbe>
      {
#ifdef USB_OTG_HS_INTERNAL_DMA_ENABLED
        pbuf = usbd_cdc_Desc;   
#else
        pbuf = usbd_cdc_CfgDesc + 9 + (9 * USBD_ITF_MAX_NUM);
 8005532:	4b19      	ldr	r3, [pc, #100]	; (8005598 <usbd_cdc_Setup+0x114>)
 8005534:	60bb      	str	r3, [r7, #8]
#endif 
        len = MIN(USB_CDC_DESC_SIZ , req->wLength);
 8005536:	683b      	ldr	r3, [r7, #0]
 8005538:	88db      	ldrh	r3, [r3, #6]
 800553a:	2b3a      	cmp	r3, #58	; 0x3a
 800553c:	bf28      	it	cs
 800553e:	233a      	movcs	r3, #58	; 0x3a
 8005540:	81fb      	strh	r3, [r7, #14]
      }
      
      USBD_CtlSendData (pdev, 
 8005542:	89fb      	ldrh	r3, [r7, #14]
 8005544:	461a      	mov	r2, r3
 8005546:	68b9      	ldr	r1, [r7, #8]
 8005548:	6878      	ldr	r0, [r7, #4]
 800554a:	f7ff fb99 	bl	8004c80 <USBD_CtlSendData>
                        pbuf,
                        len);
      break;
 800554e:	e016      	b.n	800557e <usbd_cdc_Setup+0xfa>
      
    case USB_REQ_GET_INTERFACE :
      USBD_CtlSendData (pdev,
 8005550:	2201      	movs	r2, #1
 8005552:	4912      	ldr	r1, [pc, #72]	; (800559c <usbd_cdc_Setup+0x118>)
 8005554:	6878      	ldr	r0, [r7, #4]
 8005556:	f7ff fb93 	bl	8004c80 <USBD_CtlSendData>
                        (uint8_t *)&usbd_cdc_AltSet,
                        1);
      break;
 800555a:	e010      	b.n	800557e <usbd_cdc_Setup+0xfa>
      
    case USB_REQ_SET_INTERFACE :
      if ((uint8_t)(req->wValue) < USBD_ITF_MAX_NUM)
 800555c:	683b      	ldr	r3, [r7, #0]
 800555e:	885b      	ldrh	r3, [r3, #2]
 8005560:	b2db      	uxtb	r3, r3
 8005562:	2b00      	cmp	r3, #0
 8005564:	d106      	bne.n	8005574 <usbd_cdc_Setup+0xf0>
      {
        usbd_cdc_AltSet = (uint8_t)(req->wValue);
 8005566:	683b      	ldr	r3, [r7, #0]
 8005568:	885b      	ldrh	r3, [r3, #2]
 800556a:	b2db      	uxtb	r3, r3
 800556c:	461a      	mov	r2, r3
 800556e:	4b0b      	ldr	r3, [pc, #44]	; (800559c <usbd_cdc_Setup+0x118>)
 8005570:	601a      	str	r2, [r3, #0]
      else
      {
        /* Call the error management function (command will be nacked */
        USBD_CtlError (pdev, req);
      }
      break;
 8005572:	e003      	b.n	800557c <usbd_cdc_Setup+0xf8>
        usbd_cdc_AltSet = (uint8_t)(req->wValue);
      }
      else
      {
        /* Call the error management function (command will be nacked */
        USBD_CtlError (pdev, req);
 8005574:	6839      	ldr	r1, [r7, #0]
 8005576:	6878      	ldr	r0, [r7, #4]
 8005578:	f7ff fb02 	bl	8004b80 <USBD_CtlError>
      }
      break;
 800557c:	bf00      	nop
    }
  }
  return USBD_OK;
 800557e:	2300      	movs	r3, #0
}
 8005580:	4618      	mov	r0, r3
 8005582:	3710      	adds	r7, #16
 8005584:	46bd      	mov	sp, r7
 8005586:	bd80      	pop	{r7, pc}
 8005588:	2000005c 	.word	0x2000005c
 800558c:	200009b0 	.word	0x200009b0
 8005590:	200000b4 	.word	0x200000b4
 8005594:	200007dc 	.word	0x200007dc
 8005598:	20000082 	.word	0x20000082
 800559c:	200007c8 	.word	0x200007c8

080055a0 <usbd_cdc_EP0_RxReady>:
  *         Data received on control endpoint
  * @param  pdev: device device instance
  * @retval status
  */
static uint8_t  usbd_cdc_EP0_RxReady (void  *pdev)
{ 
 80055a0:	b580      	push	{r7, lr}
 80055a2:	b082      	sub	sp, #8
 80055a4:	af00      	add	r7, sp, #0
 80055a6:	6078      	str	r0, [r7, #4]
  if (cdcCmd != NO_CMD)
 80055a8:	4b09      	ldr	r3, [pc, #36]	; (80055d0 <usbd_cdc_EP0_RxReady+0x30>)
 80055aa:	681b      	ldr	r3, [r3, #0]
 80055ac:	2bff      	cmp	r3, #255	; 0xff
 80055ae:	d00a      	beq.n	80055c6 <usbd_cdc_EP0_RxReady+0x26>
  {
    /* Process the data */
    APP_FOPS.pIf_Ctrl(cdcCmd, CmdBuff, cdcLen);
 80055b0:	4b08      	ldr	r3, [pc, #32]	; (80055d4 <usbd_cdc_EP0_RxReady+0x34>)
 80055b2:	689b      	ldr	r3, [r3, #8]
 80055b4:	4a06      	ldr	r2, [pc, #24]	; (80055d0 <usbd_cdc_EP0_RxReady+0x30>)
 80055b6:	6810      	ldr	r0, [r2, #0]
 80055b8:	4a07      	ldr	r2, [pc, #28]	; (80055d8 <usbd_cdc_EP0_RxReady+0x38>)
 80055ba:	6812      	ldr	r2, [r2, #0]
 80055bc:	4907      	ldr	r1, [pc, #28]	; (80055dc <usbd_cdc_EP0_RxReady+0x3c>)
 80055be:	4798      	blx	r3
    
    /* Reset the command variable to default value */
    cdcCmd = NO_CMD;
 80055c0:	4b03      	ldr	r3, [pc, #12]	; (80055d0 <usbd_cdc_EP0_RxReady+0x30>)
 80055c2:	22ff      	movs	r2, #255	; 0xff
 80055c4:	601a      	str	r2, [r3, #0]
  }
  
  return USBD_OK;
 80055c6:	2300      	movs	r3, #0
}
 80055c8:	4618      	mov	r0, r3
 80055ca:	3708      	adds	r7, #8
 80055cc:	46bd      	mov	sp, r7
 80055ce:	bd80      	pop	{r7, pc}
 80055d0:	200000b4 	.word	0x200000b4
 80055d4:	2000005c 	.word	0x2000005c
 80055d8:	200007dc 	.word	0x200007dc
 80055dc:	200009b0 	.word	0x200009b0

080055e0 <usbd_cdc_DataIn>:
  * @param  pdev: device instance
  * @param  epnum: endpoint number
  * @retval status
  */
static uint8_t  usbd_cdc_DataIn (void *pdev, uint8_t epnum)
{
 80055e0:	b580      	push	{r7, lr}
 80055e2:	b084      	sub	sp, #16
 80055e4:	af00      	add	r7, sp, #0
 80055e6:	6078      	str	r0, [r7, #4]
 80055e8:	460b      	mov	r3, r1
 80055ea:	70fb      	strb	r3, [r7, #3]
  uint16_t USB_Tx_ptr;
  uint16_t USB_Tx_length;

  if (USB_Tx_State == 1)
 80055ec:	4b28      	ldr	r3, [pc, #160]	; (8005690 <usbd_cdc_DataIn+0xb0>)
 80055ee:	781b      	ldrb	r3, [r3, #0]
 80055f0:	2b01      	cmp	r3, #1
 80055f2:	d148      	bne.n	8005686 <usbd_cdc_DataIn+0xa6>
  {
    if (APP_Rx_length == 0) 
 80055f4:	4b27      	ldr	r3, [pc, #156]	; (8005694 <usbd_cdc_DataIn+0xb4>)
 80055f6:	681b      	ldr	r3, [r3, #0]
 80055f8:	2b00      	cmp	r3, #0
 80055fa:	d103      	bne.n	8005604 <usbd_cdc_DataIn+0x24>
    {
      USB_Tx_State = 0;
 80055fc:	4b24      	ldr	r3, [pc, #144]	; (8005690 <usbd_cdc_DataIn+0xb0>)
 80055fe:	2200      	movs	r2, #0
 8005600:	701a      	strb	r2, [r3, #0]
 8005602:	e040      	b.n	8005686 <usbd_cdc_DataIn+0xa6>
    }
    else 
    {
      if (APP_Rx_length > CDC_DATA_IN_PACKET_SIZE){
 8005604:	687b      	ldr	r3, [r7, #4]
 8005606:	f8d3 35ec 	ldr.w	r3, [r3, #1516]	; 0x5ec
 800560a:	3339      	adds	r3, #57	; 0x39
 800560c:	881b      	ldrh	r3, [r3, #0]
 800560e:	461a      	mov	r2, r3
 8005610:	4b20      	ldr	r3, [pc, #128]	; (8005694 <usbd_cdc_DataIn+0xb4>)
 8005612:	681b      	ldr	r3, [r3, #0]
 8005614:	429a      	cmp	r2, r3
 8005616:	d21e      	bcs.n	8005656 <usbd_cdc_DataIn+0x76>
        USB_Tx_ptr = APP_Rx_ptr_out;
 8005618:	4b1f      	ldr	r3, [pc, #124]	; (8005698 <usbd_cdc_DataIn+0xb8>)
 800561a:	681b      	ldr	r3, [r3, #0]
 800561c:	81fb      	strh	r3, [r7, #14]
        USB_Tx_length = CDC_DATA_IN_PACKET_SIZE;
 800561e:	687b      	ldr	r3, [r7, #4]
 8005620:	f8d3 35ec 	ldr.w	r3, [r3, #1516]	; 0x5ec
 8005624:	f8b3 3039 	ldrh.w	r3, [r3, #57]	; 0x39
 8005628:	81bb      	strh	r3, [r7, #12]
        
        APP_Rx_ptr_out += CDC_DATA_IN_PACKET_SIZE;
 800562a:	687b      	ldr	r3, [r7, #4]
 800562c:	f8d3 35ec 	ldr.w	r3, [r3, #1516]	; 0x5ec
 8005630:	3339      	adds	r3, #57	; 0x39
 8005632:	881b      	ldrh	r3, [r3, #0]
 8005634:	461a      	mov	r2, r3
 8005636:	4b18      	ldr	r3, [pc, #96]	; (8005698 <usbd_cdc_DataIn+0xb8>)
 8005638:	681b      	ldr	r3, [r3, #0]
 800563a:	4413      	add	r3, r2
 800563c:	4a16      	ldr	r2, [pc, #88]	; (8005698 <usbd_cdc_DataIn+0xb8>)
 800563e:	6013      	str	r3, [r2, #0]
        APP_Rx_length -= CDC_DATA_IN_PACKET_SIZE;    
 8005640:	4b14      	ldr	r3, [pc, #80]	; (8005694 <usbd_cdc_DataIn+0xb4>)
 8005642:	681b      	ldr	r3, [r3, #0]
 8005644:	687a      	ldr	r2, [r7, #4]
 8005646:	f8d2 25ec 	ldr.w	r2, [r2, #1516]	; 0x5ec
 800564a:	3239      	adds	r2, #57	; 0x39
 800564c:	8812      	ldrh	r2, [r2, #0]
 800564e:	1a9b      	subs	r3, r3, r2
 8005650:	4a10      	ldr	r2, [pc, #64]	; (8005694 <usbd_cdc_DataIn+0xb4>)
 8005652:	6013      	str	r3, [r2, #0]
 8005654:	e00f      	b.n	8005676 <usbd_cdc_DataIn+0x96>
      }
      else 
      {
        USB_Tx_ptr = APP_Rx_ptr_out;
 8005656:	4b10      	ldr	r3, [pc, #64]	; (8005698 <usbd_cdc_DataIn+0xb8>)
 8005658:	681b      	ldr	r3, [r3, #0]
 800565a:	81fb      	strh	r3, [r7, #14]
        USB_Tx_length = APP_Rx_length;
 800565c:	4b0d      	ldr	r3, [pc, #52]	; (8005694 <usbd_cdc_DataIn+0xb4>)
 800565e:	681b      	ldr	r3, [r3, #0]
 8005660:	81bb      	strh	r3, [r7, #12]
        
        APP_Rx_ptr_out += APP_Rx_length;
 8005662:	4b0d      	ldr	r3, [pc, #52]	; (8005698 <usbd_cdc_DataIn+0xb8>)
 8005664:	681a      	ldr	r2, [r3, #0]
 8005666:	4b0b      	ldr	r3, [pc, #44]	; (8005694 <usbd_cdc_DataIn+0xb4>)
 8005668:	681b      	ldr	r3, [r3, #0]
 800566a:	4413      	add	r3, r2
 800566c:	4a0a      	ldr	r2, [pc, #40]	; (8005698 <usbd_cdc_DataIn+0xb8>)
 800566e:	6013      	str	r3, [r2, #0]
        APP_Rx_length = 0;
 8005670:	4b08      	ldr	r3, [pc, #32]	; (8005694 <usbd_cdc_DataIn+0xb4>)
 8005672:	2200      	movs	r2, #0
 8005674:	601a      	str	r2, [r3, #0]
      }
      
      /* Prepare the available data buffer to be sent on IN endpoint */
      DCD_EP_Tx (pdev,
                 CDC_IN_EP,
                 (uint8_t*)&APP_Rx_Buffer[USB_Tx_ptr],
 8005676:	89fb      	ldrh	r3, [r7, #14]
        APP_Rx_ptr_out += APP_Rx_length;
        APP_Rx_length = 0;
      }
      
      /* Prepare the available data buffer to be sent on IN endpoint */
      DCD_EP_Tx (pdev,
 8005678:	4a08      	ldr	r2, [pc, #32]	; (800569c <usbd_cdc_DataIn+0xbc>)
 800567a:	441a      	add	r2, r3
 800567c:	89bb      	ldrh	r3, [r7, #12]
 800567e:	2181      	movs	r1, #129	; 0x81
 8005680:	6878      	ldr	r0, [r7, #4]
 8005682:	f7fd fc07 	bl	8002e94 <DCD_EP_Tx>
                 (uint8_t*)&APP_Rx_Buffer[USB_Tx_ptr],
                 USB_Tx_length);
    }
  }  
  
  return USBD_OK;
 8005686:	2300      	movs	r3, #0
}
 8005688:	4618      	mov	r0, r3
 800568a:	3710      	adds	r7, #16
 800568c:	46bd      	mov	sp, r7
 800568e:	bd80      	pop	{r7, pc}
 8005690:	200007d8 	.word	0x200007d8
 8005694:	200007d4 	.word	0x200007d4
 8005698:	200007d0 	.word	0x200007d0
 800569c:	200009b8 	.word	0x200009b8

080056a0 <usbd_cdc_DataOut>:
  * @param  pdev: device instance
  * @param  epnum: endpoint number
  * @retval status
  */
static uint8_t  usbd_cdc_DataOut (void *pdev, uint8_t epnum)
{      
 80056a0:	b580      	push	{r7, lr}
 80056a2:	b084      	sub	sp, #16
 80056a4:	af00      	add	r7, sp, #0
 80056a6:	6078      	str	r0, [r7, #4]
 80056a8:	460b      	mov	r3, r1
 80056aa:	70fb      	strb	r3, [r7, #3]
  uint16_t USB_Rx_Cnt;
  
  /* Get the received data buffer and update the counter */
  USB_Rx_Cnt = ((USB_OTG_CORE_HANDLE*)pdev)->dev.out_ep[epnum].xfer_count;
 80056ac:	78fa      	ldrb	r2, [r7, #3]
 80056ae:	6879      	ldr	r1, [r7, #4]
 80056b0:	4613      	mov	r3, r2
 80056b2:	009b      	lsls	r3, r3, #2
 80056b4:	4413      	add	r3, r2
 80056b6:	00db      	lsls	r3, r3, #3
 80056b8:	440b      	add	r3, r1
 80056ba:	f503 7362 	add.w	r3, r3, #904	; 0x388
 80056be:	681b      	ldr	r3, [r3, #0]
 80056c0:	81fb      	strh	r3, [r7, #14]
  
  /* USB data will be immediately processed, this allow next USB traffic being 
     NAKed till the end of the application Xfer */
  APP_FOPS.pIf_DataRx(USB_Rx_Buffer, USB_Rx_Cnt);
 80056c2:	4b0a      	ldr	r3, [pc, #40]	; (80056ec <usbd_cdc_DataOut+0x4c>)
 80056c4:	691b      	ldr	r3, [r3, #16]
 80056c6:	89fa      	ldrh	r2, [r7, #14]
 80056c8:	4611      	mov	r1, r2
 80056ca:	4809      	ldr	r0, [pc, #36]	; (80056f0 <usbd_cdc_DataOut+0x50>)
 80056cc:	4798      	blx	r3
  
  /* Prepare Out endpoint to receive next packet */
  DCD_EP_PrepareRx(pdev,
                   CDC_OUT_EP,
                   (uint8_t*)(USB_Rx_Buffer),
                   CDC_DATA_OUT_PACKET_SIZE);
 80056ce:	687b      	ldr	r3, [r7, #4]
 80056d0:	f8d3 35ec 	ldr.w	r3, [r3, #1516]	; 0x5ec
 80056d4:	3340      	adds	r3, #64	; 0x40
  /* USB data will be immediately processed, this allow next USB traffic being 
     NAKed till the end of the application Xfer */
  APP_FOPS.pIf_DataRx(USB_Rx_Buffer, USB_Rx_Cnt);
  
  /* Prepare Out endpoint to receive next packet */
  DCD_EP_PrepareRx(pdev,
 80056d6:	881b      	ldrh	r3, [r3, #0]
 80056d8:	4a05      	ldr	r2, [pc, #20]	; (80056f0 <usbd_cdc_DataOut+0x50>)
 80056da:	2101      	movs	r1, #1
 80056dc:	6878      	ldr	r0, [r7, #4]
 80056de:	f7fd fb97 	bl	8002e10 <DCD_EP_PrepareRx>
                   CDC_OUT_EP,
                   (uint8_t*)(USB_Rx_Buffer),
                   CDC_DATA_OUT_PACKET_SIZE);

  return USBD_OK;
 80056e2:	2300      	movs	r3, #0
}
 80056e4:	4618      	mov	r0, r3
 80056e6:	3710      	adds	r7, #16
 80056e8:	46bd      	mov	sp, r7
 80056ea:	bd80      	pop	{r7, pc}
 80056ec:	2000005c 	.word	0x2000005c
 80056f0:	20000970 	.word	0x20000970

080056f4 <usbd_cdc_SOF>:
  * @param  pdev: instance
  * @param  epnum: endpoint number
  * @retval status
  */
static uint8_t  usbd_cdc_SOF (void *pdev)
{      
 80056f4:	b580      	push	{r7, lr}
 80056f6:	b082      	sub	sp, #8
 80056f8:	af00      	add	r7, sp, #0
 80056fa:	6078      	str	r0, [r7, #4]
  static uint32_t FrameCount = 0;
  
  if (FrameCount++ == CDC_IN_FRAME_INTERVAL)
 80056fc:	4b08      	ldr	r3, [pc, #32]	; (8005720 <usbd_cdc_SOF+0x2c>)
 80056fe:	681b      	ldr	r3, [r3, #0]
 8005700:	1c5a      	adds	r2, r3, #1
 8005702:	4907      	ldr	r1, [pc, #28]	; (8005720 <usbd_cdc_SOF+0x2c>)
 8005704:	600a      	str	r2, [r1, #0]
 8005706:	2b05      	cmp	r3, #5
 8005708:	d105      	bne.n	8005716 <usbd_cdc_SOF+0x22>
  {
    /* Reset the frame counter */
    FrameCount = 0;
 800570a:	4b05      	ldr	r3, [pc, #20]	; (8005720 <usbd_cdc_SOF+0x2c>)
 800570c:	2200      	movs	r2, #0
 800570e:	601a      	str	r2, [r3, #0]
    
    /* Check the data to be sent through IN pipe */
    Handle_USBAsynchXfer(pdev);
 8005710:	6878      	ldr	r0, [r7, #4]
 8005712:	f000 f807 	bl	8005724 <Handle_USBAsynchXfer>
  }
  
  return USBD_OK;
 8005716:	2300      	movs	r3, #0
}
 8005718:	4618      	mov	r0, r3
 800571a:	3708      	adds	r7, #8
 800571c:	46bd      	mov	sp, r7
 800571e:	bd80      	pop	{r7, pc}
 8005720:	200007e0 	.word	0x200007e0

08005724 <Handle_USBAsynchXfer>:
  *         Send data to USB
  * @param  pdev: instance
  * @retval None
  */
static void Handle_USBAsynchXfer (void *pdev)
{
 8005724:	b580      	push	{r7, lr}
 8005726:	b084      	sub	sp, #16
 8005728:	af00      	add	r7, sp, #0
 800572a:	6078      	str	r0, [r7, #4]
  uint16_t USB_Tx_ptr;
  uint16_t USB_Tx_length;
  
  if(USB_Tx_State != 1)
 800572c:	4b38      	ldr	r3, [pc, #224]	; (8005810 <Handle_USBAsynchXfer+0xec>)
 800572e:	781b      	ldrb	r3, [r3, #0]
 8005730:	2b01      	cmp	r3, #1
 8005732:	d069      	beq.n	8005808 <Handle_USBAsynchXfer+0xe4>
  {
    if (APP_Rx_ptr_out == APP_RX_DATA_SIZE)
 8005734:	4b37      	ldr	r3, [pc, #220]	; (8005814 <Handle_USBAsynchXfer+0xf0>)
 8005736:	681b      	ldr	r3, [r3, #0]
 8005738:	f5b3 6f00 	cmp.w	r3, #2048	; 0x800
 800573c:	d102      	bne.n	8005744 <Handle_USBAsynchXfer+0x20>
    {
      APP_Rx_ptr_out = 0;
 800573e:	4b35      	ldr	r3, [pc, #212]	; (8005814 <Handle_USBAsynchXfer+0xf0>)
 8005740:	2200      	movs	r2, #0
 8005742:	601a      	str	r2, [r3, #0]
    }
    
    if(APP_Rx_ptr_out == APP_Rx_ptr_in) 
 8005744:	4b33      	ldr	r3, [pc, #204]	; (8005814 <Handle_USBAsynchXfer+0xf0>)
 8005746:	681a      	ldr	r2, [r3, #0]
 8005748:	4b33      	ldr	r3, [pc, #204]	; (8005818 <Handle_USBAsynchXfer+0xf4>)
 800574a:	681b      	ldr	r3, [r3, #0]
 800574c:	429a      	cmp	r2, r3
 800574e:	d103      	bne.n	8005758 <Handle_USBAsynchXfer+0x34>
    {
      USB_Tx_State = 0; 
 8005750:	4b2f      	ldr	r3, [pc, #188]	; (8005810 <Handle_USBAsynchXfer+0xec>)
 8005752:	2200      	movs	r2, #0
 8005754:	701a      	strb	r2, [r3, #0]
      return;
 8005756:	e057      	b.n	8005808 <Handle_USBAsynchXfer+0xe4>
    }
    
    if(APP_Rx_ptr_out > APP_Rx_ptr_in) /* rollback */
 8005758:	4b2e      	ldr	r3, [pc, #184]	; (8005814 <Handle_USBAsynchXfer+0xf0>)
 800575a:	681a      	ldr	r2, [r3, #0]
 800575c:	4b2e      	ldr	r3, [pc, #184]	; (8005818 <Handle_USBAsynchXfer+0xf4>)
 800575e:	681b      	ldr	r3, [r3, #0]
 8005760:	429a      	cmp	r2, r3
 8005762:	d906      	bls.n	8005772 <Handle_USBAsynchXfer+0x4e>
    { 
      APP_Rx_length = APP_RX_DATA_SIZE - APP_Rx_ptr_out;
 8005764:	4b2b      	ldr	r3, [pc, #172]	; (8005814 <Handle_USBAsynchXfer+0xf0>)
 8005766:	681b      	ldr	r3, [r3, #0]
 8005768:	f5c3 6300 	rsb	r3, r3, #2048	; 0x800
 800576c:	4a2b      	ldr	r2, [pc, #172]	; (800581c <Handle_USBAsynchXfer+0xf8>)
 800576e:	6013      	str	r3, [r2, #0]
 8005770:	e006      	b.n	8005780 <Handle_USBAsynchXfer+0x5c>
    
    }
    else 
    {
      APP_Rx_length = APP_Rx_ptr_in - APP_Rx_ptr_out;
 8005772:	4b29      	ldr	r3, [pc, #164]	; (8005818 <Handle_USBAsynchXfer+0xf4>)
 8005774:	681a      	ldr	r2, [r3, #0]
 8005776:	4b27      	ldr	r3, [pc, #156]	; (8005814 <Handle_USBAsynchXfer+0xf0>)
 8005778:	681b      	ldr	r3, [r3, #0]
 800577a:	1ad3      	subs	r3, r2, r3
 800577c:	4a27      	ldr	r2, [pc, #156]	; (800581c <Handle_USBAsynchXfer+0xf8>)
 800577e:	6013      	str	r3, [r2, #0]
    }
#ifdef USB_OTG_HS_INTERNAL_DMA_ENABLED
     APP_Rx_length &= ~0x03;
#endif /* USB_OTG_HS_INTERNAL_DMA_ENABLED */
    
    if (APP_Rx_length > CDC_DATA_IN_PACKET_SIZE)
 8005780:	687b      	ldr	r3, [r7, #4]
 8005782:	f8d3 35ec 	ldr.w	r3, [r3, #1516]	; 0x5ec
 8005786:	3339      	adds	r3, #57	; 0x39
 8005788:	881b      	ldrh	r3, [r3, #0]
 800578a:	461a      	mov	r2, r3
 800578c:	4b23      	ldr	r3, [pc, #140]	; (800581c <Handle_USBAsynchXfer+0xf8>)
 800578e:	681b      	ldr	r3, [r3, #0]
 8005790:	429a      	cmp	r2, r3
 8005792:	d21e      	bcs.n	80057d2 <Handle_USBAsynchXfer+0xae>
    {
      USB_Tx_ptr = APP_Rx_ptr_out;
 8005794:	4b1f      	ldr	r3, [pc, #124]	; (8005814 <Handle_USBAsynchXfer+0xf0>)
 8005796:	681b      	ldr	r3, [r3, #0]
 8005798:	81fb      	strh	r3, [r7, #14]
      USB_Tx_length = CDC_DATA_IN_PACKET_SIZE;
 800579a:	687b      	ldr	r3, [r7, #4]
 800579c:	f8d3 35ec 	ldr.w	r3, [r3, #1516]	; 0x5ec
 80057a0:	f8b3 3039 	ldrh.w	r3, [r3, #57]	; 0x39
 80057a4:	81bb      	strh	r3, [r7, #12]
      
      APP_Rx_ptr_out += CDC_DATA_IN_PACKET_SIZE;	
 80057a6:	687b      	ldr	r3, [r7, #4]
 80057a8:	f8d3 35ec 	ldr.w	r3, [r3, #1516]	; 0x5ec
 80057ac:	3339      	adds	r3, #57	; 0x39
 80057ae:	881b      	ldrh	r3, [r3, #0]
 80057b0:	461a      	mov	r2, r3
 80057b2:	4b18      	ldr	r3, [pc, #96]	; (8005814 <Handle_USBAsynchXfer+0xf0>)
 80057b4:	681b      	ldr	r3, [r3, #0]
 80057b6:	4413      	add	r3, r2
 80057b8:	4a16      	ldr	r2, [pc, #88]	; (8005814 <Handle_USBAsynchXfer+0xf0>)
 80057ba:	6013      	str	r3, [r2, #0]
      APP_Rx_length -= CDC_DATA_IN_PACKET_SIZE;
 80057bc:	4b17      	ldr	r3, [pc, #92]	; (800581c <Handle_USBAsynchXfer+0xf8>)
 80057be:	681b      	ldr	r3, [r3, #0]
 80057c0:	687a      	ldr	r2, [r7, #4]
 80057c2:	f8d2 25ec 	ldr.w	r2, [r2, #1516]	; 0x5ec
 80057c6:	3239      	adds	r2, #57	; 0x39
 80057c8:	8812      	ldrh	r2, [r2, #0]
 80057ca:	1a9b      	subs	r3, r3, r2
 80057cc:	4a13      	ldr	r2, [pc, #76]	; (800581c <Handle_USBAsynchXfer+0xf8>)
 80057ce:	6013      	str	r3, [r2, #0]
 80057d0:	e00f      	b.n	80057f2 <Handle_USBAsynchXfer+0xce>
    }
    else
    {
      USB_Tx_ptr = APP_Rx_ptr_out;
 80057d2:	4b10      	ldr	r3, [pc, #64]	; (8005814 <Handle_USBAsynchXfer+0xf0>)
 80057d4:	681b      	ldr	r3, [r3, #0]
 80057d6:	81fb      	strh	r3, [r7, #14]
      USB_Tx_length = APP_Rx_length;
 80057d8:	4b10      	ldr	r3, [pc, #64]	; (800581c <Handle_USBAsynchXfer+0xf8>)
 80057da:	681b      	ldr	r3, [r3, #0]
 80057dc:	81bb      	strh	r3, [r7, #12]
      
      APP_Rx_ptr_out += APP_Rx_length;
 80057de:	4b0d      	ldr	r3, [pc, #52]	; (8005814 <Handle_USBAsynchXfer+0xf0>)
 80057e0:	681a      	ldr	r2, [r3, #0]
 80057e2:	4b0e      	ldr	r3, [pc, #56]	; (800581c <Handle_USBAsynchXfer+0xf8>)
 80057e4:	681b      	ldr	r3, [r3, #0]
 80057e6:	4413      	add	r3, r2
 80057e8:	4a0a      	ldr	r2, [pc, #40]	; (8005814 <Handle_USBAsynchXfer+0xf0>)
 80057ea:	6013      	str	r3, [r2, #0]
      APP_Rx_length = 0;
 80057ec:	4b0b      	ldr	r3, [pc, #44]	; (800581c <Handle_USBAsynchXfer+0xf8>)
 80057ee:	2200      	movs	r2, #0
 80057f0:	601a      	str	r2, [r3, #0]
    }
    USB_Tx_State = 1; 
 80057f2:	4b07      	ldr	r3, [pc, #28]	; (8005810 <Handle_USBAsynchXfer+0xec>)
 80057f4:	2201      	movs	r2, #1
 80057f6:	701a      	strb	r2, [r3, #0]

    DCD_EP_Tx (pdev,
               CDC_IN_EP,
               (uint8_t*)&APP_Rx_Buffer[USB_Tx_ptr],
 80057f8:	89fb      	ldrh	r3, [r7, #14]
      APP_Rx_ptr_out += APP_Rx_length;
      APP_Rx_length = 0;
    }
    USB_Tx_State = 1; 

    DCD_EP_Tx (pdev,
 80057fa:	4a09      	ldr	r2, [pc, #36]	; (8005820 <Handle_USBAsynchXfer+0xfc>)
 80057fc:	441a      	add	r2, r3
 80057fe:	89bb      	ldrh	r3, [r7, #12]
 8005800:	2181      	movs	r1, #129	; 0x81
 8005802:	6878      	ldr	r0, [r7, #4]
 8005804:	f7fd fb46 	bl	8002e94 <DCD_EP_Tx>
               CDC_IN_EP,
               (uint8_t*)&APP_Rx_Buffer[USB_Tx_ptr],
               USB_Tx_length);
  }  
  
}
 8005808:	3710      	adds	r7, #16
 800580a:	46bd      	mov	sp, r7
 800580c:	bd80      	pop	{r7, pc}
 800580e:	bf00      	nop
 8005810:	200007d8 	.word	0x200007d8
 8005814:	200007d0 	.word	0x200007d0
 8005818:	200007cc 	.word	0x200007cc
 800581c:	200007d4 	.word	0x200007d4
 8005820:	200009b8 	.word	0x200009b8

08005824 <USBD_cdc_GetCfgDesc>:
  * @param  speed : current device speed
  * @param  length : pointer data length
  * @retval pointer to descriptor buffer
  */
static uint8_t  *USBD_cdc_GetCfgDesc (uint8_t speed, uint16_t *length)
{
 8005824:	b480      	push	{r7}
 8005826:	b083      	sub	sp, #12
 8005828:	af00      	add	r7, sp, #0
 800582a:	4603      	mov	r3, r0
 800582c:	6039      	str	r1, [r7, #0]
 800582e:	71fb      	strb	r3, [r7, #7]
  *length = sizeof (usbd_cdc_CfgDesc);
 8005830:	683b      	ldr	r3, [r7, #0]
 8005832:	2243      	movs	r2, #67	; 0x43
 8005834:	801a      	strh	r2, [r3, #0]
  return usbd_cdc_CfgDesc;
 8005836:	4b03      	ldr	r3, [pc, #12]	; (8005844 <USBD_cdc_GetCfgDesc+0x20>)
}
 8005838:	4618      	mov	r0, r3
 800583a:	370c      	adds	r7, #12
 800583c:	46bd      	mov	sp, r7
 800583e:	f85d 7b04 	ldr.w	r7, [sp], #4
 8005842:	4770      	bx	lr
 8005844:	20000070 	.word	0x20000070

08005848 <USBD_USR_Init>:
*         Displays the message on LCD for host lib initialization
* @param  None
* @retval None
*/
void USBD_USR_Init(void)
{   
 8005848:	b480      	push	{r7}
 800584a:	af00      	add	r7, sp, #0

}
 800584c:	bf00      	nop
 800584e:	46bd      	mov	sp, r7
 8005850:	f85d 7b04 	ldr.w	r7, [sp], #4
 8005854:	4770      	bx	lr
 8005856:	bf00      	nop

08005858 <USBD_USR_DeviceReset>:
*         Displays the message on LCD on device Reset Event
* @param  speed : device speed
* @retval None
*/
void USBD_USR_DeviceReset(uint8_t speed )
{
 8005858:	b480      	push	{r7}
 800585a:	b083      	sub	sp, #12
 800585c:	af00      	add	r7, sp, #0
 800585e:	4603      	mov	r3, r0
 8005860:	71fb      	strb	r3, [r7, #7]
 switch (speed)
 8005862:	79fb      	ldrb	r3, [r7, #7]
 8005864:	2b00      	cmp	r3, #0
 8005866:	d002      	beq.n	800586e <USBD_USR_DeviceReset+0x16>
 8005868:	2b01      	cmp	r3, #1
 800586a:	d002      	beq.n	8005872 <USBD_USR_DeviceReset+0x1a>
     break;

  case USB_OTG_SPEED_FULL: 
     break;
 default:
     break;
 800586c:	e002      	b.n	8005874 <USBD_USR_DeviceReset+0x1c>
void USBD_USR_DeviceReset(uint8_t speed )
{
 switch (speed)
 {
   case USB_OTG_SPEED_HIGH: 
     break;
 800586e:	bf00      	nop
 8005870:	e000      	b.n	8005874 <USBD_USR_DeviceReset+0x1c>

  case USB_OTG_SPEED_FULL: 
     break;
 8005872:	bf00      	nop
 default:
     break;
     
 }
}
 8005874:	bf00      	nop
 8005876:	370c      	adds	r7, #12
 8005878:	46bd      	mov	sp, r7
 800587a:	f85d 7b04 	ldr.w	r7, [sp], #4
 800587e:	4770      	bx	lr

08005880 <USBD_USR_DeviceConfigured>:
*         Displays the message on LCD on device configuration Event
* @param  None
* @retval Staus
*/
void USBD_USR_DeviceConfigured (void)
{
 8005880:	b480      	push	{r7}
 8005882:	af00      	add	r7, sp, #0
}
 8005884:	bf00      	nop
 8005886:	46bd      	mov	sp, r7
 8005888:	f85d 7b04 	ldr.w	r7, [sp], #4
 800588c:	4770      	bx	lr
 800588e:	bf00      	nop

08005890 <USBD_USR_DeviceConnected>:
*         Displays the message on LCD on device connection Event
* @param  None
* @retval Staus
*/
void USBD_USR_DeviceConnected (void)
{
 8005890:	b480      	push	{r7}
 8005892:	af00      	add	r7, sp, #0
}
 8005894:	bf00      	nop
 8005896:	46bd      	mov	sp, r7
 8005898:	f85d 7b04 	ldr.w	r7, [sp], #4
 800589c:	4770      	bx	lr
 800589e:	bf00      	nop

080058a0 <USBD_USR_DeviceDisconnected>:
*         Displays the message on LCD on device disconnection Event
* @param  None
* @retval Staus
*/
void USBD_USR_DeviceDisconnected (void)
{
 80058a0:	b480      	push	{r7}
 80058a2:	af00      	add	r7, sp, #0
}
 80058a4:	bf00      	nop
 80058a6:	46bd      	mov	sp, r7
 80058a8:	f85d 7b04 	ldr.w	r7, [sp], #4
 80058ac:	4770      	bx	lr
 80058ae:	bf00      	nop

080058b0 <USBD_USR_DeviceSuspended>:
*         Displays the message on LCD on device suspend Event
* @param  None
* @retval None
*/
void USBD_USR_DeviceSuspended(void)
{
 80058b0:	b480      	push	{r7}
 80058b2:	af00      	add	r7, sp, #0
  /* Users can do their application actions here for the USB-Reset */
}
 80058b4:	bf00      	nop
 80058b6:	46bd      	mov	sp, r7
 80058b8:	f85d 7b04 	ldr.w	r7, [sp], #4
 80058bc:	4770      	bx	lr
 80058be:	bf00      	nop

080058c0 <USBD_USR_DeviceResumed>:
*         Displays the message on LCD on device resume Event
* @param  None
* @retval None
*/
void USBD_USR_DeviceResumed(void)
{
 80058c0:	b480      	push	{r7}
 80058c2:	af00      	add	r7, sp, #0
  /* Users can do their application actions here for the USB-Reset */
}
 80058c4:	bf00      	nop
 80058c6:	46bd      	mov	sp, r7
 80058c8:	f85d 7b04 	ldr.w	r7, [sp], #4
 80058cc:	4770      	bx	lr
 80058ce:	bf00      	nop

080058d0 <USBD_USR_DeviceDescriptor>:
* @param  speed : current device speed
* @param  length : pointer to data length variable
* @retval pointer to descriptor buffer
*/
uint8_t *  USBD_USR_DeviceDescriptor( uint8_t speed , uint16_t *length)
{
 80058d0:	b480      	push	{r7}
 80058d2:	b083      	sub	sp, #12
 80058d4:	af00      	add	r7, sp, #0
 80058d6:	4603      	mov	r3, r0
 80058d8:	6039      	str	r1, [r7, #0]
 80058da:	71fb      	strb	r3, [r7, #7]
  *length = sizeof(USBD_DeviceDesc);
 80058dc:	683b      	ldr	r3, [r7, #0]
 80058de:	2212      	movs	r2, #18
 80058e0:	801a      	strh	r2, [r3, #0]
  return USBD_DeviceDesc;
 80058e2:	4b03      	ldr	r3, [pc, #12]	; (80058f0 <USBD_USR_DeviceDescriptor+0x20>)
}
 80058e4:	4618      	mov	r0, r3
 80058e6:	370c      	adds	r7, #12
 80058e8:	46bd      	mov	sp, r7
 80058ea:	f85d 7b04 	ldr.w	r7, [sp], #4
 80058ee:	4770      	bx	lr
 80058f0:	2000011c 	.word	0x2000011c

080058f4 <USBD_USR_LangIDStrDescriptor>:
* @param  speed : current device speed
* @param  length : pointer to data length variable
* @retval pointer to descriptor buffer
*/
uint8_t *  USBD_USR_LangIDStrDescriptor( uint8_t speed , uint16_t *length)
{
 80058f4:	b480      	push	{r7}
 80058f6:	b083      	sub	sp, #12
 80058f8:	af00      	add	r7, sp, #0
 80058fa:	4603      	mov	r3, r0
 80058fc:	6039      	str	r1, [r7, #0]
 80058fe:	71fb      	strb	r3, [r7, #7]
  *length =  sizeof(USBD_LangIDDesc);  
 8005900:	683b      	ldr	r3, [r7, #0]
 8005902:	2204      	movs	r2, #4
 8005904:	801a      	strh	r2, [r3, #0]
  return USBD_LangIDDesc;
 8005906:	4b03      	ldr	r3, [pc, #12]	; (8005914 <USBD_USR_LangIDStrDescriptor+0x20>)
}
 8005908:	4618      	mov	r0, r3
 800590a:	370c      	adds	r7, #12
 800590c:	46bd      	mov	sp, r7
 800590e:	f85d 7b04 	ldr.w	r7, [sp], #4
 8005912:	4770      	bx	lr
 8005914:	20000130 	.word	0x20000130

08005918 <USBD_USR_ProductStrDescriptor>:
* @param  speed : current device speed
* @param  length : pointer to data length variable
* @retval pointer to descriptor buffer
*/
uint8_t *  USBD_USR_ProductStrDescriptor( uint8_t speed , uint16_t *length)
{
 8005918:	b580      	push	{r7, lr}
 800591a:	b082      	sub	sp, #8
 800591c:	af00      	add	r7, sp, #0
 800591e:	4603      	mov	r3, r0
 8005920:	6039      	str	r1, [r7, #0]
 8005922:	71fb      	strb	r3, [r7, #7]
 
  
  if(speed == 0)
 8005924:	79fb      	ldrb	r3, [r7, #7]
 8005926:	2b00      	cmp	r3, #0
 8005928:	d105      	bne.n	8005936 <USBD_USR_ProductStrDescriptor+0x1e>
  {   
    USBD_GetString ((uint8_t*)USBD_PRODUCT_HS_STRING, USBD_StrDesc, length);
 800592a:	683a      	ldr	r2, [r7, #0]
 800592c:	4907      	ldr	r1, [pc, #28]	; (800594c <USBD_USR_ProductStrDescriptor+0x34>)
 800592e:	4808      	ldr	r0, [pc, #32]	; (8005950 <USBD_USR_ProductStrDescriptor+0x38>)
 8005930:	f7ff f94a 	bl	8004bc8 <USBD_GetString>
 8005934:	e004      	b.n	8005940 <USBD_USR_ProductStrDescriptor+0x28>
  }
  else
  {
    USBD_GetString ((uint8_t*)USBD_PRODUCT_FS_STRING, USBD_StrDesc, length);
 8005936:	683a      	ldr	r2, [r7, #0]
 8005938:	4904      	ldr	r1, [pc, #16]	; (800594c <USBD_USR_ProductStrDescriptor+0x34>)
 800593a:	4806      	ldr	r0, [pc, #24]	; (8005954 <USBD_USR_ProductStrDescriptor+0x3c>)
 800593c:	f7ff f944 	bl	8004bc8 <USBD_GetString>
  }
  return USBD_StrDesc;
 8005940:	4b02      	ldr	r3, [pc, #8]	; (800594c <USBD_USR_ProductStrDescriptor+0x34>)
}
 8005942:	4618      	mov	r0, r3
 8005944:	3708      	adds	r7, #8
 8005946:	46bd      	mov	sp, r7
 8005948:	bd80      	pop	{r7, pc}
 800594a:	bf00      	nop
 800594c:	20000860 	.word	0x20000860
 8005950:	08006610 	.word	0x08006610
 8005954:	08006634 	.word	0x08006634

08005958 <USBD_USR_ManufacturerStrDescriptor>:
* @param  speed : current device speed
* @param  length : pointer to data length variable
* @retval pointer to descriptor buffer
*/
uint8_t *  USBD_USR_ManufacturerStrDescriptor( uint8_t speed , uint16_t *length)
{
 8005958:	b580      	push	{r7, lr}
 800595a:	b082      	sub	sp, #8
 800595c:	af00      	add	r7, sp, #0
 800595e:	4603      	mov	r3, r0
 8005960:	6039      	str	r1, [r7, #0]
 8005962:	71fb      	strb	r3, [r7, #7]
  USBD_GetString ((uint8_t*)USBD_MANUFACTURER_STRING, USBD_StrDesc, length);
 8005964:	683a      	ldr	r2, [r7, #0]
 8005966:	4904      	ldr	r1, [pc, #16]	; (8005978 <USBD_USR_ManufacturerStrDescriptor+0x20>)
 8005968:	4804      	ldr	r0, [pc, #16]	; (800597c <USBD_USR_ManufacturerStrDescriptor+0x24>)
 800596a:	f7ff f92d 	bl	8004bc8 <USBD_GetString>
  return USBD_StrDesc;
 800596e:	4b02      	ldr	r3, [pc, #8]	; (8005978 <USBD_USR_ManufacturerStrDescriptor+0x20>)
}
 8005970:	4618      	mov	r0, r3
 8005972:	3708      	adds	r7, #8
 8005974:	46bd      	mov	sp, r7
 8005976:	bd80      	pop	{r7, pc}
 8005978:	20000860 	.word	0x20000860
 800597c:	08006658 	.word	0x08006658

08005980 <USBD_USR_SerialStrDescriptor>:
* @param  speed : current device speed
* @param  length : pointer to data length variable
* @retval pointer to descriptor buffer
*/
uint8_t *  USBD_USR_SerialStrDescriptor( uint8_t speed , uint16_t *length)
{
 8005980:	b580      	push	{r7, lr}
 8005982:	b082      	sub	sp, #8
 8005984:	af00      	add	r7, sp, #0
 8005986:	4603      	mov	r3, r0
 8005988:	6039      	str	r1, [r7, #0]
 800598a:	71fb      	strb	r3, [r7, #7]
  if(speed  == USB_OTG_SPEED_HIGH)
 800598c:	79fb      	ldrb	r3, [r7, #7]
 800598e:	2b00      	cmp	r3, #0
 8005990:	d105      	bne.n	800599e <USBD_USR_SerialStrDescriptor+0x1e>
  {    
    USBD_GetString ((uint8_t*)USBD_SERIALNUMBER_HS_STRING, USBD_StrDesc, length);
 8005992:	683a      	ldr	r2, [r7, #0]
 8005994:	4907      	ldr	r1, [pc, #28]	; (80059b4 <USBD_USR_SerialStrDescriptor+0x34>)
 8005996:	4808      	ldr	r0, [pc, #32]	; (80059b8 <USBD_USR_SerialStrDescriptor+0x38>)
 8005998:	f7ff f916 	bl	8004bc8 <USBD_GetString>
 800599c:	e004      	b.n	80059a8 <USBD_USR_SerialStrDescriptor+0x28>
  }
  else
  {
    USBD_GetString ((uint8_t*)USBD_SERIALNUMBER_FS_STRING, USBD_StrDesc, length);
 800599e:	683a      	ldr	r2, [r7, #0]
 80059a0:	4904      	ldr	r1, [pc, #16]	; (80059b4 <USBD_USR_SerialStrDescriptor+0x34>)
 80059a2:	4806      	ldr	r0, [pc, #24]	; (80059bc <USBD_USR_SerialStrDescriptor+0x3c>)
 80059a4:	f7ff f910 	bl	8004bc8 <USBD_GetString>
  }
  return USBD_StrDesc;
 80059a8:	4b02      	ldr	r3, [pc, #8]	; (80059b4 <USBD_USR_SerialStrDescriptor+0x34>)
}
 80059aa:	4618      	mov	r0, r3
 80059ac:	3708      	adds	r7, #8
 80059ae:	46bd      	mov	sp, r7
 80059b0:	bd80      	pop	{r7, pc}
 80059b2:	bf00      	nop
 80059b4:	20000860 	.word	0x20000860
 80059b8:	0800666c 	.word	0x0800666c
 80059bc:	0800667c 	.word	0x0800667c

080059c0 <USBD_USR_ConfigStrDescriptor>:
* @param  speed : current device speed
* @param  length : pointer to data length variable
* @retval pointer to descriptor buffer
*/
uint8_t *  USBD_USR_ConfigStrDescriptor( uint8_t speed , uint16_t *length)
{
 80059c0:	b580      	push	{r7, lr}
 80059c2:	b082      	sub	sp, #8
 80059c4:	af00      	add	r7, sp, #0
 80059c6:	4603      	mov	r3, r0
 80059c8:	6039      	str	r1, [r7, #0]
 80059ca:	71fb      	strb	r3, [r7, #7]
  if(speed  == USB_OTG_SPEED_HIGH)
 80059cc:	79fb      	ldrb	r3, [r7, #7]
 80059ce:	2b00      	cmp	r3, #0
 80059d0:	d105      	bne.n	80059de <USBD_USR_ConfigStrDescriptor+0x1e>
  {  
    USBD_GetString ((uint8_t*)USBD_CONFIGURATION_HS_STRING, USBD_StrDesc, length);
 80059d2:	683a      	ldr	r2, [r7, #0]
 80059d4:	4907      	ldr	r1, [pc, #28]	; (80059f4 <USBD_USR_ConfigStrDescriptor+0x34>)
 80059d6:	4808      	ldr	r0, [pc, #32]	; (80059f8 <USBD_USR_ConfigStrDescriptor+0x38>)
 80059d8:	f7ff f8f6 	bl	8004bc8 <USBD_GetString>
 80059dc:	e004      	b.n	80059e8 <USBD_USR_ConfigStrDescriptor+0x28>
  }
  else
  {
    USBD_GetString ((uint8_t*)USBD_CONFIGURATION_FS_STRING, USBD_StrDesc, length);
 80059de:	683a      	ldr	r2, [r7, #0]
 80059e0:	4904      	ldr	r1, [pc, #16]	; (80059f4 <USBD_USR_ConfigStrDescriptor+0x34>)
 80059e2:	4805      	ldr	r0, [pc, #20]	; (80059f8 <USBD_USR_ConfigStrDescriptor+0x38>)
 80059e4:	f7ff f8f0 	bl	8004bc8 <USBD_GetString>
  }
  return USBD_StrDesc;  
 80059e8:	4b02      	ldr	r3, [pc, #8]	; (80059f4 <USBD_USR_ConfigStrDescriptor+0x34>)
}
 80059ea:	4618      	mov	r0, r3
 80059ec:	3708      	adds	r7, #8
 80059ee:	46bd      	mov	sp, r7
 80059f0:	bd80      	pop	{r7, pc}
 80059f2:	bf00      	nop
 80059f4:	20000860 	.word	0x20000860
 80059f8:	0800668c 	.word	0x0800668c

080059fc <USBD_USR_InterfaceStrDescriptor>:
* @param  speed : current device speed
* @param  length : pointer to data length variable
* @retval pointer to descriptor buffer
*/
uint8_t *  USBD_USR_InterfaceStrDescriptor( uint8_t speed , uint16_t *length)
{
 80059fc:	b580      	push	{r7, lr}
 80059fe:	b082      	sub	sp, #8
 8005a00:	af00      	add	r7, sp, #0
 8005a02:	4603      	mov	r3, r0
 8005a04:	6039      	str	r1, [r7, #0]
 8005a06:	71fb      	strb	r3, [r7, #7]
  if(speed == 0)
 8005a08:	79fb      	ldrb	r3, [r7, #7]
 8005a0a:	2b00      	cmp	r3, #0
 8005a0c:	d105      	bne.n	8005a1a <USBD_USR_InterfaceStrDescriptor+0x1e>
  {
    USBD_GetString ((uint8_t*)USBD_INTERFACE_HS_STRING, USBD_StrDesc, length);
 8005a0e:	683a      	ldr	r2, [r7, #0]
 8005a10:	4907      	ldr	r1, [pc, #28]	; (8005a30 <USBD_USR_InterfaceStrDescriptor+0x34>)
 8005a12:	4808      	ldr	r0, [pc, #32]	; (8005a34 <USBD_USR_InterfaceStrDescriptor+0x38>)
 8005a14:	f7ff f8d8 	bl	8004bc8 <USBD_GetString>
 8005a18:	e004      	b.n	8005a24 <USBD_USR_InterfaceStrDescriptor+0x28>
  }
  else
  {
    USBD_GetString ((uint8_t*)USBD_INTERFACE_FS_STRING, USBD_StrDesc, length);
 8005a1a:	683a      	ldr	r2, [r7, #0]
 8005a1c:	4904      	ldr	r1, [pc, #16]	; (8005a30 <USBD_USR_InterfaceStrDescriptor+0x34>)
 8005a1e:	4805      	ldr	r0, [pc, #20]	; (8005a34 <USBD_USR_InterfaceStrDescriptor+0x38>)
 8005a20:	f7ff f8d2 	bl	8004bc8 <USBD_GetString>
  }
  return USBD_StrDesc;  
 8005a24:	4b02      	ldr	r3, [pc, #8]	; (8005a30 <USBD_USR_InterfaceStrDescriptor+0x34>)
}
 8005a26:	4618      	mov	r0, r3
 8005a28:	3708      	adds	r7, #8
 8005a2a:	46bd      	mov	sp, r7
 8005a2c:	bd80      	pop	{r7, pc}
 8005a2e:	bf00      	nop
 8005a30:	20000860 	.word	0x20000860
 8005a34:	08006698 	.word	0x08006698

08005a38 <USB_OTG_BSP_Init>:
* @param  None
* @retval None
*/

void USB_OTG_BSP_Init(USB_OTG_CORE_HANDLE *pdev)
{
 8005a38:	b580      	push	{r7, lr}
 8005a3a:	b084      	sub	sp, #16
 8005a3c:	af00      	add	r7, sp, #0
 8005a3e:	6078      	str	r0, [r7, #4]
#endif


 #ifdef USE_USB_OTG_FS

  RCC_AHB1PeriphClockCmd( RCC_AHB1Periph_GPIOA , ENABLE);
 8005a40:	2101      	movs	r1, #1
 8005a42:	2001      	movs	r0, #1
 8005a44:	f000 f97e 	bl	8005d44 <RCC_AHB1PeriphClockCmd>

  /* Configure SOF VBUS ID DM DP Pins */
  GPIO_InitStructure.GPIO_Pin = GPIO_Pin_8  |
 8005a48:	f44f 53d8 	mov.w	r3, #6912	; 0x1b00
 8005a4c:	60bb      	str	r3, [r7, #8]
    GPIO_Pin_9  |
      GPIO_Pin_11 |
        GPIO_Pin_12;

  GPIO_InitStructure.GPIO_Speed = GPIO_Speed_100MHz;
 8005a4e:	2303      	movs	r3, #3
 8005a50:	737b      	strb	r3, [r7, #13]
  GPIO_InitStructure.GPIO_Mode = GPIO_Mode_AF;
 8005a52:	2302      	movs	r3, #2
 8005a54:	733b      	strb	r3, [r7, #12]
  GPIO_InitStructure.GPIO_OType = GPIO_OType_PP;
 8005a56:	2300      	movs	r3, #0
 8005a58:	73bb      	strb	r3, [r7, #14]
  GPIO_InitStructure.GPIO_PuPd = GPIO_PuPd_NOPULL ;
 8005a5a:	2300      	movs	r3, #0
 8005a5c:	73fb      	strb	r3, [r7, #15]
  GPIO_Init(GPIOA, &GPIO_InitStructure);
 8005a5e:	f107 0308 	add.w	r3, r7, #8
 8005a62:	4619      	mov	r1, r3
 8005a64:	481f      	ldr	r0, [pc, #124]	; (8005ae4 <USB_OTG_BSP_Init+0xac>)
 8005a66:	f000 fa0d 	bl	8005e84 <GPIO_Init>

  GPIO_PinAFConfig(GPIOA,GPIO_PinSource8,GPIO_AF_OTG1_FS) ;
 8005a6a:	220a      	movs	r2, #10
 8005a6c:	2108      	movs	r1, #8
 8005a6e:	481d      	ldr	r0, [pc, #116]	; (8005ae4 <USB_OTG_BSP_Init+0xac>)
 8005a70:	f000 fad0 	bl	8006014 <GPIO_PinAFConfig>
  GPIO_PinAFConfig(GPIOA,GPIO_PinSource9,GPIO_AF_OTG1_FS) ;
 8005a74:	220a      	movs	r2, #10
 8005a76:	2109      	movs	r1, #9
 8005a78:	481a      	ldr	r0, [pc, #104]	; (8005ae4 <USB_OTG_BSP_Init+0xac>)
 8005a7a:	f000 facb 	bl	8006014 <GPIO_PinAFConfig>
  GPIO_PinAFConfig(GPIOA,GPIO_PinSource11,GPIO_AF_OTG1_FS) ;
 8005a7e:	220a      	movs	r2, #10
 8005a80:	210b      	movs	r1, #11
 8005a82:	4818      	ldr	r0, [pc, #96]	; (8005ae4 <USB_OTG_BSP_Init+0xac>)
 8005a84:	f000 fac6 	bl	8006014 <GPIO_PinAFConfig>
  GPIO_PinAFConfig(GPIOA,GPIO_PinSource12,GPIO_AF_OTG1_FS) ;
 8005a88:	220a      	movs	r2, #10
 8005a8a:	210c      	movs	r1, #12
 8005a8c:	4815      	ldr	r0, [pc, #84]	; (8005ae4 <USB_OTG_BSP_Init+0xac>)
 8005a8e:	f000 fac1 	bl	8006014 <GPIO_PinAFConfig>

  /* this for ID line debug */


  GPIO_InitStructure.GPIO_Pin =  GPIO_Pin_10;
 8005a92:	f44f 6380 	mov.w	r3, #1024	; 0x400
 8005a96:	60bb      	str	r3, [r7, #8]
  GPIO_InitStructure.GPIO_OType = GPIO_OType_OD;
 8005a98:	2301      	movs	r3, #1
 8005a9a:	73bb      	strb	r3, [r7, #14]
  GPIO_InitStructure.GPIO_PuPd = GPIO_PuPd_UP ;
 8005a9c:	2301      	movs	r3, #1
 8005a9e:	73fb      	strb	r3, [r7, #15]
  GPIO_InitStructure.GPIO_Speed = GPIO_Speed_100MHz;
 8005aa0:	2303      	movs	r3, #3
 8005aa2:	737b      	strb	r3, [r7, #13]
  GPIO_Init(GPIOA, &GPIO_InitStructure);
 8005aa4:	f107 0308 	add.w	r3, r7, #8
 8005aa8:	4619      	mov	r1, r3
 8005aaa:	480e      	ldr	r0, [pc, #56]	; (8005ae4 <USB_OTG_BSP_Init+0xac>)
 8005aac:	f000 f9ea 	bl	8005e84 <GPIO_Init>
  GPIO_PinAFConfig(GPIOA,GPIO_PinSource10,GPIO_AF_OTG1_FS) ;
 8005ab0:	220a      	movs	r2, #10
 8005ab2:	210a      	movs	r1, #10
 8005ab4:	480b      	ldr	r0, [pc, #44]	; (8005ae4 <USB_OTG_BSP_Init+0xac>)
 8005ab6:	f000 faad 	bl	8006014 <GPIO_PinAFConfig>

  RCC_APB2PeriphClockCmd(RCC_APB2Periph_SYSCFG, ENABLE);
 8005aba:	2101      	movs	r1, #1
 8005abc:	f44f 4080 	mov.w	r0, #16384	; 0x4000
 8005ac0:	f000 f9a0 	bl	8005e04 <RCC_APB2PeriphClockCmd>
  RCC_AHB2PeriphClockCmd(RCC_AHB2Periph_OTG_FS, ENABLE) ;
 8005ac4:	2101      	movs	r1, #1
 8005ac6:	2080      	movs	r0, #128	; 0x80
 8005ac8:	f000 f95c 	bl	8005d84 <RCC_AHB2PeriphClockCmd>

 #endif //USB_OTG_HS


  /* enable the PWR clock */
  RCC_APB1PeriphResetCmd(RCC_APB1Periph_PWR, ENABLE);
 8005acc:	2101      	movs	r1, #1
 8005ace:	f04f 5080 	mov.w	r0, #268435456	; 0x10000000
 8005ad2:	f000 f9b7 	bl	8005e44 <RCC_APB1PeriphResetCmd>
  NVIC_Init(&NVIC_InitStructure);

  EXTI_ClearITPendingBit(EXTI_Line20);
#endif

  EXTI_ClearITPendingBit(EXTI_Line0);
 8005ad6:	2001      	movs	r0, #1
 8005ad8:	f000 fb58 	bl	800618c <EXTI_ClearITPendingBit>
}
 8005adc:	bf00      	nop
 8005ade:	3710      	adds	r7, #16
 8005ae0:	46bd      	mov	sp, r7
 8005ae2:	bd80      	pop	{r7, pc}
 8005ae4:	40020000 	.word	0x40020000

08005ae8 <USB_OTG_BSP_EnableInterrupt>:
*         Enabele USB Global interrupt
* @param  None
* @retval None
*/
void USB_OTG_BSP_EnableInterrupt(USB_OTG_CORE_HANDLE *pdev)
{
 8005ae8:	b580      	push	{r7, lr}
 8005aea:	b084      	sub	sp, #16
 8005aec:	af00      	add	r7, sp, #0
 8005aee:	6078      	str	r0, [r7, #4]
  NVIC_InitTypeDef NVIC_InitStructure;

  NVIC_PriorityGroupConfig(NVIC_PriorityGroup_1);
 8005af0:	f44f 60c0 	mov.w	r0, #1536	; 0x600
 8005af4:	f000 fc6c 	bl	80063d0 <NVIC_PriorityGroupConfig>
#ifdef USE_USB_OTG_HS
  NVIC_InitStructure.NVIC_IRQChannel = OTG_HS_IRQn;
#else
  NVIC_InitStructure.NVIC_IRQChannel = OTG_FS_IRQn;
 8005af8:	2343      	movs	r3, #67	; 0x43
 8005afa:	733b      	strb	r3, [r7, #12]
#endif
  NVIC_InitStructure.NVIC_IRQChannelPreemptionPriority = 1;
 8005afc:	2301      	movs	r3, #1
 8005afe:	737b      	strb	r3, [r7, #13]
  NVIC_InitStructure.NVIC_IRQChannelSubPriority = 3;
 8005b00:	2303      	movs	r3, #3
 8005b02:	73bb      	strb	r3, [r7, #14]
  NVIC_InitStructure.NVIC_IRQChannelCmd = ENABLE;
 8005b04:	2301      	movs	r3, #1
 8005b06:	73fb      	strb	r3, [r7, #15]
  NVIC_Init(&NVIC_InitStructure);
 8005b08:	f107 030c 	add.w	r3, r7, #12
 8005b0c:	4618      	mov	r0, r3
 8005b0e:	f000 fc73 	bl	80063f8 <NVIC_Init>
  NVIC_InitStructure.NVIC_IRQChannelPreemptionPriority = 1;
  NVIC_InitStructure.NVIC_IRQChannelSubPriority = 1;
  NVIC_InitStructure.NVIC_IRQChannelCmd = ENABLE;
  NVIC_Init(&NVIC_InitStructure);
#endif
}
 8005b12:	bf00      	nop
 8005b14:	3710      	adds	r7, #16
 8005b16:	46bd      	mov	sp, r7
 8005b18:	bd80      	pop	{r7, pc}
 8005b1a:	bf00      	nop

08005b1c <USB_OTG_BSP_uDelay>:
*         This function provides delay time in micro sec
* @param  usec : Value of delay required in micro sec
* @retval None
*/
void USB_OTG_BSP_uDelay (const uint32_t usec)
{
 8005b1c:	b480      	push	{r7}
 8005b1e:	b085      	sub	sp, #20
 8005b20:	af00      	add	r7, sp, #0
 8005b22:	6078      	str	r0, [r7, #4]
  uint32_t count = 0;
 8005b24:	2300      	movs	r3, #0
 8005b26:	60fb      	str	r3, [r7, #12]
  const uint32_t utime = (120 * usec / 7);
 8005b28:	687a      	ldr	r2, [r7, #4]
 8005b2a:	4613      	mov	r3, r2
 8005b2c:	011b      	lsls	r3, r3, #4
 8005b2e:	1a9b      	subs	r3, r3, r2
 8005b30:	00db      	lsls	r3, r3, #3
 8005b32:	461a      	mov	r2, r3
 8005b34:	4b0a      	ldr	r3, [pc, #40]	; (8005b60 <USB_OTG_BSP_uDelay+0x44>)
 8005b36:	fba3 1302 	umull	r1, r3, r3, r2
 8005b3a:	1ad2      	subs	r2, r2, r3
 8005b3c:	0852      	lsrs	r2, r2, #1
 8005b3e:	4413      	add	r3, r2
 8005b40:	089b      	lsrs	r3, r3, #2
 8005b42:	60bb      	str	r3, [r7, #8]
  do
  {
    if ( ++count > utime )
 8005b44:	68fb      	ldr	r3, [r7, #12]
 8005b46:	3301      	adds	r3, #1
 8005b48:	60fb      	str	r3, [r7, #12]
 8005b4a:	68fa      	ldr	r2, [r7, #12]
 8005b4c:	68bb      	ldr	r3, [r7, #8]
 8005b4e:	429a      	cmp	r2, r3
 8005b50:	d800      	bhi.n	8005b54 <USB_OTG_BSP_uDelay+0x38>
    {
      return ;
    }
  }
  while (1);
 8005b52:	e7f7      	b.n	8005b44 <USB_OTG_BSP_uDelay+0x28>
  const uint32_t utime = (120 * usec / 7);
  do
  {
    if ( ++count > utime )
    {
      return ;
 8005b54:	bf00      	nop
    }
  }
  while (1);
}
 8005b56:	3714      	adds	r7, #20
 8005b58:	46bd      	mov	sp, r7
 8005b5a:	f85d 7b04 	ldr.w	r7, [sp], #4
 8005b5e:	4770      	bx	lr
 8005b60:	24924925 	.word	0x24924925

08005b64 <USB_OTG_BSP_mDelay>:
*          This function provides delay time in milli sec
* @param  msec : Value of delay required in milli sec
* @retval None
*/
void USB_OTG_BSP_mDelay (const uint32_t msec)
{
 8005b64:	b580      	push	{r7, lr}
 8005b66:	b082      	sub	sp, #8
 8005b68:	af00      	add	r7, sp, #0
 8005b6a:	6078      	str	r0, [r7, #4]
  USB_OTG_BSP_uDelay(msec * 1000);
 8005b6c:	687b      	ldr	r3, [r7, #4]
 8005b6e:	f44f 727a 	mov.w	r2, #1000	; 0x3e8
 8005b72:	fb02 f303 	mul.w	r3, r2, r3
 8005b76:	4618      	mov	r0, r3
 8005b78:	f7ff ffd0 	bl	8005b1c <USB_OTG_BSP_uDelay>
}
 8005b7c:	bf00      	nop
 8005b7e:	3708      	adds	r7, #8
 8005b80:	46bd      	mov	sp, r7
 8005b82:	bd80      	pop	{r7, pc}

08005b84 <SYSCFG_EXTILineConfig>:
  *           and STM32F427x/STM32F437x devices. 
  *             
  * @retval None
  */
void SYSCFG_EXTILineConfig(uint8_t EXTI_PortSourceGPIOx, uint8_t EXTI_PinSourcex)
{
 8005b84:	b490      	push	{r4, r7}
 8005b86:	b084      	sub	sp, #16
 8005b88:	af00      	add	r7, sp, #0
 8005b8a:	4603      	mov	r3, r0
 8005b8c:	460a      	mov	r2, r1
 8005b8e:	71fb      	strb	r3, [r7, #7]
 8005b90:	4613      	mov	r3, r2
 8005b92:	71bb      	strb	r3, [r7, #6]
  uint32_t tmp = 0x00;
 8005b94:	2300      	movs	r3, #0
 8005b96:	60fb      	str	r3, [r7, #12]

  /* Check the parameters */
  assert_param(IS_EXTI_PORT_SOURCE(EXTI_PortSourceGPIOx));
  assert_param(IS_EXTI_PIN_SOURCE(EXTI_PinSourcex));

  tmp = ((uint32_t)0x0F) << (0x04 * (EXTI_PinSourcex & (uint8_t)0x03));
 8005b98:	79bb      	ldrb	r3, [r7, #6]
 8005b9a:	f003 0303 	and.w	r3, r3, #3
 8005b9e:	009b      	lsls	r3, r3, #2
 8005ba0:	220f      	movs	r2, #15
 8005ba2:	fa02 f303 	lsl.w	r3, r2, r3
 8005ba6:	60fb      	str	r3, [r7, #12]
  SYSCFG->EXTICR[EXTI_PinSourcex >> 0x02] &= ~tmp;
 8005ba8:	4916      	ldr	r1, [pc, #88]	; (8005c04 <SYSCFG_EXTILineConfig+0x80>)
 8005baa:	79bb      	ldrb	r3, [r7, #6]
 8005bac:	089b      	lsrs	r3, r3, #2
 8005bae:	b2db      	uxtb	r3, r3
 8005bb0:	4618      	mov	r0, r3
 8005bb2:	4a14      	ldr	r2, [pc, #80]	; (8005c04 <SYSCFG_EXTILineConfig+0x80>)
 8005bb4:	79bb      	ldrb	r3, [r7, #6]
 8005bb6:	089b      	lsrs	r3, r3, #2
 8005bb8:	b2db      	uxtb	r3, r3
 8005bba:	3302      	adds	r3, #2
 8005bbc:	f852 2023 	ldr.w	r2, [r2, r3, lsl #2]
 8005bc0:	68fb      	ldr	r3, [r7, #12]
 8005bc2:	43db      	mvns	r3, r3
 8005bc4:	401a      	ands	r2, r3
 8005bc6:	1c83      	adds	r3, r0, #2
 8005bc8:	f841 2023 	str.w	r2, [r1, r3, lsl #2]
  SYSCFG->EXTICR[EXTI_PinSourcex >> 0x02] |= (((uint32_t)EXTI_PortSourceGPIOx) << (0x04 * (EXTI_PinSourcex & (uint8_t)0x03)));
 8005bcc:	480d      	ldr	r0, [pc, #52]	; (8005c04 <SYSCFG_EXTILineConfig+0x80>)
 8005bce:	79bb      	ldrb	r3, [r7, #6]
 8005bd0:	089b      	lsrs	r3, r3, #2
 8005bd2:	b2db      	uxtb	r3, r3
 8005bd4:	461c      	mov	r4, r3
 8005bd6:	4a0b      	ldr	r2, [pc, #44]	; (8005c04 <SYSCFG_EXTILineConfig+0x80>)
 8005bd8:	79bb      	ldrb	r3, [r7, #6]
 8005bda:	089b      	lsrs	r3, r3, #2
 8005bdc:	b2db      	uxtb	r3, r3
 8005bde:	3302      	adds	r3, #2
 8005be0:	f852 2023 	ldr.w	r2, [r2, r3, lsl #2]
 8005be4:	79f9      	ldrb	r1, [r7, #7]
 8005be6:	79bb      	ldrb	r3, [r7, #6]
 8005be8:	f003 0303 	and.w	r3, r3, #3
 8005bec:	009b      	lsls	r3, r3, #2
 8005bee:	fa01 f303 	lsl.w	r3, r1, r3
 8005bf2:	431a      	orrs	r2, r3
 8005bf4:	1ca3      	adds	r3, r4, #2
 8005bf6:	f840 2023 	str.w	r2, [r0, r3, lsl #2]
}
 8005bfa:	bf00      	nop
 8005bfc:	3710      	adds	r7, #16
 8005bfe:	46bd      	mov	sp, r7
 8005c00:	bc90      	pop	{r4, r7}
 8005c02:	4770      	bx	lr
 8005c04:	40013800 	.word	0x40013800

08005c08 <SPI_Init>:
  * @param  SPI_InitStruct: pointer to a SPI_InitTypeDef structure that
  *         contains the configuration information for the specified SPI peripheral.
  * @retval None
  */
void SPI_Init(SPI_TypeDef* SPIx, SPI_InitTypeDef* SPI_InitStruct)
{
 8005c08:	b480      	push	{r7}
 8005c0a:	b085      	sub	sp, #20
 8005c0c:	af00      	add	r7, sp, #0
 8005c0e:	6078      	str	r0, [r7, #4]
 8005c10:	6039      	str	r1, [r7, #0]
  uint16_t tmpreg = 0;
 8005c12:	2300      	movs	r3, #0
 8005c14:	81fb      	strh	r3, [r7, #14]
  assert_param(IS_SPI_FIRST_BIT(SPI_InitStruct->SPI_FirstBit));
  assert_param(IS_SPI_CRC_POLYNOMIAL(SPI_InitStruct->SPI_CRCPolynomial));

/*---------------------------- SPIx CR1 Configuration ------------------------*/
  /* Get the SPIx CR1 value */
  tmpreg = SPIx->CR1;
 8005c16:	687b      	ldr	r3, [r7, #4]
 8005c18:	881b      	ldrh	r3, [r3, #0]
 8005c1a:	81fb      	strh	r3, [r7, #14]
  /* Clear BIDIMode, BIDIOE, RxONLY, SSM, SSI, LSBFirst, BR, MSTR, CPOL and CPHA bits */
  tmpreg &= CR1_CLEAR_MASK;
 8005c1c:	89fb      	ldrh	r3, [r7, #14]
 8005c1e:	f403 5341 	and.w	r3, r3, #12352	; 0x3040
 8005c22:	81fb      	strh	r3, [r7, #14]
  /* Set SSM, SSI and MSTR bits according to SPI_Mode and SPI_NSS values */
  /* Set LSBFirst bit according to SPI_FirstBit value */
  /* Set BR bits according to SPI_BaudRatePrescaler value */
  /* Set CPOL bit according to SPI_CPOL value */
  /* Set CPHA bit according to SPI_CPHA value */
  tmpreg |= (uint16_t)((uint32_t)SPI_InitStruct->SPI_Direction | SPI_InitStruct->SPI_Mode |
 8005c24:	683b      	ldr	r3, [r7, #0]
 8005c26:	881a      	ldrh	r2, [r3, #0]
 8005c28:	683b      	ldr	r3, [r7, #0]
 8005c2a:	885b      	ldrh	r3, [r3, #2]
 8005c2c:	4313      	orrs	r3, r2
 8005c2e:	b29a      	uxth	r2, r3
                  SPI_InitStruct->SPI_DataSize | SPI_InitStruct->SPI_CPOL |  
 8005c30:	683b      	ldr	r3, [r7, #0]
 8005c32:	889b      	ldrh	r3, [r3, #4]
  /* Set SSM, SSI and MSTR bits according to SPI_Mode and SPI_NSS values */
  /* Set LSBFirst bit according to SPI_FirstBit value */
  /* Set BR bits according to SPI_BaudRatePrescaler value */
  /* Set CPOL bit according to SPI_CPOL value */
  /* Set CPHA bit according to SPI_CPHA value */
  tmpreg |= (uint16_t)((uint32_t)SPI_InitStruct->SPI_Direction | SPI_InitStruct->SPI_Mode |
 8005c34:	4313      	orrs	r3, r2
 8005c36:	b29a      	uxth	r2, r3
                  SPI_InitStruct->SPI_DataSize | SPI_InitStruct->SPI_CPOL |  
 8005c38:	683b      	ldr	r3, [r7, #0]
 8005c3a:	88db      	ldrh	r3, [r3, #6]
  /* Set SSM, SSI and MSTR bits according to SPI_Mode and SPI_NSS values */
  /* Set LSBFirst bit according to SPI_FirstBit value */
  /* Set BR bits according to SPI_BaudRatePrescaler value */
  /* Set CPOL bit according to SPI_CPOL value */
  /* Set CPHA bit according to SPI_CPHA value */
  tmpreg |= (uint16_t)((uint32_t)SPI_InitStruct->SPI_Direction | SPI_InitStruct->SPI_Mode |
 8005c3c:	4313      	orrs	r3, r2
 8005c3e:	b29a      	uxth	r2, r3
                  SPI_InitStruct->SPI_DataSize | SPI_InitStruct->SPI_CPOL |  
                  SPI_InitStruct->SPI_CPHA | SPI_InitStruct->SPI_NSS |  
 8005c40:	683b      	ldr	r3, [r7, #0]
 8005c42:	891b      	ldrh	r3, [r3, #8]
  /* Set SSM, SSI and MSTR bits according to SPI_Mode and SPI_NSS values */
  /* Set LSBFirst bit according to SPI_FirstBit value */
  /* Set BR bits according to SPI_BaudRatePrescaler value */
  /* Set CPOL bit according to SPI_CPOL value */
  /* Set CPHA bit according to SPI_CPHA value */
  tmpreg |= (uint16_t)((uint32_t)SPI_InitStruct->SPI_Direction | SPI_InitStruct->SPI_Mode |
 8005c44:	4313      	orrs	r3, r2
 8005c46:	b29a      	uxth	r2, r3
                  SPI_InitStruct->SPI_DataSize | SPI_InitStruct->SPI_CPOL |  
                  SPI_InitStruct->SPI_CPHA | SPI_InitStruct->SPI_NSS |  
 8005c48:	683b      	ldr	r3, [r7, #0]
 8005c4a:	895b      	ldrh	r3, [r3, #10]
  /* Set SSM, SSI and MSTR bits according to SPI_Mode and SPI_NSS values */
  /* Set LSBFirst bit according to SPI_FirstBit value */
  /* Set BR bits according to SPI_BaudRatePrescaler value */
  /* Set CPOL bit according to SPI_CPOL value */
  /* Set CPHA bit according to SPI_CPHA value */
  tmpreg |= (uint16_t)((uint32_t)SPI_InitStruct->SPI_Direction | SPI_InitStruct->SPI_Mode |
 8005c4c:	4313      	orrs	r3, r2
 8005c4e:	b29a      	uxth	r2, r3
                  SPI_InitStruct->SPI_DataSize | SPI_InitStruct->SPI_CPOL |  
                  SPI_InitStruct->SPI_CPHA | SPI_InitStruct->SPI_NSS |  
                  SPI_InitStruct->SPI_BaudRatePrescaler | SPI_InitStruct->SPI_FirstBit);
 8005c50:	683b      	ldr	r3, [r7, #0]
 8005c52:	899b      	ldrh	r3, [r3, #12]
  /* Set SSM, SSI and MSTR bits according to SPI_Mode and SPI_NSS values */
  /* Set LSBFirst bit according to SPI_FirstBit value */
  /* Set BR bits according to SPI_BaudRatePrescaler value */
  /* Set CPOL bit according to SPI_CPOL value */
  /* Set CPHA bit according to SPI_CPHA value */
  tmpreg |= (uint16_t)((uint32_t)SPI_InitStruct->SPI_Direction | SPI_InitStruct->SPI_Mode |
 8005c54:	4313      	orrs	r3, r2
 8005c56:	b29a      	uxth	r2, r3
                  SPI_InitStruct->SPI_DataSize | SPI_InitStruct->SPI_CPOL |  
                  SPI_InitStruct->SPI_CPHA | SPI_InitStruct->SPI_NSS |  
                  SPI_InitStruct->SPI_BaudRatePrescaler | SPI_InitStruct->SPI_FirstBit);
 8005c58:	683b      	ldr	r3, [r7, #0]
 8005c5a:	89db      	ldrh	r3, [r3, #14]
  /* Set SSM, SSI and MSTR bits according to SPI_Mode and SPI_NSS values */
  /* Set LSBFirst bit according to SPI_FirstBit value */
  /* Set BR bits according to SPI_BaudRatePrescaler value */
  /* Set CPOL bit according to SPI_CPOL value */
  /* Set CPHA bit according to SPI_CPHA value */
  tmpreg |= (uint16_t)((uint32_t)SPI_InitStruct->SPI_Direction | SPI_InitStruct->SPI_Mode |
 8005c5c:	4313      	orrs	r3, r2
 8005c5e:	b29a      	uxth	r2, r3
 8005c60:	89fb      	ldrh	r3, [r7, #14]
 8005c62:	4313      	orrs	r3, r2
 8005c64:	81fb      	strh	r3, [r7, #14]
                  SPI_InitStruct->SPI_DataSize | SPI_InitStruct->SPI_CPOL |  
                  SPI_InitStruct->SPI_CPHA | SPI_InitStruct->SPI_NSS |  
                  SPI_InitStruct->SPI_BaudRatePrescaler | SPI_InitStruct->SPI_FirstBit);
  /* Write to SPIx CR1 */
  SPIx->CR1 = tmpreg;
 8005c66:	687b      	ldr	r3, [r7, #4]
 8005c68:	89fa      	ldrh	r2, [r7, #14]
 8005c6a:	801a      	strh	r2, [r3, #0]

  /* Activate the SPI mode (Reset I2SMOD bit in I2SCFGR register) */
  SPIx->I2SCFGR &= (uint16_t)~((uint16_t)SPI_I2SCFGR_I2SMOD);
 8005c6c:	687b      	ldr	r3, [r7, #4]
 8005c6e:	8b9b      	ldrh	r3, [r3, #28]
 8005c70:	b29b      	uxth	r3, r3
 8005c72:	f423 6300 	bic.w	r3, r3, #2048	; 0x800
 8005c76:	b29a      	uxth	r2, r3
 8005c78:	687b      	ldr	r3, [r7, #4]
 8005c7a:	839a      	strh	r2, [r3, #28]
/*---------------------------- SPIx CRCPOLY Configuration --------------------*/
  /* Write to SPIx CRCPOLY */
  SPIx->CRCPR = SPI_InitStruct->SPI_CRCPolynomial;
 8005c7c:	683b      	ldr	r3, [r7, #0]
 8005c7e:	8a1a      	ldrh	r2, [r3, #16]
 8005c80:	687b      	ldr	r3, [r7, #4]
 8005c82:	821a      	strh	r2, [r3, #16]
}
 8005c84:	bf00      	nop
 8005c86:	3714      	adds	r7, #20
 8005c88:	46bd      	mov	sp, r7
 8005c8a:	f85d 7b04 	ldr.w	r7, [sp], #4
 8005c8e:	4770      	bx	lr

08005c90 <SPI_Cmd>:
  * @param  NewState: new state of the SPIx peripheral. 
  *          This parameter can be: ENABLE or DISABLE.
  * @retval None
  */
void SPI_Cmd(SPI_TypeDef* SPIx, FunctionalState NewState)
{
 8005c90:	b480      	push	{r7}
 8005c92:	b083      	sub	sp, #12
 8005c94:	af00      	add	r7, sp, #0
 8005c96:	6078      	str	r0, [r7, #4]
 8005c98:	460b      	mov	r3, r1
 8005c9a:	70fb      	strb	r3, [r7, #3]
  /* Check the parameters */
  assert_param(IS_SPI_ALL_PERIPH(SPIx));
  assert_param(IS_FUNCTIONAL_STATE(NewState));
  if (NewState != DISABLE)
 8005c9c:	78fb      	ldrb	r3, [r7, #3]
 8005c9e:	2b00      	cmp	r3, #0
 8005ca0:	d008      	beq.n	8005cb4 <SPI_Cmd+0x24>
  {
    /* Enable the selected SPI peripheral */
    SPIx->CR1 |= SPI_CR1_SPE;
 8005ca2:	687b      	ldr	r3, [r7, #4]
 8005ca4:	881b      	ldrh	r3, [r3, #0]
 8005ca6:	b29b      	uxth	r3, r3
 8005ca8:	f043 0340 	orr.w	r3, r3, #64	; 0x40
 8005cac:	b29a      	uxth	r2, r3
 8005cae:	687b      	ldr	r3, [r7, #4]
 8005cb0:	801a      	strh	r2, [r3, #0]
  else
  {
    /* Disable the selected SPI peripheral */
    SPIx->CR1 &= (uint16_t)~((uint16_t)SPI_CR1_SPE);
  }
}
 8005cb2:	e007      	b.n	8005cc4 <SPI_Cmd+0x34>
    SPIx->CR1 |= SPI_CR1_SPE;
  }
  else
  {
    /* Disable the selected SPI peripheral */
    SPIx->CR1 &= (uint16_t)~((uint16_t)SPI_CR1_SPE);
 8005cb4:	687b      	ldr	r3, [r7, #4]
 8005cb6:	881b      	ldrh	r3, [r3, #0]
 8005cb8:	b29b      	uxth	r3, r3
 8005cba:	f023 0340 	bic.w	r3, r3, #64	; 0x40
 8005cbe:	b29a      	uxth	r2, r3
 8005cc0:	687b      	ldr	r3, [r7, #4]
 8005cc2:	801a      	strh	r2, [r3, #0]
  }
}
 8005cc4:	bf00      	nop
 8005cc6:	370c      	adds	r7, #12
 8005cc8:	46bd      	mov	sp, r7
 8005cca:	f85d 7b04 	ldr.w	r7, [sp], #4
 8005cce:	4770      	bx	lr

08005cd0 <SPI_I2S_ReceiveData>:
  * @param  SPIx: To select the SPIx/I2Sx peripheral, where x can be: 1, 2, 3, 4, 5 or 6 
  *         in SPI mode or 2 or 3 in I2S mode or I2Sxext for I2S full duplex mode. 
  * @retval The value of the received data.
  */
uint16_t SPI_I2S_ReceiveData(SPI_TypeDef* SPIx)
{
 8005cd0:	b480      	push	{r7}
 8005cd2:	b083      	sub	sp, #12
 8005cd4:	af00      	add	r7, sp, #0
 8005cd6:	6078      	str	r0, [r7, #4]
  /* Check the parameters */
  assert_param(IS_SPI_ALL_PERIPH_EXT(SPIx));
  
  /* Return the data in the DR register */
  return SPIx->DR;
 8005cd8:	687b      	ldr	r3, [r7, #4]
 8005cda:	899b      	ldrh	r3, [r3, #12]
 8005cdc:	b29b      	uxth	r3, r3
}
 8005cde:	4618      	mov	r0, r3
 8005ce0:	370c      	adds	r7, #12
 8005ce2:	46bd      	mov	sp, r7
 8005ce4:	f85d 7b04 	ldr.w	r7, [sp], #4
 8005ce8:	4770      	bx	lr
 8005cea:	bf00      	nop

08005cec <SPI_I2S_SendData>:
  *         in SPI mode or 2 or 3 in I2S mode or I2Sxext for I2S full duplex mode.     
  * @param  Data: Data to be transmitted.
  * @retval None
  */
void SPI_I2S_SendData(SPI_TypeDef* SPIx, uint16_t Data)
{
 8005cec:	b480      	push	{r7}
 8005cee:	b083      	sub	sp, #12
 8005cf0:	af00      	add	r7, sp, #0
 8005cf2:	6078      	str	r0, [r7, #4]
 8005cf4:	460b      	mov	r3, r1
 8005cf6:	807b      	strh	r3, [r7, #2]
  /* Check the parameters */
  assert_param(IS_SPI_ALL_PERIPH_EXT(SPIx));
  
  /* Write in the DR register the data to be sent */
  SPIx->DR = Data;
 8005cf8:	687b      	ldr	r3, [r7, #4]
 8005cfa:	887a      	ldrh	r2, [r7, #2]
 8005cfc:	819a      	strh	r2, [r3, #12]
}
 8005cfe:	bf00      	nop
 8005d00:	370c      	adds	r7, #12
 8005d02:	46bd      	mov	sp, r7
 8005d04:	f85d 7b04 	ldr.w	r7, [sp], #4
 8005d08:	4770      	bx	lr
 8005d0a:	bf00      	nop

08005d0c <SPI_I2S_GetFlagStatus>:
  *            @arg I2S_FLAG_UDR: Underrun Error flag.
  *            @arg I2S_FLAG_CHSIDE: Channel Side flag.  
  * @retval The new state of SPI_I2S_FLAG (SET or RESET).
  */
FlagStatus SPI_I2S_GetFlagStatus(SPI_TypeDef* SPIx, uint16_t SPI_I2S_FLAG)
{
 8005d0c:	b480      	push	{r7}
 8005d0e:	b085      	sub	sp, #20
 8005d10:	af00      	add	r7, sp, #0
 8005d12:	6078      	str	r0, [r7, #4]
 8005d14:	460b      	mov	r3, r1
 8005d16:	807b      	strh	r3, [r7, #2]
  FlagStatus bitstatus = RESET;
 8005d18:	2300      	movs	r3, #0
 8005d1a:	73fb      	strb	r3, [r7, #15]
  /* Check the parameters */
  assert_param(IS_SPI_ALL_PERIPH_EXT(SPIx));
  assert_param(IS_SPI_I2S_GET_FLAG(SPI_I2S_FLAG));
  
  /* Check the status of the specified SPI flag */
  if ((SPIx->SR & SPI_I2S_FLAG) != (uint16_t)RESET)
 8005d1c:	687b      	ldr	r3, [r7, #4]
 8005d1e:	891b      	ldrh	r3, [r3, #8]
 8005d20:	b29a      	uxth	r2, r3
 8005d22:	887b      	ldrh	r3, [r7, #2]
 8005d24:	4013      	ands	r3, r2
 8005d26:	b29b      	uxth	r3, r3
 8005d28:	2b00      	cmp	r3, #0
 8005d2a:	d002      	beq.n	8005d32 <SPI_I2S_GetFlagStatus+0x26>
  {
    /* SPI_I2S_FLAG is set */
    bitstatus = SET;
 8005d2c:	2301      	movs	r3, #1
 8005d2e:	73fb      	strb	r3, [r7, #15]
 8005d30:	e001      	b.n	8005d36 <SPI_I2S_GetFlagStatus+0x2a>
  }
  else
  {
    /* SPI_I2S_FLAG is reset */
    bitstatus = RESET;
 8005d32:	2300      	movs	r3, #0
 8005d34:	73fb      	strb	r3, [r7, #15]
  }
  /* Return the SPI_I2S_FLAG status */
  return  bitstatus;
 8005d36:	7bfb      	ldrb	r3, [r7, #15]
}
 8005d38:	4618      	mov	r0, r3
 8005d3a:	3714      	adds	r7, #20
 8005d3c:	46bd      	mov	sp, r7
 8005d3e:	f85d 7b04 	ldr.w	r7, [sp], #4
 8005d42:	4770      	bx	lr

08005d44 <RCC_AHB1PeriphClockCmd>:
  * @param  NewState: new state of the specified peripheral clock.
  *          This parameter can be: ENABLE or DISABLE.
  * @retval None
  */
void RCC_AHB1PeriphClockCmd(uint32_t RCC_AHB1Periph, FunctionalState NewState)
{
 8005d44:	b480      	push	{r7}
 8005d46:	b083      	sub	sp, #12
 8005d48:	af00      	add	r7, sp, #0
 8005d4a:	6078      	str	r0, [r7, #4]
 8005d4c:	460b      	mov	r3, r1
 8005d4e:	70fb      	strb	r3, [r7, #3]
  /* Check the parameters */
  assert_param(IS_RCC_AHB1_CLOCK_PERIPH(RCC_AHB1Periph));

  assert_param(IS_FUNCTIONAL_STATE(NewState));
  if (NewState != DISABLE)
 8005d50:	78fb      	ldrb	r3, [r7, #3]
 8005d52:	2b00      	cmp	r3, #0
 8005d54:	d006      	beq.n	8005d64 <RCC_AHB1PeriphClockCmd+0x20>
  {
    RCC->AHB1ENR |= RCC_AHB1Periph;
 8005d56:	490a      	ldr	r1, [pc, #40]	; (8005d80 <RCC_AHB1PeriphClockCmd+0x3c>)
 8005d58:	4b09      	ldr	r3, [pc, #36]	; (8005d80 <RCC_AHB1PeriphClockCmd+0x3c>)
 8005d5a:	6b1a      	ldr	r2, [r3, #48]	; 0x30
 8005d5c:	687b      	ldr	r3, [r7, #4]
 8005d5e:	4313      	orrs	r3, r2
 8005d60:	630b      	str	r3, [r1, #48]	; 0x30
  }
  else
  {
    RCC->AHB1ENR &= ~RCC_AHB1Periph;
  }
}
 8005d62:	e006      	b.n	8005d72 <RCC_AHB1PeriphClockCmd+0x2e>
  {
    RCC->AHB1ENR |= RCC_AHB1Periph;
  }
  else
  {
    RCC->AHB1ENR &= ~RCC_AHB1Periph;
 8005d64:	4906      	ldr	r1, [pc, #24]	; (8005d80 <RCC_AHB1PeriphClockCmd+0x3c>)
 8005d66:	4b06      	ldr	r3, [pc, #24]	; (8005d80 <RCC_AHB1PeriphClockCmd+0x3c>)
 8005d68:	6b1a      	ldr	r2, [r3, #48]	; 0x30
 8005d6a:	687b      	ldr	r3, [r7, #4]
 8005d6c:	43db      	mvns	r3, r3
 8005d6e:	4013      	ands	r3, r2
 8005d70:	630b      	str	r3, [r1, #48]	; 0x30
  }
}
 8005d72:	bf00      	nop
 8005d74:	370c      	adds	r7, #12
 8005d76:	46bd      	mov	sp, r7
 8005d78:	f85d 7b04 	ldr.w	r7, [sp], #4
 8005d7c:	4770      	bx	lr
 8005d7e:	bf00      	nop
 8005d80:	40023800 	.word	0x40023800

08005d84 <RCC_AHB2PeriphClockCmd>:
  * @param  NewState: new state of the specified peripheral clock.
  *          This parameter can be: ENABLE or DISABLE.
  * @retval None
  */
void RCC_AHB2PeriphClockCmd(uint32_t RCC_AHB2Periph, FunctionalState NewState)
{
 8005d84:	b480      	push	{r7}
 8005d86:	b083      	sub	sp, #12
 8005d88:	af00      	add	r7, sp, #0
 8005d8a:	6078      	str	r0, [r7, #4]
 8005d8c:	460b      	mov	r3, r1
 8005d8e:	70fb      	strb	r3, [r7, #3]
  /* Check the parameters */
  assert_param(IS_RCC_AHB2_PERIPH(RCC_AHB2Periph));
  assert_param(IS_FUNCTIONAL_STATE(NewState));

  if (NewState != DISABLE)
 8005d90:	78fb      	ldrb	r3, [r7, #3]
 8005d92:	2b00      	cmp	r3, #0
 8005d94:	d006      	beq.n	8005da4 <RCC_AHB2PeriphClockCmd+0x20>
  {
    RCC->AHB2ENR |= RCC_AHB2Periph;
 8005d96:	490a      	ldr	r1, [pc, #40]	; (8005dc0 <RCC_AHB2PeriphClockCmd+0x3c>)
 8005d98:	4b09      	ldr	r3, [pc, #36]	; (8005dc0 <RCC_AHB2PeriphClockCmd+0x3c>)
 8005d9a:	6b5a      	ldr	r2, [r3, #52]	; 0x34
 8005d9c:	687b      	ldr	r3, [r7, #4]
 8005d9e:	4313      	orrs	r3, r2
 8005da0:	634b      	str	r3, [r1, #52]	; 0x34
  }
  else
  {
    RCC->AHB2ENR &= ~RCC_AHB2Periph;
  }
}
 8005da2:	e006      	b.n	8005db2 <RCC_AHB2PeriphClockCmd+0x2e>
  {
    RCC->AHB2ENR |= RCC_AHB2Periph;
  }
  else
  {
    RCC->AHB2ENR &= ~RCC_AHB2Periph;
 8005da4:	4906      	ldr	r1, [pc, #24]	; (8005dc0 <RCC_AHB2PeriphClockCmd+0x3c>)
 8005da6:	4b06      	ldr	r3, [pc, #24]	; (8005dc0 <RCC_AHB2PeriphClockCmd+0x3c>)
 8005da8:	6b5a      	ldr	r2, [r3, #52]	; 0x34
 8005daa:	687b      	ldr	r3, [r7, #4]
 8005dac:	43db      	mvns	r3, r3
 8005dae:	4013      	ands	r3, r2
 8005db0:	634b      	str	r3, [r1, #52]	; 0x34
  }
}
 8005db2:	bf00      	nop
 8005db4:	370c      	adds	r7, #12
 8005db6:	46bd      	mov	sp, r7
 8005db8:	f85d 7b04 	ldr.w	r7, [sp], #4
 8005dbc:	4770      	bx	lr
 8005dbe:	bf00      	nop
 8005dc0:	40023800 	.word	0x40023800

08005dc4 <RCC_APB1PeriphClockCmd>:
  * @param  NewState: new state of the specified peripheral clock.
  *          This parameter can be: ENABLE or DISABLE.
  * @retval None
  */
void RCC_APB1PeriphClockCmd(uint32_t RCC_APB1Periph, FunctionalState NewState)
{
 8005dc4:	b480      	push	{r7}
 8005dc6:	b083      	sub	sp, #12
 8005dc8:	af00      	add	r7, sp, #0
 8005dca:	6078      	str	r0, [r7, #4]
 8005dcc:	460b      	mov	r3, r1
 8005dce:	70fb      	strb	r3, [r7, #3]
  /* Check the parameters */
  assert_param(IS_RCC_APB1_PERIPH(RCC_APB1Periph));  
  assert_param(IS_FUNCTIONAL_STATE(NewState));

  if (NewState != DISABLE)
 8005dd0:	78fb      	ldrb	r3, [r7, #3]
 8005dd2:	2b00      	cmp	r3, #0
 8005dd4:	d006      	beq.n	8005de4 <RCC_APB1PeriphClockCmd+0x20>
  {
    RCC->APB1ENR |= RCC_APB1Periph;
 8005dd6:	490a      	ldr	r1, [pc, #40]	; (8005e00 <RCC_APB1PeriphClockCmd+0x3c>)
 8005dd8:	4b09      	ldr	r3, [pc, #36]	; (8005e00 <RCC_APB1PeriphClockCmd+0x3c>)
 8005dda:	6c1a      	ldr	r2, [r3, #64]	; 0x40
 8005ddc:	687b      	ldr	r3, [r7, #4]
 8005dde:	4313      	orrs	r3, r2
 8005de0:	640b      	str	r3, [r1, #64]	; 0x40
  }
  else
  {
    RCC->APB1ENR &= ~RCC_APB1Periph;
  }
}
 8005de2:	e006      	b.n	8005df2 <RCC_APB1PeriphClockCmd+0x2e>
  {
    RCC->APB1ENR |= RCC_APB1Periph;
  }
  else
  {
    RCC->APB1ENR &= ~RCC_APB1Periph;
 8005de4:	4906      	ldr	r1, [pc, #24]	; (8005e00 <RCC_APB1PeriphClockCmd+0x3c>)
 8005de6:	4b06      	ldr	r3, [pc, #24]	; (8005e00 <RCC_APB1PeriphClockCmd+0x3c>)
 8005de8:	6c1a      	ldr	r2, [r3, #64]	; 0x40
 8005dea:	687b      	ldr	r3, [r7, #4]
 8005dec:	43db      	mvns	r3, r3
 8005dee:	4013      	ands	r3, r2
 8005df0:	640b      	str	r3, [r1, #64]	; 0x40
  }
}
 8005df2:	bf00      	nop
 8005df4:	370c      	adds	r7, #12
 8005df6:	46bd      	mov	sp, r7
 8005df8:	f85d 7b04 	ldr.w	r7, [sp], #4
 8005dfc:	4770      	bx	lr
 8005dfe:	bf00      	nop
 8005e00:	40023800 	.word	0x40023800

08005e04 <RCC_APB2PeriphClockCmd>:
  * @param  NewState: new state of the specified peripheral clock.
  *          This parameter can be: ENABLE or DISABLE.
  * @retval None
  */
void RCC_APB2PeriphClockCmd(uint32_t RCC_APB2Periph, FunctionalState NewState)
{
 8005e04:	b480      	push	{r7}
 8005e06:	b083      	sub	sp, #12
 8005e08:	af00      	add	r7, sp, #0
 8005e0a:	6078      	str	r0, [r7, #4]
 8005e0c:	460b      	mov	r3, r1
 8005e0e:	70fb      	strb	r3, [r7, #3]
  /* Check the parameters */
  assert_param(IS_RCC_APB2_PERIPH(RCC_APB2Periph));
  assert_param(IS_FUNCTIONAL_STATE(NewState));

  if (NewState != DISABLE)
 8005e10:	78fb      	ldrb	r3, [r7, #3]
 8005e12:	2b00      	cmp	r3, #0
 8005e14:	d006      	beq.n	8005e24 <RCC_APB2PeriphClockCmd+0x20>
  {
    RCC->APB2ENR |= RCC_APB2Periph;
 8005e16:	490a      	ldr	r1, [pc, #40]	; (8005e40 <RCC_APB2PeriphClockCmd+0x3c>)
 8005e18:	4b09      	ldr	r3, [pc, #36]	; (8005e40 <RCC_APB2PeriphClockCmd+0x3c>)
 8005e1a:	6c5a      	ldr	r2, [r3, #68]	; 0x44
 8005e1c:	687b      	ldr	r3, [r7, #4]
 8005e1e:	4313      	orrs	r3, r2
 8005e20:	644b      	str	r3, [r1, #68]	; 0x44
  }
  else
  {
    RCC->APB2ENR &= ~RCC_APB2Periph;
  }
}
 8005e22:	e006      	b.n	8005e32 <RCC_APB2PeriphClockCmd+0x2e>
  {
    RCC->APB2ENR |= RCC_APB2Periph;
  }
  else
  {
    RCC->APB2ENR &= ~RCC_APB2Periph;
 8005e24:	4906      	ldr	r1, [pc, #24]	; (8005e40 <RCC_APB2PeriphClockCmd+0x3c>)
 8005e26:	4b06      	ldr	r3, [pc, #24]	; (8005e40 <RCC_APB2PeriphClockCmd+0x3c>)
 8005e28:	6c5a      	ldr	r2, [r3, #68]	; 0x44
 8005e2a:	687b      	ldr	r3, [r7, #4]
 8005e2c:	43db      	mvns	r3, r3
 8005e2e:	4013      	ands	r3, r2
 8005e30:	644b      	str	r3, [r1, #68]	; 0x44
  }
}
 8005e32:	bf00      	nop
 8005e34:	370c      	adds	r7, #12
 8005e36:	46bd      	mov	sp, r7
 8005e38:	f85d 7b04 	ldr.w	r7, [sp], #4
 8005e3c:	4770      	bx	lr
 8005e3e:	bf00      	nop
 8005e40:	40023800 	.word	0x40023800

08005e44 <RCC_APB1PeriphResetCmd>:
  * @param  NewState: new state of the specified peripheral reset.
  *          This parameter can be: ENABLE or DISABLE.
  * @retval None
  */
void RCC_APB1PeriphResetCmd(uint32_t RCC_APB1Periph, FunctionalState NewState)
{
 8005e44:	b480      	push	{r7}
 8005e46:	b083      	sub	sp, #12
 8005e48:	af00      	add	r7, sp, #0
 8005e4a:	6078      	str	r0, [r7, #4]
 8005e4c:	460b      	mov	r3, r1
 8005e4e:	70fb      	strb	r3, [r7, #3]
  /* Check the parameters */
  assert_param(IS_RCC_APB1_PERIPH(RCC_APB1Periph));
  assert_param(IS_FUNCTIONAL_STATE(NewState));
  if (NewState != DISABLE)
 8005e50:	78fb      	ldrb	r3, [r7, #3]
 8005e52:	2b00      	cmp	r3, #0
 8005e54:	d006      	beq.n	8005e64 <RCC_APB1PeriphResetCmd+0x20>
  {
    RCC->APB1RSTR |= RCC_APB1Periph;
 8005e56:	490a      	ldr	r1, [pc, #40]	; (8005e80 <RCC_APB1PeriphResetCmd+0x3c>)
 8005e58:	4b09      	ldr	r3, [pc, #36]	; (8005e80 <RCC_APB1PeriphResetCmd+0x3c>)
 8005e5a:	6a1a      	ldr	r2, [r3, #32]
 8005e5c:	687b      	ldr	r3, [r7, #4]
 8005e5e:	4313      	orrs	r3, r2
 8005e60:	620b      	str	r3, [r1, #32]
  }
  else
  {
    RCC->APB1RSTR &= ~RCC_APB1Periph;
  }
}
 8005e62:	e006      	b.n	8005e72 <RCC_APB1PeriphResetCmd+0x2e>
  {
    RCC->APB1RSTR |= RCC_APB1Periph;
  }
  else
  {
    RCC->APB1RSTR &= ~RCC_APB1Periph;
 8005e64:	4906      	ldr	r1, [pc, #24]	; (8005e80 <RCC_APB1PeriphResetCmd+0x3c>)
 8005e66:	4b06      	ldr	r3, [pc, #24]	; (8005e80 <RCC_APB1PeriphResetCmd+0x3c>)
 8005e68:	6a1a      	ldr	r2, [r3, #32]
 8005e6a:	687b      	ldr	r3, [r7, #4]
 8005e6c:	43db      	mvns	r3, r3
 8005e6e:	4013      	ands	r3, r2
 8005e70:	620b      	str	r3, [r1, #32]
  }
}
 8005e72:	bf00      	nop
 8005e74:	370c      	adds	r7, #12
 8005e76:	46bd      	mov	sp, r7
 8005e78:	f85d 7b04 	ldr.w	r7, [sp], #4
 8005e7c:	4770      	bx	lr
 8005e7e:	bf00      	nop
 8005e80:	40023800 	.word	0x40023800

08005e84 <GPIO_Init>:
  * @param  GPIO_InitStruct: pointer to a GPIO_InitTypeDef structure that contains
  *         the configuration information for the specified GPIO peripheral.
  * @retval None
  */
void GPIO_Init(GPIO_TypeDef* GPIOx, GPIO_InitTypeDef* GPIO_InitStruct)
{
 8005e84:	b480      	push	{r7}
 8005e86:	b087      	sub	sp, #28
 8005e88:	af00      	add	r7, sp, #0
 8005e8a:	6078      	str	r0, [r7, #4]
 8005e8c:	6039      	str	r1, [r7, #0]
  uint32_t pinpos = 0x00, pos = 0x00 , currentpin = 0x00;
 8005e8e:	2300      	movs	r3, #0
 8005e90:	617b      	str	r3, [r7, #20]
 8005e92:	2300      	movs	r3, #0
 8005e94:	613b      	str	r3, [r7, #16]
 8005e96:	2300      	movs	r3, #0
 8005e98:	60fb      	str	r3, [r7, #12]
  assert_param(IS_GPIO_MODE(GPIO_InitStruct->GPIO_Mode));
  assert_param(IS_GPIO_PUPD(GPIO_InitStruct->GPIO_PuPd));

  /* ------------------------- Configure the port pins ---------------- */
  /*-- GPIO Mode Configuration --*/
  for (pinpos = 0x00; pinpos < 0x10; pinpos++)
 8005e9a:	2300      	movs	r3, #0
 8005e9c:	617b      	str	r3, [r7, #20]
 8005e9e:	e076      	b.n	8005f8e <GPIO_Init+0x10a>
  {
    pos = ((uint32_t)0x01) << pinpos;
 8005ea0:	2201      	movs	r2, #1
 8005ea2:	697b      	ldr	r3, [r7, #20]
 8005ea4:	fa02 f303 	lsl.w	r3, r2, r3
 8005ea8:	613b      	str	r3, [r7, #16]
    /* Get the port pins position */
    currentpin = (GPIO_InitStruct->GPIO_Pin) & pos;
 8005eaa:	683b      	ldr	r3, [r7, #0]
 8005eac:	681a      	ldr	r2, [r3, #0]
 8005eae:	693b      	ldr	r3, [r7, #16]
 8005eb0:	4013      	ands	r3, r2
 8005eb2:	60fb      	str	r3, [r7, #12]

    if (currentpin == pos)
 8005eb4:	68fa      	ldr	r2, [r7, #12]
 8005eb6:	693b      	ldr	r3, [r7, #16]
 8005eb8:	429a      	cmp	r2, r3
 8005eba:	d165      	bne.n	8005f88 <GPIO_Init+0x104>
    {
      GPIOx->MODER  &= ~(GPIO_MODER_MODER0 << (pinpos * 2));
 8005ebc:	687b      	ldr	r3, [r7, #4]
 8005ebe:	681a      	ldr	r2, [r3, #0]
 8005ec0:	697b      	ldr	r3, [r7, #20]
 8005ec2:	005b      	lsls	r3, r3, #1
 8005ec4:	2103      	movs	r1, #3
 8005ec6:	fa01 f303 	lsl.w	r3, r1, r3
 8005eca:	43db      	mvns	r3, r3
 8005ecc:	401a      	ands	r2, r3
 8005ece:	687b      	ldr	r3, [r7, #4]
 8005ed0:	601a      	str	r2, [r3, #0]
      GPIOx->MODER |= (((uint32_t)GPIO_InitStruct->GPIO_Mode) << (pinpos * 2));
 8005ed2:	687b      	ldr	r3, [r7, #4]
 8005ed4:	681a      	ldr	r2, [r3, #0]
 8005ed6:	683b      	ldr	r3, [r7, #0]
 8005ed8:	791b      	ldrb	r3, [r3, #4]
 8005eda:	4619      	mov	r1, r3
 8005edc:	697b      	ldr	r3, [r7, #20]
 8005ede:	005b      	lsls	r3, r3, #1
 8005ee0:	fa01 f303 	lsl.w	r3, r1, r3
 8005ee4:	431a      	orrs	r2, r3
 8005ee6:	687b      	ldr	r3, [r7, #4]
 8005ee8:	601a      	str	r2, [r3, #0]

      if ((GPIO_InitStruct->GPIO_Mode == GPIO_Mode_OUT) || (GPIO_InitStruct->GPIO_Mode == GPIO_Mode_AF))
 8005eea:	683b      	ldr	r3, [r7, #0]
 8005eec:	791b      	ldrb	r3, [r3, #4]
 8005eee:	2b01      	cmp	r3, #1
 8005ef0:	d003      	beq.n	8005efa <GPIO_Init+0x76>
 8005ef2:	683b      	ldr	r3, [r7, #0]
 8005ef4:	791b      	ldrb	r3, [r3, #4]
 8005ef6:	2b02      	cmp	r3, #2
 8005ef8:	d12e      	bne.n	8005f58 <GPIO_Init+0xd4>
      {
        /* Check Speed mode parameters */
        assert_param(IS_GPIO_SPEED(GPIO_InitStruct->GPIO_Speed));

        /* Speed mode configuration */
        GPIOx->OSPEEDR &= ~(GPIO_OSPEEDER_OSPEEDR0 << (pinpos * 2));
 8005efa:	687b      	ldr	r3, [r7, #4]
 8005efc:	689a      	ldr	r2, [r3, #8]
 8005efe:	697b      	ldr	r3, [r7, #20]
 8005f00:	005b      	lsls	r3, r3, #1
 8005f02:	2103      	movs	r1, #3
 8005f04:	fa01 f303 	lsl.w	r3, r1, r3
 8005f08:	43db      	mvns	r3, r3
 8005f0a:	401a      	ands	r2, r3
 8005f0c:	687b      	ldr	r3, [r7, #4]
 8005f0e:	609a      	str	r2, [r3, #8]
        GPIOx->OSPEEDR |= ((uint32_t)(GPIO_InitStruct->GPIO_Speed) << (pinpos * 2));
 8005f10:	687b      	ldr	r3, [r7, #4]
 8005f12:	689a      	ldr	r2, [r3, #8]
 8005f14:	683b      	ldr	r3, [r7, #0]
 8005f16:	795b      	ldrb	r3, [r3, #5]
 8005f18:	4619      	mov	r1, r3
 8005f1a:	697b      	ldr	r3, [r7, #20]
 8005f1c:	005b      	lsls	r3, r3, #1
 8005f1e:	fa01 f303 	lsl.w	r3, r1, r3
 8005f22:	431a      	orrs	r2, r3
 8005f24:	687b      	ldr	r3, [r7, #4]
 8005f26:	609a      	str	r2, [r3, #8]

        /* Check Output mode parameters */
        assert_param(IS_GPIO_OTYPE(GPIO_InitStruct->GPIO_OType));

        /* Output mode configuration*/
        GPIOx->OTYPER  &= ~((GPIO_OTYPER_OT_0) << ((uint16_t)pinpos)) ;
 8005f28:	687b      	ldr	r3, [r7, #4]
 8005f2a:	685a      	ldr	r2, [r3, #4]
 8005f2c:	697b      	ldr	r3, [r7, #20]
 8005f2e:	b29b      	uxth	r3, r3
 8005f30:	2101      	movs	r1, #1
 8005f32:	fa01 f303 	lsl.w	r3, r1, r3
 8005f36:	43db      	mvns	r3, r3
 8005f38:	401a      	ands	r2, r3
 8005f3a:	687b      	ldr	r3, [r7, #4]
 8005f3c:	605a      	str	r2, [r3, #4]
        GPIOx->OTYPER |= (uint16_t)(((uint16_t)GPIO_InitStruct->GPIO_OType) << ((uint16_t)pinpos));
 8005f3e:	687b      	ldr	r3, [r7, #4]
 8005f40:	685a      	ldr	r2, [r3, #4]
 8005f42:	683b      	ldr	r3, [r7, #0]
 8005f44:	799b      	ldrb	r3, [r3, #6]
 8005f46:	4619      	mov	r1, r3
 8005f48:	697b      	ldr	r3, [r7, #20]
 8005f4a:	b29b      	uxth	r3, r3
 8005f4c:	fa01 f303 	lsl.w	r3, r1, r3
 8005f50:	b29b      	uxth	r3, r3
 8005f52:	431a      	orrs	r2, r3
 8005f54:	687b      	ldr	r3, [r7, #4]
 8005f56:	605a      	str	r2, [r3, #4]
      }

      /* Pull-up Pull down resistor configuration*/
      GPIOx->PUPDR &= ~(GPIO_PUPDR_PUPDR0 << ((uint16_t)pinpos * 2));
 8005f58:	687b      	ldr	r3, [r7, #4]
 8005f5a:	68da      	ldr	r2, [r3, #12]
 8005f5c:	697b      	ldr	r3, [r7, #20]
 8005f5e:	b29b      	uxth	r3, r3
 8005f60:	005b      	lsls	r3, r3, #1
 8005f62:	2103      	movs	r1, #3
 8005f64:	fa01 f303 	lsl.w	r3, r1, r3
 8005f68:	43db      	mvns	r3, r3
 8005f6a:	401a      	ands	r2, r3
 8005f6c:	687b      	ldr	r3, [r7, #4]
 8005f6e:	60da      	str	r2, [r3, #12]
      GPIOx->PUPDR |= (((uint32_t)GPIO_InitStruct->GPIO_PuPd) << (pinpos * 2));
 8005f70:	687b      	ldr	r3, [r7, #4]
 8005f72:	68da      	ldr	r2, [r3, #12]
 8005f74:	683b      	ldr	r3, [r7, #0]
 8005f76:	79db      	ldrb	r3, [r3, #7]
 8005f78:	4619      	mov	r1, r3
 8005f7a:	697b      	ldr	r3, [r7, #20]
 8005f7c:	005b      	lsls	r3, r3, #1
 8005f7e:	fa01 f303 	lsl.w	r3, r1, r3
 8005f82:	431a      	orrs	r2, r3
 8005f84:	687b      	ldr	r3, [r7, #4]
 8005f86:	60da      	str	r2, [r3, #12]
  assert_param(IS_GPIO_MODE(GPIO_InitStruct->GPIO_Mode));
  assert_param(IS_GPIO_PUPD(GPIO_InitStruct->GPIO_PuPd));

  /* ------------------------- Configure the port pins ---------------- */
  /*-- GPIO Mode Configuration --*/
  for (pinpos = 0x00; pinpos < 0x10; pinpos++)
 8005f88:	697b      	ldr	r3, [r7, #20]
 8005f8a:	3301      	adds	r3, #1
 8005f8c:	617b      	str	r3, [r7, #20]
 8005f8e:	697b      	ldr	r3, [r7, #20]
 8005f90:	2b0f      	cmp	r3, #15
 8005f92:	d985      	bls.n	8005ea0 <GPIO_Init+0x1c>
      /* Pull-up Pull down resistor configuration*/
      GPIOx->PUPDR &= ~(GPIO_PUPDR_PUPDR0 << ((uint16_t)pinpos * 2));
      GPIOx->PUPDR |= (((uint32_t)GPIO_InitStruct->GPIO_PuPd) << (pinpos * 2));
    }
  }
}
 8005f94:	bf00      	nop
 8005f96:	371c      	adds	r7, #28
 8005f98:	46bd      	mov	sp, r7
 8005f9a:	f85d 7b04 	ldr.w	r7, [sp], #4
 8005f9e:	4770      	bx	lr

08005fa0 <GPIO_ReadInputDataBit>:
  * @param  GPIO_Pin: specifies the port bit to read.
  *         This parameter can be GPIO_Pin_x where x can be (0..15).
  * @retval The input port pin value.
  */
uint8_t GPIO_ReadInputDataBit(GPIO_TypeDef* GPIOx, uint16_t GPIO_Pin)
{
 8005fa0:	b480      	push	{r7}
 8005fa2:	b085      	sub	sp, #20
 8005fa4:	af00      	add	r7, sp, #0
 8005fa6:	6078      	str	r0, [r7, #4]
 8005fa8:	460b      	mov	r3, r1
 8005faa:	807b      	strh	r3, [r7, #2]
  uint8_t bitstatus = 0x00;
 8005fac:	2300      	movs	r3, #0
 8005fae:	73fb      	strb	r3, [r7, #15]

  /* Check the parameters */
  assert_param(IS_GPIO_ALL_PERIPH(GPIOx));
  assert_param(IS_GET_GPIO_PIN(GPIO_Pin));

  if ((GPIOx->IDR & GPIO_Pin) != (uint32_t)Bit_RESET)
 8005fb0:	687b      	ldr	r3, [r7, #4]
 8005fb2:	691a      	ldr	r2, [r3, #16]
 8005fb4:	887b      	ldrh	r3, [r7, #2]
 8005fb6:	4013      	ands	r3, r2
 8005fb8:	2b00      	cmp	r3, #0
 8005fba:	d002      	beq.n	8005fc2 <GPIO_ReadInputDataBit+0x22>
  {
    bitstatus = (uint8_t)Bit_SET;
 8005fbc:	2301      	movs	r3, #1
 8005fbe:	73fb      	strb	r3, [r7, #15]
 8005fc0:	e001      	b.n	8005fc6 <GPIO_ReadInputDataBit+0x26>
  }
  else
  {
    bitstatus = (uint8_t)Bit_RESET;
 8005fc2:	2300      	movs	r3, #0
 8005fc4:	73fb      	strb	r3, [r7, #15]
  }
  return bitstatus;
 8005fc6:	7bfb      	ldrb	r3, [r7, #15]
}
 8005fc8:	4618      	mov	r0, r3
 8005fca:	3714      	adds	r7, #20
 8005fcc:	46bd      	mov	sp, r7
 8005fce:	f85d 7b04 	ldr.w	r7, [sp], #4
 8005fd2:	4770      	bx	lr

08005fd4 <GPIO_SetBits>:
  * @param  GPIO_Pin: specifies the port bits to be written.
  *          This parameter can be any combination of GPIO_Pin_x where x can be (0..15).
  * @retval None
  */
void GPIO_SetBits(GPIO_TypeDef* GPIOx, uint16_t GPIO_Pin)
{
 8005fd4:	b480      	push	{r7}
 8005fd6:	b083      	sub	sp, #12
 8005fd8:	af00      	add	r7, sp, #0
 8005fda:	6078      	str	r0, [r7, #4]
 8005fdc:	460b      	mov	r3, r1
 8005fde:	807b      	strh	r3, [r7, #2]
  /* Check the parameters */
  assert_param(IS_GPIO_ALL_PERIPH(GPIOx));
  assert_param(IS_GPIO_PIN(GPIO_Pin));

  GPIOx->BSRRL = GPIO_Pin;
 8005fe0:	687b      	ldr	r3, [r7, #4]
 8005fe2:	887a      	ldrh	r2, [r7, #2]
 8005fe4:	831a      	strh	r2, [r3, #24]
}
 8005fe6:	bf00      	nop
 8005fe8:	370c      	adds	r7, #12
 8005fea:	46bd      	mov	sp, r7
 8005fec:	f85d 7b04 	ldr.w	r7, [sp], #4
 8005ff0:	4770      	bx	lr
 8005ff2:	bf00      	nop

08005ff4 <GPIO_ResetBits>:
  * @param  GPIO_Pin: specifies the port bits to be written.
  *          This parameter can be any combination of GPIO_Pin_x where x can be (0..15).
  * @retval None
  */
void GPIO_ResetBits(GPIO_TypeDef* GPIOx, uint16_t GPIO_Pin)
{
 8005ff4:	b480      	push	{r7}
 8005ff6:	b083      	sub	sp, #12
 8005ff8:	af00      	add	r7, sp, #0
 8005ffa:	6078      	str	r0, [r7, #4]
 8005ffc:	460b      	mov	r3, r1
 8005ffe:	807b      	strh	r3, [r7, #2]
  /* Check the parameters */
  assert_param(IS_GPIO_ALL_PERIPH(GPIOx));
  assert_param(IS_GPIO_PIN(GPIO_Pin));

  GPIOx->BSRRH = GPIO_Pin;
 8006000:	687b      	ldr	r3, [r7, #4]
 8006002:	887a      	ldrh	r2, [r7, #2]
 8006004:	835a      	strh	r2, [r3, #26]
}
 8006006:	bf00      	nop
 8006008:	370c      	adds	r7, #12
 800600a:	46bd      	mov	sp, r7
 800600c:	f85d 7b04 	ldr.w	r7, [sp], #4
 8006010:	4770      	bx	lr
 8006012:	bf00      	nop

08006014 <GPIO_PinAFConfig>:
  *            @arg GPIO_AF_DCMI: Connect DCMI pins to AF13 
  *            @arg GPIO_AF_EVENTOUT: Connect EVENTOUT pins to AF15
  * @retval None
  */
void GPIO_PinAFConfig(GPIO_TypeDef* GPIOx, uint16_t GPIO_PinSource, uint8_t GPIO_AF)
{
 8006014:	b480      	push	{r7}
 8006016:	b085      	sub	sp, #20
 8006018:	af00      	add	r7, sp, #0
 800601a:	6078      	str	r0, [r7, #4]
 800601c:	460b      	mov	r3, r1
 800601e:	807b      	strh	r3, [r7, #2]
 8006020:	4613      	mov	r3, r2
 8006022:	707b      	strb	r3, [r7, #1]
  uint32_t temp = 0x00;
 8006024:	2300      	movs	r3, #0
 8006026:	60fb      	str	r3, [r7, #12]
  uint32_t temp_2 = 0x00;
 8006028:	2300      	movs	r3, #0
 800602a:	60bb      	str	r3, [r7, #8]
  /* Check the parameters */
  assert_param(IS_GPIO_ALL_PERIPH(GPIOx));
  assert_param(IS_GPIO_PIN_SOURCE(GPIO_PinSource));
  assert_param(IS_GPIO_AF(GPIO_AF));
  
  temp = ((uint32_t)(GPIO_AF) << ((uint32_t)((uint32_t)GPIO_PinSource & (uint32_t)0x07) * 4)) ;
 800602c:	787a      	ldrb	r2, [r7, #1]
 800602e:	887b      	ldrh	r3, [r7, #2]
 8006030:	f003 0307 	and.w	r3, r3, #7
 8006034:	009b      	lsls	r3, r3, #2
 8006036:	fa02 f303 	lsl.w	r3, r2, r3
 800603a:	60fb      	str	r3, [r7, #12]
  GPIOx->AFR[GPIO_PinSource >> 0x03] &= ~((uint32_t)0xF << ((uint32_t)((uint32_t)GPIO_PinSource & (uint32_t)0x07) * 4)) ;
 800603c:	887b      	ldrh	r3, [r7, #2]
 800603e:	08db      	lsrs	r3, r3, #3
 8006040:	b29b      	uxth	r3, r3
 8006042:	4618      	mov	r0, r3
 8006044:	887b      	ldrh	r3, [r7, #2]
 8006046:	08db      	lsrs	r3, r3, #3
 8006048:	b29b      	uxth	r3, r3
 800604a:	461a      	mov	r2, r3
 800604c:	687b      	ldr	r3, [r7, #4]
 800604e:	3208      	adds	r2, #8
 8006050:	f853 2022 	ldr.w	r2, [r3, r2, lsl #2]
 8006054:	887b      	ldrh	r3, [r7, #2]
 8006056:	f003 0307 	and.w	r3, r3, #7
 800605a:	009b      	lsls	r3, r3, #2
 800605c:	210f      	movs	r1, #15
 800605e:	fa01 f303 	lsl.w	r3, r1, r3
 8006062:	43db      	mvns	r3, r3
 8006064:	ea02 0103 	and.w	r1, r2, r3
 8006068:	687b      	ldr	r3, [r7, #4]
 800606a:	f100 0208 	add.w	r2, r0, #8
 800606e:	f843 1022 	str.w	r1, [r3, r2, lsl #2]
  temp_2 = GPIOx->AFR[GPIO_PinSource >> 0x03] | temp;
 8006072:	887b      	ldrh	r3, [r7, #2]
 8006074:	08db      	lsrs	r3, r3, #3
 8006076:	b29b      	uxth	r3, r3
 8006078:	461a      	mov	r2, r3
 800607a:	687b      	ldr	r3, [r7, #4]
 800607c:	3208      	adds	r2, #8
 800607e:	f853 2022 	ldr.w	r2, [r3, r2, lsl #2]
 8006082:	68fb      	ldr	r3, [r7, #12]
 8006084:	4313      	orrs	r3, r2
 8006086:	60bb      	str	r3, [r7, #8]
  GPIOx->AFR[GPIO_PinSource >> 0x03] = temp_2;
 8006088:	887b      	ldrh	r3, [r7, #2]
 800608a:	08db      	lsrs	r3, r3, #3
 800608c:	b29b      	uxth	r3, r3
 800608e:	461a      	mov	r2, r3
 8006090:	687b      	ldr	r3, [r7, #4]
 8006092:	3208      	adds	r2, #8
 8006094:	68b9      	ldr	r1, [r7, #8]
 8006096:	f843 1022 	str.w	r1, [r3, r2, lsl #2]
}
 800609a:	bf00      	nop
 800609c:	3714      	adds	r7, #20
 800609e:	46bd      	mov	sp, r7
 80060a0:	f85d 7b04 	ldr.w	r7, [sp], #4
 80060a4:	4770      	bx	lr
 80060a6:	bf00      	nop

080060a8 <EXTI_Init>:
  * @param  EXTI_InitStruct: pointer to a EXTI_InitTypeDef structure
  *         that contains the configuration information for the EXTI peripheral.
  * @retval None
  */
void EXTI_Init(EXTI_InitTypeDef* EXTI_InitStruct)
{
 80060a8:	b480      	push	{r7}
 80060aa:	b085      	sub	sp, #20
 80060ac:	af00      	add	r7, sp, #0
 80060ae:	6078      	str	r0, [r7, #4]
  uint32_t tmp = 0;
 80060b0:	2300      	movs	r3, #0
 80060b2:	60fb      	str	r3, [r7, #12]
  assert_param(IS_EXTI_MODE(EXTI_InitStruct->EXTI_Mode));
  assert_param(IS_EXTI_TRIGGER(EXTI_InitStruct->EXTI_Trigger));
  assert_param(IS_EXTI_LINE(EXTI_InitStruct->EXTI_Line));  
  assert_param(IS_FUNCTIONAL_STATE(EXTI_InitStruct->EXTI_LineCmd));

  tmp = (uint32_t)EXTI_BASE;
 80060b4:	4b34      	ldr	r3, [pc, #208]	; (8006188 <EXTI_Init+0xe0>)
 80060b6:	60fb      	str	r3, [r7, #12]
     
  if (EXTI_InitStruct->EXTI_LineCmd != DISABLE)
 80060b8:	687b      	ldr	r3, [r7, #4]
 80060ba:	799b      	ldrb	r3, [r3, #6]
 80060bc:	2b00      	cmp	r3, #0
 80060be:	d04f      	beq.n	8006160 <EXTI_Init+0xb8>
  {
    /* Clear EXTI line configuration */
    EXTI->IMR &= ~EXTI_InitStruct->EXTI_Line;
 80060c0:	4931      	ldr	r1, [pc, #196]	; (8006188 <EXTI_Init+0xe0>)
 80060c2:	4b31      	ldr	r3, [pc, #196]	; (8006188 <EXTI_Init+0xe0>)
 80060c4:	681a      	ldr	r2, [r3, #0]
 80060c6:	687b      	ldr	r3, [r7, #4]
 80060c8:	681b      	ldr	r3, [r3, #0]
 80060ca:	43db      	mvns	r3, r3
 80060cc:	4013      	ands	r3, r2
 80060ce:	600b      	str	r3, [r1, #0]
    EXTI->EMR &= ~EXTI_InitStruct->EXTI_Line;
 80060d0:	492d      	ldr	r1, [pc, #180]	; (8006188 <EXTI_Init+0xe0>)
 80060d2:	4b2d      	ldr	r3, [pc, #180]	; (8006188 <EXTI_Init+0xe0>)
 80060d4:	685a      	ldr	r2, [r3, #4]
 80060d6:	687b      	ldr	r3, [r7, #4]
 80060d8:	681b      	ldr	r3, [r3, #0]
 80060da:	43db      	mvns	r3, r3
 80060dc:	4013      	ands	r3, r2
 80060de:	604b      	str	r3, [r1, #4]
    
    tmp += EXTI_InitStruct->EXTI_Mode;
 80060e0:	687b      	ldr	r3, [r7, #4]
 80060e2:	791b      	ldrb	r3, [r3, #4]
 80060e4:	461a      	mov	r2, r3
 80060e6:	68fb      	ldr	r3, [r7, #12]
 80060e8:	4413      	add	r3, r2
 80060ea:	60fb      	str	r3, [r7, #12]

    *(__IO uint32_t *) tmp |= EXTI_InitStruct->EXTI_Line;
 80060ec:	68fb      	ldr	r3, [r7, #12]
 80060ee:	68fa      	ldr	r2, [r7, #12]
 80060f0:	6811      	ldr	r1, [r2, #0]
 80060f2:	687a      	ldr	r2, [r7, #4]
 80060f4:	6812      	ldr	r2, [r2, #0]
 80060f6:	430a      	orrs	r2, r1
 80060f8:	601a      	str	r2, [r3, #0]

    /* Clear Rising Falling edge configuration */
    EXTI->RTSR &= ~EXTI_InitStruct->EXTI_Line;
 80060fa:	4923      	ldr	r1, [pc, #140]	; (8006188 <EXTI_Init+0xe0>)
 80060fc:	4b22      	ldr	r3, [pc, #136]	; (8006188 <EXTI_Init+0xe0>)
 80060fe:	689a      	ldr	r2, [r3, #8]
 8006100:	687b      	ldr	r3, [r7, #4]
 8006102:	681b      	ldr	r3, [r3, #0]
 8006104:	43db      	mvns	r3, r3
 8006106:	4013      	ands	r3, r2
 8006108:	608b      	str	r3, [r1, #8]
    EXTI->FTSR &= ~EXTI_InitStruct->EXTI_Line;
 800610a:	491f      	ldr	r1, [pc, #124]	; (8006188 <EXTI_Init+0xe0>)
 800610c:	4b1e      	ldr	r3, [pc, #120]	; (8006188 <EXTI_Init+0xe0>)
 800610e:	68da      	ldr	r2, [r3, #12]
 8006110:	687b      	ldr	r3, [r7, #4]
 8006112:	681b      	ldr	r3, [r3, #0]
 8006114:	43db      	mvns	r3, r3
 8006116:	4013      	ands	r3, r2
 8006118:	60cb      	str	r3, [r1, #12]
    
    /* Select the trigger for the selected external interrupts */
    if (EXTI_InitStruct->EXTI_Trigger == EXTI_Trigger_Rising_Falling)
 800611a:	687b      	ldr	r3, [r7, #4]
 800611c:	795b      	ldrb	r3, [r3, #5]
 800611e:	2b10      	cmp	r3, #16
 8006120:	d10e      	bne.n	8006140 <EXTI_Init+0x98>
    {
      /* Rising Falling edge */
      EXTI->RTSR |= EXTI_InitStruct->EXTI_Line;
 8006122:	4919      	ldr	r1, [pc, #100]	; (8006188 <EXTI_Init+0xe0>)
 8006124:	4b18      	ldr	r3, [pc, #96]	; (8006188 <EXTI_Init+0xe0>)
 8006126:	689a      	ldr	r2, [r3, #8]
 8006128:	687b      	ldr	r3, [r7, #4]
 800612a:	681b      	ldr	r3, [r3, #0]
 800612c:	4313      	orrs	r3, r2
 800612e:	608b      	str	r3, [r1, #8]
      EXTI->FTSR |= EXTI_InitStruct->EXTI_Line;
 8006130:	4915      	ldr	r1, [pc, #84]	; (8006188 <EXTI_Init+0xe0>)
 8006132:	4b15      	ldr	r3, [pc, #84]	; (8006188 <EXTI_Init+0xe0>)
 8006134:	68da      	ldr	r2, [r3, #12]
 8006136:	687b      	ldr	r3, [r7, #4]
 8006138:	681b      	ldr	r3, [r3, #0]
 800613a:	4313      	orrs	r3, r2
 800613c:	60cb      	str	r3, [r1, #12]
    tmp += EXTI_InitStruct->EXTI_Mode;

    /* Disable the selected external lines */
    *(__IO uint32_t *) tmp &= ~EXTI_InitStruct->EXTI_Line;
  }
}
 800613e:	e01d      	b.n	800617c <EXTI_Init+0xd4>
      EXTI->RTSR |= EXTI_InitStruct->EXTI_Line;
      EXTI->FTSR |= EXTI_InitStruct->EXTI_Line;
    }
    else
    {
      tmp = (uint32_t)EXTI_BASE;
 8006140:	4b11      	ldr	r3, [pc, #68]	; (8006188 <EXTI_Init+0xe0>)
 8006142:	60fb      	str	r3, [r7, #12]
      tmp += EXTI_InitStruct->EXTI_Trigger;
 8006144:	687b      	ldr	r3, [r7, #4]
 8006146:	795b      	ldrb	r3, [r3, #5]
 8006148:	461a      	mov	r2, r3
 800614a:	68fb      	ldr	r3, [r7, #12]
 800614c:	4413      	add	r3, r2
 800614e:	60fb      	str	r3, [r7, #12]

      *(__IO uint32_t *) tmp |= EXTI_InitStruct->EXTI_Line;
 8006150:	68fb      	ldr	r3, [r7, #12]
 8006152:	68fa      	ldr	r2, [r7, #12]
 8006154:	6811      	ldr	r1, [r2, #0]
 8006156:	687a      	ldr	r2, [r7, #4]
 8006158:	6812      	ldr	r2, [r2, #0]
 800615a:	430a      	orrs	r2, r1
 800615c:	601a      	str	r2, [r3, #0]
    tmp += EXTI_InitStruct->EXTI_Mode;

    /* Disable the selected external lines */
    *(__IO uint32_t *) tmp &= ~EXTI_InitStruct->EXTI_Line;
  }
}
 800615e:	e00d      	b.n	800617c <EXTI_Init+0xd4>
      *(__IO uint32_t *) tmp |= EXTI_InitStruct->EXTI_Line;
    }
  }
  else
  {
    tmp += EXTI_InitStruct->EXTI_Mode;
 8006160:	687b      	ldr	r3, [r7, #4]
 8006162:	791b      	ldrb	r3, [r3, #4]
 8006164:	461a      	mov	r2, r3
 8006166:	68fb      	ldr	r3, [r7, #12]
 8006168:	4413      	add	r3, r2
 800616a:	60fb      	str	r3, [r7, #12]

    /* Disable the selected external lines */
    *(__IO uint32_t *) tmp &= ~EXTI_InitStruct->EXTI_Line;
 800616c:	68fb      	ldr	r3, [r7, #12]
 800616e:	68fa      	ldr	r2, [r7, #12]
 8006170:	6811      	ldr	r1, [r2, #0]
 8006172:	687a      	ldr	r2, [r7, #4]
 8006174:	6812      	ldr	r2, [r2, #0]
 8006176:	43d2      	mvns	r2, r2
 8006178:	400a      	ands	r2, r1
 800617a:	601a      	str	r2, [r3, #0]
  }
}
 800617c:	bf00      	nop
 800617e:	3714      	adds	r7, #20
 8006180:	46bd      	mov	sp, r7
 8006182:	f85d 7b04 	ldr.w	r7, [sp], #4
 8006186:	4770      	bx	lr
 8006188:	40013c00 	.word	0x40013c00

0800618c <EXTI_ClearITPendingBit>:
  * @param  EXTI_Line: specifies the EXTI lines to clear.
  *          This parameter can be any combination of EXTI_Linex where x can be (0..22)
  * @retval None
  */
void EXTI_ClearITPendingBit(uint32_t EXTI_Line)
{
 800618c:	b480      	push	{r7}
 800618e:	b083      	sub	sp, #12
 8006190:	af00      	add	r7, sp, #0
 8006192:	6078      	str	r0, [r7, #4]
  /* Check the parameters */
  assert_param(IS_EXTI_LINE(EXTI_Line));
  
  EXTI->PR = EXTI_Line;
 8006194:	4a04      	ldr	r2, [pc, #16]	; (80061a8 <EXTI_ClearITPendingBit+0x1c>)
 8006196:	687b      	ldr	r3, [r7, #4]
 8006198:	6153      	str	r3, [r2, #20]
}
 800619a:	bf00      	nop
 800619c:	370c      	adds	r7, #12
 800619e:	46bd      	mov	sp, r7
 80061a0:	f85d 7b04 	ldr.w	r7, [sp], #4
 80061a4:	4770      	bx	lr
 80061a6:	bf00      	nop
 80061a8:	40013c00 	.word	0x40013c00

080061ac <DMA_Init>:
  * @param  DMA_InitStruct: pointer to a DMA_InitTypeDef structure that contains
  *         the configuration information for the specified DMA Stream.  
  * @retval None
  */
void DMA_Init(DMA_Stream_TypeDef* DMAy_Streamx, DMA_InitTypeDef* DMA_InitStruct)
{
 80061ac:	b480      	push	{r7}
 80061ae:	b085      	sub	sp, #20
 80061b0:	af00      	add	r7, sp, #0
 80061b2:	6078      	str	r0, [r7, #4]
 80061b4:	6039      	str	r1, [r7, #0]
  uint32_t tmpreg = 0;
 80061b6:	2300      	movs	r3, #0
 80061b8:	60fb      	str	r3, [r7, #12]
  assert_param(IS_DMA_MEMORY_BURST(DMA_InitStruct->DMA_MemoryBurst));
  assert_param(IS_DMA_PERIPHERAL_BURST(DMA_InitStruct->DMA_PeripheralBurst));

  /*------------------------- DMAy Streamx CR Configuration ------------------*/
  /* Get the DMAy_Streamx CR value */
  tmpreg = DMAy_Streamx->CR;
 80061ba:	687b      	ldr	r3, [r7, #4]
 80061bc:	681b      	ldr	r3, [r3, #0]
 80061be:	60fb      	str	r3, [r7, #12]

  /* Clear CHSEL, MBURST, PBURST, PL, MSIZE, PSIZE, MINC, PINC, CIRC and DIR bits */
  tmpreg &= ((uint32_t)~(DMA_SxCR_CHSEL | DMA_SxCR_MBURST | DMA_SxCR_PBURST | \
 80061c0:	68fa      	ldr	r2, [r7, #12]
 80061c2:	4b25      	ldr	r3, [pc, #148]	; (8006258 <DMA_Init+0xac>)
 80061c4:	4013      	ands	r3, r2
 80061c6:	60fb      	str	r3, [r7, #12]
  /* Set MSIZE bits according to DMA_MemoryDataSize value */
  /* Set CIRC bit according to DMA_Mode value */
  /* Set PL bits according to DMA_Priority value */
  /* Set MBURST bits according to DMA_MemoryBurst value */
  /* Set PBURST bits according to DMA_PeripheralBurst value */
  tmpreg |= DMA_InitStruct->DMA_Channel | DMA_InitStruct->DMA_DIR |
 80061c8:	683b      	ldr	r3, [r7, #0]
 80061ca:	681a      	ldr	r2, [r3, #0]
 80061cc:	683b      	ldr	r3, [r7, #0]
 80061ce:	68db      	ldr	r3, [r3, #12]
 80061d0:	431a      	orrs	r2, r3
            DMA_InitStruct->DMA_PeripheralInc | DMA_InitStruct->DMA_MemoryInc |
 80061d2:	683b      	ldr	r3, [r7, #0]
 80061d4:	695b      	ldr	r3, [r3, #20]
  /* Set MSIZE bits according to DMA_MemoryDataSize value */
  /* Set CIRC bit according to DMA_Mode value */
  /* Set PL bits according to DMA_Priority value */
  /* Set MBURST bits according to DMA_MemoryBurst value */
  /* Set PBURST bits according to DMA_PeripheralBurst value */
  tmpreg |= DMA_InitStruct->DMA_Channel | DMA_InitStruct->DMA_DIR |
 80061d6:	431a      	orrs	r2, r3
            DMA_InitStruct->DMA_PeripheralInc | DMA_InitStruct->DMA_MemoryInc |
 80061d8:	683b      	ldr	r3, [r7, #0]
 80061da:	699b      	ldr	r3, [r3, #24]
 80061dc:	431a      	orrs	r2, r3
            DMA_InitStruct->DMA_PeripheralDataSize | DMA_InitStruct->DMA_MemoryDataSize |
 80061de:	683b      	ldr	r3, [r7, #0]
 80061e0:	69db      	ldr	r3, [r3, #28]
  /* Set CIRC bit according to DMA_Mode value */
  /* Set PL bits according to DMA_Priority value */
  /* Set MBURST bits according to DMA_MemoryBurst value */
  /* Set PBURST bits according to DMA_PeripheralBurst value */
  tmpreg |= DMA_InitStruct->DMA_Channel | DMA_InitStruct->DMA_DIR |
            DMA_InitStruct->DMA_PeripheralInc | DMA_InitStruct->DMA_MemoryInc |
 80061e2:	431a      	orrs	r2, r3
            DMA_InitStruct->DMA_PeripheralDataSize | DMA_InitStruct->DMA_MemoryDataSize |
 80061e4:	683b      	ldr	r3, [r7, #0]
 80061e6:	6a1b      	ldr	r3, [r3, #32]
 80061e8:	431a      	orrs	r2, r3
            DMA_InitStruct->DMA_Mode | DMA_InitStruct->DMA_Priority |
 80061ea:	683b      	ldr	r3, [r7, #0]
 80061ec:	6a5b      	ldr	r3, [r3, #36]	; 0x24
  /* Set PL bits according to DMA_Priority value */
  /* Set MBURST bits according to DMA_MemoryBurst value */
  /* Set PBURST bits according to DMA_PeripheralBurst value */
  tmpreg |= DMA_InitStruct->DMA_Channel | DMA_InitStruct->DMA_DIR |
            DMA_InitStruct->DMA_PeripheralInc | DMA_InitStruct->DMA_MemoryInc |
            DMA_InitStruct->DMA_PeripheralDataSize | DMA_InitStruct->DMA_MemoryDataSize |
 80061ee:	431a      	orrs	r2, r3
            DMA_InitStruct->DMA_Mode | DMA_InitStruct->DMA_Priority |
 80061f0:	683b      	ldr	r3, [r7, #0]
 80061f2:	6a9b      	ldr	r3, [r3, #40]	; 0x28
 80061f4:	431a      	orrs	r2, r3
            DMA_InitStruct->DMA_MemoryBurst | DMA_InitStruct->DMA_PeripheralBurst;
 80061f6:	683b      	ldr	r3, [r7, #0]
 80061f8:	6b5b      	ldr	r3, [r3, #52]	; 0x34
  /* Set MBURST bits according to DMA_MemoryBurst value */
  /* Set PBURST bits according to DMA_PeripheralBurst value */
  tmpreg |= DMA_InitStruct->DMA_Channel | DMA_InitStruct->DMA_DIR |
            DMA_InitStruct->DMA_PeripheralInc | DMA_InitStruct->DMA_MemoryInc |
            DMA_InitStruct->DMA_PeripheralDataSize | DMA_InitStruct->DMA_MemoryDataSize |
            DMA_InitStruct->DMA_Mode | DMA_InitStruct->DMA_Priority |
 80061fa:	431a      	orrs	r2, r3
            DMA_InitStruct->DMA_MemoryBurst | DMA_InitStruct->DMA_PeripheralBurst;
 80061fc:	683b      	ldr	r3, [r7, #0]
 80061fe:	6b9b      	ldr	r3, [r3, #56]	; 0x38
 8006200:	4313      	orrs	r3, r2
  /* Set MSIZE bits according to DMA_MemoryDataSize value */
  /* Set CIRC bit according to DMA_Mode value */
  /* Set PL bits according to DMA_Priority value */
  /* Set MBURST bits according to DMA_MemoryBurst value */
  /* Set PBURST bits according to DMA_PeripheralBurst value */
  tmpreg |= DMA_InitStruct->DMA_Channel | DMA_InitStruct->DMA_DIR |
 8006202:	68fa      	ldr	r2, [r7, #12]
 8006204:	4313      	orrs	r3, r2
 8006206:	60fb      	str	r3, [r7, #12]
            DMA_InitStruct->DMA_PeripheralDataSize | DMA_InitStruct->DMA_MemoryDataSize |
            DMA_InitStruct->DMA_Mode | DMA_InitStruct->DMA_Priority |
            DMA_InitStruct->DMA_MemoryBurst | DMA_InitStruct->DMA_PeripheralBurst;

  /* Write to DMAy Streamx CR register */
  DMAy_Streamx->CR = tmpreg;
 8006208:	687b      	ldr	r3, [r7, #4]
 800620a:	68fa      	ldr	r2, [r7, #12]
 800620c:	601a      	str	r2, [r3, #0]

  /*------------------------- DMAy Streamx FCR Configuration -----------------*/
  /* Get the DMAy_Streamx FCR value */
  tmpreg = DMAy_Streamx->FCR;
 800620e:	687b      	ldr	r3, [r7, #4]
 8006210:	695b      	ldr	r3, [r3, #20]
 8006212:	60fb      	str	r3, [r7, #12]

  /* Clear DMDIS and FTH bits */
  tmpreg &= (uint32_t)~(DMA_SxFCR_DMDIS | DMA_SxFCR_FTH);
 8006214:	68fb      	ldr	r3, [r7, #12]
 8006216:	f023 0307 	bic.w	r3, r3, #7
 800621a:	60fb      	str	r3, [r7, #12]

  /* Configure DMAy Streamx FIFO: 
    Set DMDIS bits according to DMA_FIFOMode value 
    Set FTH bits according to DMA_FIFOThreshold value */
  tmpreg |= DMA_InitStruct->DMA_FIFOMode | DMA_InitStruct->DMA_FIFOThreshold;
 800621c:	683b      	ldr	r3, [r7, #0]
 800621e:	6ada      	ldr	r2, [r3, #44]	; 0x2c
 8006220:	683b      	ldr	r3, [r7, #0]
 8006222:	6b1b      	ldr	r3, [r3, #48]	; 0x30
 8006224:	4313      	orrs	r3, r2
 8006226:	68fa      	ldr	r2, [r7, #12]
 8006228:	4313      	orrs	r3, r2
 800622a:	60fb      	str	r3, [r7, #12]

  /* Write to DMAy Streamx CR */
  DMAy_Streamx->FCR = tmpreg;
 800622c:	687b      	ldr	r3, [r7, #4]
 800622e:	68fa      	ldr	r2, [r7, #12]
 8006230:	615a      	str	r2, [r3, #20]

  /*------------------------- DMAy Streamx NDTR Configuration ----------------*/
  /* Write to DMAy Streamx NDTR register */
  DMAy_Streamx->NDTR = DMA_InitStruct->DMA_BufferSize;
 8006232:	683b      	ldr	r3, [r7, #0]
 8006234:	691a      	ldr	r2, [r3, #16]
 8006236:	687b      	ldr	r3, [r7, #4]
 8006238:	605a      	str	r2, [r3, #4]

  /*------------------------- DMAy Streamx PAR Configuration -----------------*/
  /* Write to DMAy Streamx PAR */
  DMAy_Streamx->PAR = DMA_InitStruct->DMA_PeripheralBaseAddr;
 800623a:	683b      	ldr	r3, [r7, #0]
 800623c:	685a      	ldr	r2, [r3, #4]
 800623e:	687b      	ldr	r3, [r7, #4]
 8006240:	609a      	str	r2, [r3, #8]

  /*------------------------- DMAy Streamx M0AR Configuration ----------------*/
  /* Write to DMAy Streamx M0AR */
  DMAy_Streamx->M0AR = DMA_InitStruct->DMA_Memory0BaseAddr;
 8006242:	683b      	ldr	r3, [r7, #0]
 8006244:	689a      	ldr	r2, [r3, #8]
 8006246:	687b      	ldr	r3, [r7, #4]
 8006248:	60da      	str	r2, [r3, #12]
}
 800624a:	bf00      	nop
 800624c:	3714      	adds	r7, #20
 800624e:	46bd      	mov	sp, r7
 8006250:	f85d 7b04 	ldr.w	r7, [sp], #4
 8006254:	4770      	bx	lr
 8006256:	bf00      	nop
 8006258:	f01c803f 	.word	0xf01c803f

0800625c <DMA_Cmd>:
  *        this single data is finished.            
  *    
  * @retval None
  */
void DMA_Cmd(DMA_Stream_TypeDef* DMAy_Streamx, FunctionalState NewState)
{
 800625c:	b480      	push	{r7}
 800625e:	b083      	sub	sp, #12
 8006260:	af00      	add	r7, sp, #0
 8006262:	6078      	str	r0, [r7, #4]
 8006264:	460b      	mov	r3, r1
 8006266:	70fb      	strb	r3, [r7, #3]
  /* Check the parameters */
  assert_param(IS_DMA_ALL_PERIPH(DMAy_Streamx));
  assert_param(IS_FUNCTIONAL_STATE(NewState));

  if (NewState != DISABLE)
 8006268:	78fb      	ldrb	r3, [r7, #3]
 800626a:	2b00      	cmp	r3, #0
 800626c:	d006      	beq.n	800627c <DMA_Cmd+0x20>
  {
    /* Enable the selected DMAy Streamx by setting EN bit */
    DMAy_Streamx->CR |= (uint32_t)DMA_SxCR_EN;
 800626e:	687b      	ldr	r3, [r7, #4]
 8006270:	681b      	ldr	r3, [r3, #0]
 8006272:	f043 0201 	orr.w	r2, r3, #1
 8006276:	687b      	ldr	r3, [r7, #4]
 8006278:	601a      	str	r2, [r3, #0]
  else
  {
    /* Disable the selected DMAy Streamx by clearing EN bit */
    DMAy_Streamx->CR &= ~(uint32_t)DMA_SxCR_EN;
  }
}
 800627a:	e005      	b.n	8006288 <DMA_Cmd+0x2c>
    DMAy_Streamx->CR |= (uint32_t)DMA_SxCR_EN;
  }
  else
  {
    /* Disable the selected DMAy Streamx by clearing EN bit */
    DMAy_Streamx->CR &= ~(uint32_t)DMA_SxCR_EN;
 800627c:	687b      	ldr	r3, [r7, #4]
 800627e:	681b      	ldr	r3, [r3, #0]
 8006280:	f023 0201 	bic.w	r2, r3, #1
 8006284:	687b      	ldr	r3, [r7, #4]
 8006286:	601a      	str	r2, [r3, #0]
  }
}
 8006288:	bf00      	nop
 800628a:	370c      	adds	r7, #12
 800628c:	46bd      	mov	sp, r7
 800628e:	f85d 7b04 	ldr.w	r7, [sp], #4
 8006292:	4770      	bx	lr

08006294 <DMA_GetCmdStatus>:
  *          of this single data is finished.  
  *      
  * @retval Current state of the DMAy Streamx (ENABLE or DISABLE).
  */
FunctionalState DMA_GetCmdStatus(DMA_Stream_TypeDef* DMAy_Streamx)
{
 8006294:	b480      	push	{r7}
 8006296:	b085      	sub	sp, #20
 8006298:	af00      	add	r7, sp, #0
 800629a:	6078      	str	r0, [r7, #4]
  FunctionalState state = DISABLE;
 800629c:	2300      	movs	r3, #0
 800629e:	73fb      	strb	r3, [r7, #15]

  /* Check the parameters */
  assert_param(IS_DMA_ALL_PERIPH(DMAy_Streamx));

  if ((DMAy_Streamx->CR & (uint32_t)DMA_SxCR_EN) != 0)
 80062a0:	687b      	ldr	r3, [r7, #4]
 80062a2:	681b      	ldr	r3, [r3, #0]
 80062a4:	f003 0301 	and.w	r3, r3, #1
 80062a8:	2b00      	cmp	r3, #0
 80062aa:	d002      	beq.n	80062b2 <DMA_GetCmdStatus+0x1e>
  {
    /* The selected DMAy Streamx EN bit is set (DMA is still transferring) */
    state = ENABLE;
 80062ac:	2301      	movs	r3, #1
 80062ae:	73fb      	strb	r3, [r7, #15]
 80062b0:	e001      	b.n	80062b6 <DMA_GetCmdStatus+0x22>
  }
  else
  {
    /* The selected DMAy Streamx EN bit is cleared (DMA is disabled and 
        all transfers are complete) */
    state = DISABLE;
 80062b2:	2300      	movs	r3, #0
 80062b4:	73fb      	strb	r3, [r7, #15]
  }
  return state;
 80062b6:	7bfb      	ldrb	r3, [r7, #15]
}
 80062b8:	4618      	mov	r0, r3
 80062ba:	3714      	adds	r7, #20
 80062bc:	46bd      	mov	sp, r7
 80062be:	f85d 7b04 	ldr.w	r7, [sp], #4
 80062c2:	4770      	bx	lr

080062c4 <DMA_GetFlagStatus>:
  *            @arg DMA_FLAG_FEIFx:  Streamx FIFO error flag
  *         Where x can be 0 to 7 to select the DMA Stream.
  * @retval The new state of DMA_FLAG (SET or RESET).
  */
FlagStatus DMA_GetFlagStatus(DMA_Stream_TypeDef* DMAy_Streamx, uint32_t DMA_FLAG)
{
 80062c4:	b480      	push	{r7}
 80062c6:	b087      	sub	sp, #28
 80062c8:	af00      	add	r7, sp, #0
 80062ca:	6078      	str	r0, [r7, #4]
 80062cc:	6039      	str	r1, [r7, #0]
  FlagStatus bitstatus = RESET;
 80062ce:	2300      	movs	r3, #0
 80062d0:	75fb      	strb	r3, [r7, #23]
  DMA_TypeDef* DMAy;
  uint32_t tmpreg = 0;
 80062d2:	2300      	movs	r3, #0
 80062d4:	60fb      	str	r3, [r7, #12]
  /* Check the parameters */
  assert_param(IS_DMA_ALL_PERIPH(DMAy_Streamx));
  assert_param(IS_DMA_GET_FLAG(DMA_FLAG));

  /* Determine the DMA to which belongs the stream */
  if (DMAy_Streamx < DMA2_Stream0)
 80062d6:	687b      	ldr	r3, [r7, #4]
 80062d8:	4a15      	ldr	r2, [pc, #84]	; (8006330 <DMA_GetFlagStatus+0x6c>)
 80062da:	4293      	cmp	r3, r2
 80062dc:	d802      	bhi.n	80062e4 <DMA_GetFlagStatus+0x20>
  {
    /* DMAy_Streamx belongs to DMA1 */
    DMAy = DMA1; 
 80062de:	4b15      	ldr	r3, [pc, #84]	; (8006334 <DMA_GetFlagStatus+0x70>)
 80062e0:	613b      	str	r3, [r7, #16]
 80062e2:	e001      	b.n	80062e8 <DMA_GetFlagStatus+0x24>
  } 
  else 
  {
    /* DMAy_Streamx belongs to DMA2 */
    DMAy = DMA2; 
 80062e4:	4b14      	ldr	r3, [pc, #80]	; (8006338 <DMA_GetFlagStatus+0x74>)
 80062e6:	613b      	str	r3, [r7, #16]
  }

  /* Check if the flag is in HISR or LISR */
  if ((DMA_FLAG & HIGH_ISR_MASK) != (uint32_t)RESET)
 80062e8:	683b      	ldr	r3, [r7, #0]
 80062ea:	f003 5300 	and.w	r3, r3, #536870912	; 0x20000000
 80062ee:	2b00      	cmp	r3, #0
 80062f0:	d003      	beq.n	80062fa <DMA_GetFlagStatus+0x36>
  {
    /* Get DMAy HISR register value */
    tmpreg = DMAy->HISR;
 80062f2:	693b      	ldr	r3, [r7, #16]
 80062f4:	685b      	ldr	r3, [r3, #4]
 80062f6:	60fb      	str	r3, [r7, #12]
 80062f8:	e002      	b.n	8006300 <DMA_GetFlagStatus+0x3c>
  }
  else
  {
    /* Get DMAy LISR register value */
    tmpreg = DMAy->LISR;
 80062fa:	693b      	ldr	r3, [r7, #16]
 80062fc:	681b      	ldr	r3, [r3, #0]
 80062fe:	60fb      	str	r3, [r7, #12]
  }   
 
  /* Mask the reserved bits */
  tmpreg &= (uint32_t)RESERVED_MASK;
 8006300:	68fb      	ldr	r3, [r7, #12]
 8006302:	f023 23f0 	bic.w	r3, r3, #4026593280	; 0xf000f000
 8006306:	f023 1382 	bic.w	r3, r3, #8519810	; 0x820082
 800630a:	60fb      	str	r3, [r7, #12]

  /* Check the status of the specified DMA flag */
  if ((tmpreg & DMA_FLAG) != (uint32_t)RESET)
 800630c:	68fa      	ldr	r2, [r7, #12]
 800630e:	683b      	ldr	r3, [r7, #0]
 8006310:	4013      	ands	r3, r2
 8006312:	2b00      	cmp	r3, #0
 8006314:	d002      	beq.n	800631c <DMA_GetFlagStatus+0x58>
  {
    /* DMA_FLAG is set */
    bitstatus = SET;
 8006316:	2301      	movs	r3, #1
 8006318:	75fb      	strb	r3, [r7, #23]
 800631a:	e001      	b.n	8006320 <DMA_GetFlagStatus+0x5c>
  }
  else
  {
    /* DMA_FLAG is reset */
    bitstatus = RESET;
 800631c:	2300      	movs	r3, #0
 800631e:	75fb      	strb	r3, [r7, #23]
  }

  /* Return the DMA_FLAG status */
  return  bitstatus;
 8006320:	7dfb      	ldrb	r3, [r7, #23]
}
 8006322:	4618      	mov	r0, r3
 8006324:	371c      	adds	r7, #28
 8006326:	46bd      	mov	sp, r7
 8006328:	f85d 7b04 	ldr.w	r7, [sp], #4
 800632c:	4770      	bx	lr
 800632e:	bf00      	nop
 8006330:	4002640f 	.word	0x4002640f
 8006334:	40026000 	.word	0x40026000
 8006338:	40026400 	.word	0x40026400

0800633c <DMA_ClearFlag>:
  *            @arg DMA_FLAG_FEIFx:  Streamx FIFO error flag
  *         Where x can be 0 to 7 to select the DMA Stream.   
  * @retval None
  */
void DMA_ClearFlag(DMA_Stream_TypeDef* DMAy_Streamx, uint32_t DMA_FLAG)
{
 800633c:	b480      	push	{r7}
 800633e:	b085      	sub	sp, #20
 8006340:	af00      	add	r7, sp, #0
 8006342:	6078      	str	r0, [r7, #4]
 8006344:	6039      	str	r1, [r7, #0]
  /* Check the parameters */
  assert_param(IS_DMA_ALL_PERIPH(DMAy_Streamx));
  assert_param(IS_DMA_CLEAR_FLAG(DMA_FLAG));

  /* Determine the DMA to which belongs the stream */
  if (DMAy_Streamx < DMA2_Stream0)
 8006346:	687b      	ldr	r3, [r7, #4]
 8006348:	4a10      	ldr	r2, [pc, #64]	; (800638c <DMA_ClearFlag+0x50>)
 800634a:	4293      	cmp	r3, r2
 800634c:	d802      	bhi.n	8006354 <DMA_ClearFlag+0x18>
  {
    /* DMAy_Streamx belongs to DMA1 */
    DMAy = DMA1; 
 800634e:	4b10      	ldr	r3, [pc, #64]	; (8006390 <DMA_ClearFlag+0x54>)
 8006350:	60fb      	str	r3, [r7, #12]
 8006352:	e001      	b.n	8006358 <DMA_ClearFlag+0x1c>
  } 
  else 
  {
    /* DMAy_Streamx belongs to DMA2 */
    DMAy = DMA2; 
 8006354:	4b0f      	ldr	r3, [pc, #60]	; (8006394 <DMA_ClearFlag+0x58>)
 8006356:	60fb      	str	r3, [r7, #12]
  }

  /* Check if LIFCR or HIFCR register is targeted */
  if ((DMA_FLAG & HIGH_ISR_MASK) != (uint32_t)RESET)
 8006358:	683b      	ldr	r3, [r7, #0]
 800635a:	f003 5300 	and.w	r3, r3, #536870912	; 0x20000000
 800635e:	2b00      	cmp	r3, #0
 8006360:	d007      	beq.n	8006372 <DMA_ClearFlag+0x36>
  {
    /* Set DMAy HIFCR register clear flag bits */
    DMAy->HIFCR = (uint32_t)(DMA_FLAG & RESERVED_MASK);
 8006362:	683b      	ldr	r3, [r7, #0]
 8006364:	f023 23f0 	bic.w	r3, r3, #4026593280	; 0xf000f000
 8006368:	f023 1382 	bic.w	r3, r3, #8519810	; 0x820082
 800636c:	68fa      	ldr	r2, [r7, #12]
 800636e:	60d3      	str	r3, [r2, #12]
  else 
  {
    /* Set DMAy LIFCR register clear flag bits */
    DMAy->LIFCR = (uint32_t)(DMA_FLAG & RESERVED_MASK);
  }    
}
 8006370:	e006      	b.n	8006380 <DMA_ClearFlag+0x44>
    DMAy->HIFCR = (uint32_t)(DMA_FLAG & RESERVED_MASK);
  }
  else 
  {
    /* Set DMAy LIFCR register clear flag bits */
    DMAy->LIFCR = (uint32_t)(DMA_FLAG & RESERVED_MASK);
 8006372:	683b      	ldr	r3, [r7, #0]
 8006374:	f023 23f0 	bic.w	r3, r3, #4026593280	; 0xf000f000
 8006378:	f023 1382 	bic.w	r3, r3, #8519810	; 0x820082
 800637c:	68fa      	ldr	r2, [r7, #12]
 800637e:	6093      	str	r3, [r2, #8]
  }    
}
 8006380:	bf00      	nop
 8006382:	3714      	adds	r7, #20
 8006384:	46bd      	mov	sp, r7
 8006386:	f85d 7b04 	ldr.w	r7, [sp], #4
 800638a:	4770      	bx	lr
 800638c:	4002640f 	.word	0x4002640f
 8006390:	40026000 	.word	0x40026000
 8006394:	40026400 	.word	0x40026400

08006398 <DAC_SetChannel1Data>:
  *            @arg DAC_Align_12b_R: 12bit right data alignment selected
  * @param  Data: Data to be loaded in the selected data holding register.
  * @retval None
  */
void DAC_SetChannel1Data(uint32_t DAC_Align, uint16_t Data)
{  
 8006398:	b480      	push	{r7}
 800639a:	b085      	sub	sp, #20
 800639c:	af00      	add	r7, sp, #0
 800639e:	6078      	str	r0, [r7, #4]
 80063a0:	460b      	mov	r3, r1
 80063a2:	807b      	strh	r3, [r7, #2]
  __IO uint32_t tmp = 0;
 80063a4:	2300      	movs	r3, #0
 80063a6:	60fb      	str	r3, [r7, #12]
  
  /* Check the parameters */
  assert_param(IS_DAC_ALIGN(DAC_Align));
  assert_param(IS_DAC_DATA(Data));
  
  tmp = (uint32_t)DAC_BASE; 
 80063a8:	4b08      	ldr	r3, [pc, #32]	; (80063cc <DAC_SetChannel1Data+0x34>)
 80063aa:	60fb      	str	r3, [r7, #12]
  tmp += DHR12R1_OFFSET + DAC_Align;
 80063ac:	68fa      	ldr	r2, [r7, #12]
 80063ae:	687b      	ldr	r3, [r7, #4]
 80063b0:	4413      	add	r3, r2
 80063b2:	3308      	adds	r3, #8
 80063b4:	60fb      	str	r3, [r7, #12]

  /* Set the DAC channel1 selected data holding register */
  *(__IO uint32_t *) tmp = Data;
 80063b6:	68fb      	ldr	r3, [r7, #12]
 80063b8:	461a      	mov	r2, r3
 80063ba:	887b      	ldrh	r3, [r7, #2]
 80063bc:	6013      	str	r3, [r2, #0]
}
 80063be:	bf00      	nop
 80063c0:	3714      	adds	r7, #20
 80063c2:	46bd      	mov	sp, r7
 80063c4:	f85d 7b04 	ldr.w	r7, [sp], #4
 80063c8:	4770      	bx	lr
 80063ca:	bf00      	nop
 80063cc:	40007400 	.word	0x40007400

080063d0 <NVIC_PriorityGroupConfig>:
  * @note   When the NVIC_PriorityGroup_0 is selected, IRQ pre-emption is no more possible. 
  *         The pending IRQ priority will be managed only by the subpriority. 
  * @retval None
  */
void NVIC_PriorityGroupConfig(uint32_t NVIC_PriorityGroup)
{
 80063d0:	b480      	push	{r7}
 80063d2:	b083      	sub	sp, #12
 80063d4:	af00      	add	r7, sp, #0
 80063d6:	6078      	str	r0, [r7, #4]
  /* Check the parameters */
  assert_param(IS_NVIC_PRIORITY_GROUP(NVIC_PriorityGroup));
  
  /* Set the PRIGROUP[10:8] bits according to NVIC_PriorityGroup value */
  SCB->AIRCR = AIRCR_VECTKEY_MASK | NVIC_PriorityGroup;
 80063d8:	4a06      	ldr	r2, [pc, #24]	; (80063f4 <NVIC_PriorityGroupConfig+0x24>)
 80063da:	687b      	ldr	r3, [r7, #4]
 80063dc:	f043 63bf 	orr.w	r3, r3, #100139008	; 0x5f80000
 80063e0:	f443 3300 	orr.w	r3, r3, #131072	; 0x20000
 80063e4:	60d3      	str	r3, [r2, #12]
}
 80063e6:	bf00      	nop
 80063e8:	370c      	adds	r7, #12
 80063ea:	46bd      	mov	sp, r7
 80063ec:	f85d 7b04 	ldr.w	r7, [sp], #4
 80063f0:	4770      	bx	lr
 80063f2:	bf00      	nop
 80063f4:	e000ed00 	.word	0xe000ed00

080063f8 <NVIC_Init>:
  * @param  NVIC_InitStruct: pointer to a NVIC_InitTypeDef structure that contains
  *         the configuration information for the specified NVIC peripheral.
  * @retval None
  */
void NVIC_Init(NVIC_InitTypeDef* NVIC_InitStruct)
{
 80063f8:	b480      	push	{r7}
 80063fa:	b085      	sub	sp, #20
 80063fc:	af00      	add	r7, sp, #0
 80063fe:	6078      	str	r0, [r7, #4]
  uint8_t tmppriority = 0x00, tmppre = 0x00, tmpsub = 0x0F;
 8006400:	2300      	movs	r3, #0
 8006402:	73fb      	strb	r3, [r7, #15]
 8006404:	2300      	movs	r3, #0
 8006406:	73bb      	strb	r3, [r7, #14]
 8006408:	230f      	movs	r3, #15
 800640a:	737b      	strb	r3, [r7, #13]
  /* Check the parameters */
  assert_param(IS_FUNCTIONAL_STATE(NVIC_InitStruct->NVIC_IRQChannelCmd));
  assert_param(IS_NVIC_PREEMPTION_PRIORITY(NVIC_InitStruct->NVIC_IRQChannelPreemptionPriority));  
  assert_param(IS_NVIC_SUB_PRIORITY(NVIC_InitStruct->NVIC_IRQChannelSubPriority));
    
  if (NVIC_InitStruct->NVIC_IRQChannelCmd != DISABLE)
 800640c:	687b      	ldr	r3, [r7, #4]
 800640e:	78db      	ldrb	r3, [r3, #3]
 8006410:	2b00      	cmp	r3, #0
 8006412:	d038      	beq.n	8006486 <NVIC_Init+0x8e>
  {
    /* Compute the Corresponding IRQ Priority --------------------------------*/    
    tmppriority = (0x700 - ((SCB->AIRCR) & (uint32_t)0x700))>> 0x08;
 8006414:	4b27      	ldr	r3, [pc, #156]	; (80064b4 <NVIC_Init+0xbc>)
 8006416:	68db      	ldr	r3, [r3, #12]
 8006418:	43db      	mvns	r3, r3
 800641a:	f403 63e0 	and.w	r3, r3, #1792	; 0x700
 800641e:	0a1b      	lsrs	r3, r3, #8
 8006420:	73fb      	strb	r3, [r7, #15]
    tmppre = (0x4 - tmppriority);
 8006422:	7bfb      	ldrb	r3, [r7, #15]
 8006424:	f1c3 0304 	rsb	r3, r3, #4
 8006428:	73bb      	strb	r3, [r7, #14]
    tmpsub = tmpsub >> tmppriority;
 800642a:	7b7a      	ldrb	r2, [r7, #13]
 800642c:	7bfb      	ldrb	r3, [r7, #15]
 800642e:	fa42 f303 	asr.w	r3, r2, r3
 8006432:	737b      	strb	r3, [r7, #13]

    tmppriority = NVIC_InitStruct->NVIC_IRQChannelPreemptionPriority << tmppre;
 8006434:	687b      	ldr	r3, [r7, #4]
 8006436:	785b      	ldrb	r3, [r3, #1]
 8006438:	461a      	mov	r2, r3
 800643a:	7bbb      	ldrb	r3, [r7, #14]
 800643c:	fa02 f303 	lsl.w	r3, r2, r3
 8006440:	73fb      	strb	r3, [r7, #15]
    tmppriority |=  (uint8_t)(NVIC_InitStruct->NVIC_IRQChannelSubPriority & tmpsub);
 8006442:	687b      	ldr	r3, [r7, #4]
 8006444:	789a      	ldrb	r2, [r3, #2]
 8006446:	7b7b      	ldrb	r3, [r7, #13]
 8006448:	4013      	ands	r3, r2
 800644a:	b2da      	uxtb	r2, r3
 800644c:	7bfb      	ldrb	r3, [r7, #15]
 800644e:	4313      	orrs	r3, r2
 8006450:	73fb      	strb	r3, [r7, #15]
        
    tmppriority = tmppriority << 0x04;
 8006452:	7bfb      	ldrb	r3, [r7, #15]
 8006454:	011b      	lsls	r3, r3, #4
 8006456:	73fb      	strb	r3, [r7, #15]
        
    NVIC->IP[NVIC_InitStruct->NVIC_IRQChannel] = tmppriority;
 8006458:	4a17      	ldr	r2, [pc, #92]	; (80064b8 <NVIC_Init+0xc0>)
 800645a:	687b      	ldr	r3, [r7, #4]
 800645c:	781b      	ldrb	r3, [r3, #0]
 800645e:	4413      	add	r3, r2
 8006460:	7bfa      	ldrb	r2, [r7, #15]
 8006462:	f883 2300 	strb.w	r2, [r3, #768]	; 0x300
    
    /* Enable the Selected IRQ Channels --------------------------------------*/
    NVIC->ISER[NVIC_InitStruct->NVIC_IRQChannel >> 0x05] =
 8006466:	4a14      	ldr	r2, [pc, #80]	; (80064b8 <NVIC_Init+0xc0>)
 8006468:	687b      	ldr	r3, [r7, #4]
 800646a:	781b      	ldrb	r3, [r3, #0]
 800646c:	095b      	lsrs	r3, r3, #5
 800646e:	b2db      	uxtb	r3, r3
 8006470:	4618      	mov	r0, r3
      (uint32_t)0x01 << (NVIC_InitStruct->NVIC_IRQChannel & (uint8_t)0x1F);
 8006472:	687b      	ldr	r3, [r7, #4]
 8006474:	781b      	ldrb	r3, [r3, #0]
 8006476:	f003 031f 	and.w	r3, r3, #31
 800647a:	2101      	movs	r1, #1
 800647c:	fa01 f303 	lsl.w	r3, r1, r3
    tmppriority = tmppriority << 0x04;
        
    NVIC->IP[NVIC_InitStruct->NVIC_IRQChannel] = tmppriority;
    
    /* Enable the Selected IRQ Channels --------------------------------------*/
    NVIC->ISER[NVIC_InitStruct->NVIC_IRQChannel >> 0x05] =
 8006480:	f842 3020 	str.w	r3, [r2, r0, lsl #2]
  {
    /* Disable the Selected IRQ Channels -------------------------------------*/
    NVIC->ICER[NVIC_InitStruct->NVIC_IRQChannel >> 0x05] =
      (uint32_t)0x01 << (NVIC_InitStruct->NVIC_IRQChannel & (uint8_t)0x1F);
  }
}
 8006484:	e00f      	b.n	80064a6 <NVIC_Init+0xae>
      (uint32_t)0x01 << (NVIC_InitStruct->NVIC_IRQChannel & (uint8_t)0x1F);
  }
  else
  {
    /* Disable the Selected IRQ Channels -------------------------------------*/
    NVIC->ICER[NVIC_InitStruct->NVIC_IRQChannel >> 0x05] =
 8006486:	490c      	ldr	r1, [pc, #48]	; (80064b8 <NVIC_Init+0xc0>)
 8006488:	687b      	ldr	r3, [r7, #4]
 800648a:	781b      	ldrb	r3, [r3, #0]
 800648c:	095b      	lsrs	r3, r3, #5
 800648e:	b2db      	uxtb	r3, r3
 8006490:	4618      	mov	r0, r3
      (uint32_t)0x01 << (NVIC_InitStruct->NVIC_IRQChannel & (uint8_t)0x1F);
 8006492:	687b      	ldr	r3, [r7, #4]
 8006494:	781b      	ldrb	r3, [r3, #0]
 8006496:	f003 031f 	and.w	r3, r3, #31
 800649a:	2201      	movs	r2, #1
 800649c:	409a      	lsls	r2, r3
      (uint32_t)0x01 << (NVIC_InitStruct->NVIC_IRQChannel & (uint8_t)0x1F);
  }
  else
  {
    /* Disable the Selected IRQ Channels -------------------------------------*/
    NVIC->ICER[NVIC_InitStruct->NVIC_IRQChannel >> 0x05] =
 800649e:	f100 0320 	add.w	r3, r0, #32
 80064a2:	f841 2023 	str.w	r2, [r1, r3, lsl #2]
      (uint32_t)0x01 << (NVIC_InitStruct->NVIC_IRQChannel & (uint8_t)0x1F);
  }
}
 80064a6:	bf00      	nop
 80064a8:	3714      	adds	r7, #20
 80064aa:	46bd      	mov	sp, r7
 80064ac:	f85d 7b04 	ldr.w	r7, [sp], #4
 80064b0:	4770      	bx	lr
 80064b2:	bf00      	nop
 80064b4:	e000ed00 	.word	0xe000ed00
 80064b8:	e000e100 	.word	0xe000e100

080064bc <__cxa_pure_virtual>:
 80064bc:	b508      	push	{r3, lr}
 80064be:	f000 f80d 	bl	80064dc <_ZSt9terminatev>

080064c2 <_ZN10__cxxabiv111__terminateEPFvvE>:
 80064c2:	b508      	push	{r3, lr}
 80064c4:	4780      	blx	r0
 80064c6:	f000 f80e 	bl	80064e6 <abort>
	...

080064cc <_ZSt13get_terminatev>:
 80064cc:	4b02      	ldr	r3, [pc, #8]	; (80064d8 <_ZSt13get_terminatev+0xc>)
 80064ce:	6818      	ldr	r0, [r3, #0]
 80064d0:	f3bf 8f5f 	dmb	sy
 80064d4:	4770      	bx	lr
 80064d6:	bf00      	nop
 80064d8:	20000134 	.word	0x20000134

080064dc <_ZSt9terminatev>:
 80064dc:	b508      	push	{r3, lr}
 80064de:	f7ff fff5 	bl	80064cc <_ZSt13get_terminatev>
 80064e2:	f7ff ffee 	bl	80064c2 <_ZN10__cxxabiv111__terminateEPFvvE>

080064e6 <abort>:
 80064e6:	b508      	push	{r3, lr}
 80064e8:	2006      	movs	r0, #6
 80064ea:	f000 f853 	bl	8006594 <raise>
 80064ee:	2001      	movs	r0, #1
 80064f0:	f000 f87c 	bl	80065ec <_exit>

080064f4 <__libc_init_array>:
 80064f4:	b570      	push	{r4, r5, r6, lr}
 80064f6:	4b0e      	ldr	r3, [pc, #56]	; (8006530 <__libc_init_array+0x3c>)
 80064f8:	4c0e      	ldr	r4, [pc, #56]	; (8006534 <__libc_init_array+0x40>)
 80064fa:	1ae4      	subs	r4, r4, r3
 80064fc:	10a4      	asrs	r4, r4, #2
 80064fe:	2500      	movs	r5, #0
 8006500:	461e      	mov	r6, r3
 8006502:	42a5      	cmp	r5, r4
 8006504:	d004      	beq.n	8006510 <__libc_init_array+0x1c>
 8006506:	f856 3025 	ldr.w	r3, [r6, r5, lsl #2]
 800650a:	4798      	blx	r3
 800650c:	3501      	adds	r5, #1
 800650e:	e7f8      	b.n	8006502 <__libc_init_array+0xe>
 8006510:	f000 f86e 	bl	80065f0 <_init>
 8006514:	4c08      	ldr	r4, [pc, #32]	; (8006538 <__libc_init_array+0x44>)
 8006516:	4b09      	ldr	r3, [pc, #36]	; (800653c <__libc_init_array+0x48>)
 8006518:	1ae4      	subs	r4, r4, r3
 800651a:	10a4      	asrs	r4, r4, #2
 800651c:	2500      	movs	r5, #0
 800651e:	461e      	mov	r6, r3
 8006520:	42a5      	cmp	r5, r4
 8006522:	d004      	beq.n	800652e <__libc_init_array+0x3a>
 8006524:	f856 3025 	ldr.w	r3, [r6, r5, lsl #2]
 8006528:	4798      	blx	r3
 800652a:	3501      	adds	r5, #1
 800652c:	e7f8      	b.n	8006520 <__libc_init_array+0x2c>
 800652e:	bd70      	pop	{r4, r5, r6, pc}
 8006530:	080066e4 	.word	0x080066e4
 8006534:	080066e4 	.word	0x080066e4
 8006538:	080066e8 	.word	0x080066e8
 800653c:	080066e4 	.word	0x080066e4

08006540 <_raise_r>:
 8006540:	291f      	cmp	r1, #31
 8006542:	b538      	push	{r3, r4, r5, lr}
 8006544:	4604      	mov	r4, r0
 8006546:	460d      	mov	r5, r1
 8006548:	d904      	bls.n	8006554 <_raise_r+0x14>
 800654a:	2316      	movs	r3, #22
 800654c:	6003      	str	r3, [r0, #0]
 800654e:	f04f 30ff 	mov.w	r0, #4294967295
 8006552:	bd38      	pop	{r3, r4, r5, pc}
 8006554:	6c42      	ldr	r2, [r0, #68]	; 0x44
 8006556:	b112      	cbz	r2, 800655e <_raise_r+0x1e>
 8006558:	f852 3021 	ldr.w	r3, [r2, r1, lsl #2]
 800655c:	b94b      	cbnz	r3, 8006572 <_raise_r+0x32>
 800655e:	4620      	mov	r0, r4
 8006560:	f000 f832 	bl	80065c8 <_getpid_r>
 8006564:	462a      	mov	r2, r5
 8006566:	4601      	mov	r1, r0
 8006568:	4620      	mov	r0, r4
 800656a:	e8bd 4038 	ldmia.w	sp!, {r3, r4, r5, lr}
 800656e:	f000 b819 	b.w	80065a4 <_kill_r>
 8006572:	2b01      	cmp	r3, #1
 8006574:	d00c      	beq.n	8006590 <_raise_r+0x50>
 8006576:	1c59      	adds	r1, r3, #1
 8006578:	d103      	bne.n	8006582 <_raise_r+0x42>
 800657a:	2316      	movs	r3, #22
 800657c:	6003      	str	r3, [r0, #0]
 800657e:	2001      	movs	r0, #1
 8006580:	bd38      	pop	{r3, r4, r5, pc}
 8006582:	2400      	movs	r4, #0
 8006584:	4628      	mov	r0, r5
 8006586:	f842 4025 	str.w	r4, [r2, r5, lsl #2]
 800658a:	4798      	blx	r3
 800658c:	4620      	mov	r0, r4
 800658e:	bd38      	pop	{r3, r4, r5, pc}
 8006590:	2000      	movs	r0, #0
 8006592:	bd38      	pop	{r3, r4, r5, pc}

08006594 <raise>:
 8006594:	4b02      	ldr	r3, [pc, #8]	; (80065a0 <raise+0xc>)
 8006596:	4601      	mov	r1, r0
 8006598:	6818      	ldr	r0, [r3, #0]
 800659a:	f7ff bfd1 	b.w	8006540 <_raise_r>
 800659e:	bf00      	nop
 80065a0:	20000198 	.word	0x20000198

080065a4 <_kill_r>:
 80065a4:	b538      	push	{r3, r4, r5, lr}
 80065a6:	4c07      	ldr	r4, [pc, #28]	; (80065c4 <_kill_r+0x20>)
 80065a8:	2300      	movs	r3, #0
 80065aa:	4605      	mov	r5, r0
 80065ac:	4608      	mov	r0, r1
 80065ae:	4611      	mov	r1, r2
 80065b0:	6023      	str	r3, [r4, #0]
 80065b2:	f000 f813 	bl	80065dc <_kill>
 80065b6:	1c43      	adds	r3, r0, #1
 80065b8:	d102      	bne.n	80065c0 <_kill_r+0x1c>
 80065ba:	6823      	ldr	r3, [r4, #0]
 80065bc:	b103      	cbz	r3, 80065c0 <_kill_r+0x1c>
 80065be:	602b      	str	r3, [r5, #0]
 80065c0:	bd38      	pop	{r3, r4, r5, pc}
 80065c2:	bf00      	nop
 80065c4:	200011b8 	.word	0x200011b8

080065c8 <_getpid_r>:
 80065c8:	f000 b800 	b.w	80065cc <_getpid>

080065cc <_getpid>:
 80065cc:	4b02      	ldr	r3, [pc, #8]	; (80065d8 <_getpid+0xc>)
 80065ce:	2258      	movs	r2, #88	; 0x58
 80065d0:	601a      	str	r2, [r3, #0]
 80065d2:	f04f 30ff 	mov.w	r0, #4294967295
 80065d6:	4770      	bx	lr
 80065d8:	200011b8 	.word	0x200011b8

080065dc <_kill>:
 80065dc:	4b02      	ldr	r3, [pc, #8]	; (80065e8 <_kill+0xc>)
 80065de:	2258      	movs	r2, #88	; 0x58
 80065e0:	601a      	str	r2, [r3, #0]
 80065e2:	f04f 30ff 	mov.w	r0, #4294967295
 80065e6:	4770      	bx	lr
 80065e8:	200011b8 	.word	0x200011b8

080065ec <_exit>:
 80065ec:	e7fe      	b.n	80065ec <_exit>
	...

080065f0 <_init>:
 80065f0:	b5f8      	push	{r3, r4, r5, r6, r7, lr}
 80065f2:	bf00      	nop
 80065f4:	bcf8      	pop	{r3, r4, r5, r6, r7}
 80065f6:	bc08      	pop	{r3}
 80065f8:	469e      	mov	lr, r3
 80065fa:	4770      	bx	lr

080065fc <_fini>:
 80065fc:	b5f8      	push	{r3, r4, r5, r6, r7, lr}
 80065fe:	bf00      	nop
 8006600:	bcf8      	pop	{r3, r4, r5, r6, r7}
 8006602:	bc08      	pop	{r3}
 8006604:	469e      	mov	lr, r3
 8006606:	4770      	bx	lr
